///////////////////////////////////////////////////////////////////////////////
//                                                                            /
// IAR C/C++ Compiler V8.30.1.41636 for 8051            27/Jun/2014  01:51:42 /
// Copyright 2004-2013 IAR Systems AB.                                        /
//                                                                            /
//    Core               =  plain                                             /
//    Code model         =  banked                                            /
//    Data model         =  large                                             /
//    Calling convention =  xdata reentrant                                   /
//    Constant location  =  data_rom                                          /
//    Dptr setup         =  1,16                                              /
//                                                                            /
//    Source file        =  C:\Texas Instruments\ZStack-CC2530-2.5.1a\Project /
//                          s\zstack\Samples\ParkWay\Source\PW_EndDevice.c    /
//    Command line       =  -f "C:\Texas Instruments\ZStack-CC2530-2.5.1a\Pro /
//                          jects\zstack\Samples\ParkWay\CC2530DB\..\..\..\To /
//                          ols\CC2530DB\f8wEndev.cfg" (-DCPU32MHZ            /
//                          -DROOT=__near_func -DMAC_CFG_TX_DATA_MAX=3        /
//                          -DMAC_CFG_TX_MAX=6 -DMAC_CFG_RX_MAX=3) -f         /
//                          "C:\Texas Instruments\ZStack-CC2530-2.5.1a\Projec /
//                          ts\zstack\Samples\ParkWay\CC2530DB\..\..\..\Tools /
//                          \CC2530DB\f8wConfig.cfg" (-DZIGBEEPRO -DSECURE=0  /
//                          -DZG_SECURE_DYNAMIC=0 -DREFLECTOR                 /
//                          -DDEFAULT_CHANLIST=0x00000800                     /
//                          -DZDAPP_CONFIG_PAN_ID=0xFFFF                      /
//                          -DNWK_START_DELAY=100 -DEXTENDED_JOINING_RANDOM_M /
//                          ASK=0x007F -DBEACON_REQUEST_DELAY=100             /
//                          -DBEACON_REQ_DELAY_MASK=0x00FF                    /
//                          -DLINK_STATUS_JITTER_MASK=0x007F                  /
//                          -DROUTE_EXPIRY_TIME=30 -DAPSC_ACK_WAIT_DURATION_P /
//                          OLLED=3000 -DNWK_INDIRECT_MSG_TIMEOUT=7           /
//                          -DMAX_RREQ_ENTRIES=8 -DAPSC_MAX_FRAME_RETRIES=3   /
//                          -DNWK_MAX_DATA_RETRIES=2                          /
//                          -DMAX_POLL_FAILURE_RETRIES=2 -DMAX_BCAST=9        /
//                          -DAPS_MAX_GROUPS=16 -DMAX_RTG_ENTRIES=40          /
//                          -DNWK_MAX_BINDING_ENTRIES=4                       /
//                          -DMAX_BINDING_CLUSTER_IDS=4                       /
//                          "-DDEFAULT_KEY={0x01, 0x03, 0x05, 0x07, 0x09,     /
//                          0x0B, 0x0D, 0x0F, 0x00, 0x02, 0x04, 0x06, 0x08,   /
//                          0x0A, 0x0C, 0x0D}" -DMAC_MAX_FRAME_SIZE=116       /
//                          -DZDNWKMGR_MIN_TRANSMISSIONS=20 "-DCONST=const    /
//                          __code" -DGENERIC=__generic                       /
//                          -DRFD_RCVC_ALWAYS_ON=FALSE -DPOLL_RATE=1000       /
//                          -DQUEUED_POLL_RATE=100 -DRESPONSE_POLL_RATE=100)  /
//                          -DREJOIN_POLL_RATE=440 "C:\Texas                  /
//                          Instruments\ZStack-CC2530-2.5.1a\Projects\zstack\ /
//                          Samples\ParkWay\Source\PW_EndDevice.c" -D         /
//                          NWK_AUTO_POLL -D ZTOOL_P1 -D MT_TASK -D           /
//                          MT_SYS_FUNC -D MT_ZDO_FUNC -D                     /
//                          LCD_SUPPORTED=DEBUG -D POWER_SAVING -lC           /
//                          "C:\Texas Instruments\ZStack-CC2530-2.5.1a\Projec /
//                          ts\zstack\Samples\ParkWay\CC2530DB\EndDeviceEB\Li /
//                          st\" -lA "C:\Texas Instruments\ZStack-CC2530-2.5. /
//                          1a\Projects\zstack\Samples\ParkWay\CC2530DB\EndDe /
//                          viceEB\List\" --diag_suppress Pe001,Pa010 -o      /
//                          "C:\Texas Instruments\ZStack-CC2530-2.5.1a\Projec /
//                          ts\zstack\Samples\ParkWay\CC2530DB\EndDeviceEB\Ob /
//                          j\" -e --no_code_motion --debug --core=plain      /
//                          --dptr=16,1 --data_model=large                    /
//                          --code_model=banked --calling_convention=xdata_re /
//                          entrant --place_constants=data_rom                /
//                          --nr_virtual_regs 8 -I "C:\Texas                  /
//                          Instruments\ZStack-CC2530-2.5.1a\Projects\zstack\ /
//                          Samples\ParkWay\CC2530DB\" -I "C:\Texas           /
//                          Instruments\ZStack-CC2530-2.5.1a\Projects\zstack\ /
//                          Samples\ParkWay\CC2530DB\..\Source\" -I           /
//                          "C:\Texas Instruments\ZStack-CC2530-2.5.1a\Projec /
//                          ts\zstack\Samples\ParkWay\CC2530DB\..\..\..\ZMain /
//                          \TI2530DB\" -I "C:\Texas                          /
//                          Instruments\ZStack-CC2530-2.5.1a\Projects\zstack\ /
//                          Samples\ParkWay\CC2530DB\..\..\..\..\..\Component /
//                          s\hal\include\" -I "C:\Texas                      /
//                          Instruments\ZStack-CC2530-2.5.1a\Projects\zstack\ /
//                          Samples\ParkWay\CC2530DB\..\..\..\..\..\Component /
//                          s\hal\target\CC2530EB\" -I "C:\Texas              /
//                          Instruments\ZStack-CC2530-2.5.1a\Projects\zstack\ /
//                          Samples\ParkWay\CC2530DB\..\..\..\..\..\Component /
//                          s\mac\include\" -I "C:\Texas                      /
//                          Instruments\ZStack-CC2530-2.5.1a\Projects\zstack\ /
//                          Samples\ParkWay\CC2530DB\..\..\..\..\..\Component /
//                          s\mac\high_level\" -I "C:\Texas                   /
//                          Instruments\ZStack-CC2530-2.5.1a\Projects\zstack\ /
//                          Samples\ParkWay\CC2530DB\..\..\..\..\..\Component /
//                          s\mac\low_level\srf04\" -I "C:\Texas              /
//                          Instruments\ZStack-CC2530-2.5.1a\Projects\zstack\ /
//                          Samples\ParkWay\CC2530DB\..\..\..\..\..\Component /
//                          s\mac\low_level\srf04\single_chip\" -I "C:\Texas  /
//                          Instruments\ZStack-CC2530-2.5.1a\Projects\zstack\ /
//                          Samples\ParkWay\CC2530DB\..\..\..\..\..\Component /
//                          s\mt\" -I "C:\Texas Instruments\ZStack-CC2530-2.5 /
//                          .1a\Projects\zstack\Samples\ParkWay\CC2530DB\..\. /
//                          .\..\..\..\Components\osal\include\" -I           /
//                          "C:\Texas Instruments\ZStack-CC2530-2.5.1a\Projec /
//                          ts\zstack\Samples\ParkWay\CC2530DB\..\..\..\..\.. /
//                          \Components\services\saddr\" -I "C:\Texas         /
//                          Instruments\ZStack-CC2530-2.5.1a\Projects\zstack\ /
//                          Samples\ParkWay\CC2530DB\..\..\..\..\..\Component /
//                          s\services\sdata\" -I "C:\Texas                   /
//                          Instruments\ZStack-CC2530-2.5.1a\Projects\zstack\ /
//                          Samples\ParkWay\CC2530DB\..\..\..\..\..\Component /
//                          s\stack\af\" -I "C:\Texas                         /
//                          Instruments\ZStack-CC2530-2.5.1a\Projects\zstack\ /
//                          Samples\ParkWay\CC2530DB\..\..\..\..\..\Component /
//                          s\stack\nwk\" -I "C:\Texas                        /
//                          Instruments\ZStack-CC2530-2.5.1a\Projects\zstack\ /
//                          Samples\ParkWay\CC2530DB\..\..\..\..\..\Component /
//                          s\stack\sapi\" -I "C:\Texas                       /
//                          Instruments\ZStack-CC2530-2.5.1a\Projects\zstack\ /
//                          Samples\ParkWay\CC2530DB\..\..\..\..\..\Component /
//                          s\stack\sec\" -I "C:\Texas                        /
//                          Instruments\ZStack-CC2530-2.5.1a\Projects\zstack\ /
//                          Samples\ParkWay\CC2530DB\..\..\..\..\..\Component /
//                          s\stack\sys\" -I "C:\Texas                        /
//                          Instruments\ZStack-CC2530-2.5.1a\Projects\zstack\ /
//                          Samples\ParkWay\CC2530DB\..\..\..\..\..\Component /
//                          s\stack\zdo\" -I "C:\Texas                        /
//                          Instruments\ZStack-CC2530-2.5.1a\Projects\zstack\ /
//                          Samples\ParkWay\CC2530DB\..\..\..\..\..\Component /
//                          s\zmac\" -I "C:\Texas Instruments\ZStack-CC2530-2 /
//                          .5.1a\Projects\zstack\Samples\ParkWay\CC2530DB\.. /
//                          \..\..\..\..\Components\zmac\f8w\" -Ohz           /
//                          --require_prototypes                              /
//    List file          =  C:\Texas Instruments\ZStack-CC2530-2.5.1a\Project /
//                          s\zstack\Samples\ParkWay\CC2530DB\EndDeviceEB\Lis /
//                          t\PW_EndDevice.s51                                /
//                                                                            /
//                                                                            /
///////////////////////////////////////////////////////////////////////////////

        NAME PW_EndDevice

        RTMODEL "__SystemLibrary", "CLib"
        RTMODEL "__calling_convention", "xdata_reentrant"
        RTMODEL "__code_model", "banked"
        RTMODEL "__core", "plain"
        RTMODEL "__data_model", "large"
        RTMODEL "__dptr_size", "16"
        RTMODEL "__extended_stack", "disabled"
        RTMODEL "__location_for_constants", "data"
        RTMODEL "__number_of_dptrs", "1"
        RTMODEL "__rt_version", "1"

        RSEG DOVERLAY:DATA:NOROOT(0)
        RSEG IOVERLAY:IDATA:NOROOT(0)
        RSEG ISTACK:IDATA:NOROOT(0)
        RSEG PSTACK:XDATA:NOROOT(0)
        RSEG XSTACK:XDATA:NOROOT(0)

        EXTERN ?V0
        EXTERN ?V1
        EXTERN ?V2
        EXTERN ?V3
        EXTERN ?V4
        EXTERN ?V5
        EXTERN ?ALLOC_XSTACK8
        EXTERN ?BANKED_ENTER_XDATA
        EXTERN ?BANKED_LEAVE_XDATA
        EXTERN ?BDISPATCH
        EXTERN ?BRET
        EXTERN ?DEALLOC_XSTACK8
        EXTERN ?PUSH_XSTACK_I_ONE
        EXTERN ?PUSH_XSTACK_I_TWO
        EXTERN ?XSP
        EXTERN ?XSTACK_DISP0_8
        EXTERN ?XSTACK_DISP100_8
        EXTERN ?XSTACK_DISP101_8
        EXTERN __INIT_XDATA_Z

        PUBLIC ??ParkWay_Init?relay
        FUNCTION ??ParkWay_Init?relay,0203H
        PUBLIC ??ParkWay_ProcessEvent?relay
        FUNCTION ??ParkWay_ProcessEvent?relay,0203H
        PUBLIC ??SendUART?relay
        FUNCTION ??SendUART?relay,0203H
        FUNCTION ??UART_CallBack?relay,0203H
        PUBLIC ??uart_init?relay
        FUNCTION ??uart_init?relay,0203H
        PUBLIC ParkWay_ClusterList
        PUBLIC ParkWay_DstAddr
        PUBLIC ParkWay_Init
        FUNCTION ParkWay_Init,021203H
        ARGFRAME XSTACK, 0, STACK
        LOCFRAME XSTACK, 9, STACK
        PUBLIC ParkWay_NwkState
        PUBLIC ParkWay_ProcessEvent
        FUNCTION ParkWay_ProcessEvent,0a1203H
        ARGFRAME XSTACK, 0, STACK
        LOCFRAME XSTACK, 38, STACK
        PUBLIC ParkWay_SimpleDesc
        PUBLIC ParkWay_TaskID
        PUBLIC ParkWay_TransID
        PUBLIC ParkWay_epDesc
        PUBLIC SendUART
        FUNCTION SendUART,0a1203H
        ARGFRAME XSTACK, 10, STACK
        ARGFRAME IOVERLAY, 0, STATIC
        ARGFRAME DOVERLAY, 0, STATIC
        LOCFRAME XSTACK, 10, STACK
        FUNCTION UART_CallBack,021603H
        ARGFRAME XSTACK, 0, STACK
        LOCFRAME XSTACK, 10, STACK
        PUBLIC uart_init
        FUNCTION uart_init,021203H
        ARGFRAME XSTACK, 0, STACK
        LOCFRAME ISTACK, 2, STACK
        LOCFRAME XSTACK, 29, STACK
        
          CFI Names cfiNames0
          CFI StackFrame CFA_SP SP IDATA
          CFI StackFrame CFA_PSP16 PSP16 XDATA
          CFI StackFrame CFA_XSP16 XSP16 XDATA
          CFI StaticOverlayFrame CFA_IOVERLAY IOVERLAY
          CFI StaticOverlayFrame CFA_DOVERLAY DOVERLAY
          CFI Resource `PSW.CY`:1, `B.BR0`:1, `B.BR1`:1, `B.BR2`:1, `B.BR3`:1
          CFI Resource `B.BR4`:1, `B.BR5`:1, `B.BR6`:1, `B.BR7`:1, `VB.BR8`:1
          CFI Resource `VB.BR9`:1, `VB.BR10`:1, `VB.BR11`:1, `VB.BR12`:1
          CFI Resource `VB.BR13`:1, `VB.BR14`:1, `VB.BR15`:1, VB:8, B:8, A:8
          CFI Resource PSW:8, DPL0:8, DPH0:8, R0:8, R1:8, R2:8, R3:8, R4:8, R5:8
          CFI Resource R6:8, R7:8, V0:8, V1:8, V2:8, V3:8, V4:8, V5:8, V6:8, V7:8
          CFI Resource SP:8, PSPH:8, PSPL:8, PSP16:16, XSPH:8, XSPL:8, XSP16:16
          CFI VirtualResource ?RET:24
          CFI Resource ?BRET_EXT:8
          CFI VirtualResource ?RET_HIGH:8, ?RET_LOW:8
          CFI ResourceParts PSP16 PSPH, PSPL
          CFI ResourceParts XSP16 XSPH, XSPL
          CFI ResourceParts ?RET ?BRET_EXT, ?RET_HIGH, ?RET_LOW
          CFI EndNames cfiNames0
        
          CFI Common cfiCommon0 Using cfiNames0
          CFI CodeAlign 1
          CFI DataAlign -1
          CFI ReturnAddress ?RET CODE
          CFI CFA_DOVERLAY Used
          CFI CFA_IOVERLAY Used
          CFI CFA_SP SP+-3
          CFI CFA_PSP16 PSP16+0
          CFI CFA_XSP16 XSP16+0
          CFI `PSW.CY` SameValue
          CFI `B.BR0` SameValue
          CFI `B.BR1` SameValue
          CFI `B.BR2` SameValue
          CFI `B.BR3` SameValue
          CFI `B.BR4` SameValue
          CFI `B.BR5` SameValue
          CFI `B.BR6` SameValue
          CFI `B.BR7` SameValue
          CFI `VB.BR8` SameValue
          CFI `VB.BR9` SameValue
          CFI `VB.BR10` SameValue
          CFI `VB.BR11` SameValue
          CFI `VB.BR12` SameValue
          CFI `VB.BR13` SameValue
          CFI `VB.BR14` SameValue
          CFI `VB.BR15` SameValue
          CFI VB SameValue
          CFI B Undefined
          CFI A Undefined
          CFI PSW SameValue
          CFI DPL0 SameValue
          CFI DPH0 SameValue
          CFI R0 Undefined
          CFI R1 Undefined
          CFI R2 Undefined
          CFI R3 Undefined
          CFI R4 Undefined
          CFI R5 Undefined
          CFI R6 SameValue
          CFI R7 SameValue
          CFI V0 SameValue
          CFI V1 SameValue
          CFI V2 SameValue
          CFI V3 SameValue
          CFI V4 SameValue
          CFI V5 SameValue
          CFI V6 SameValue
          CFI V7 SameValue
          CFI PSPH Undefined
          CFI PSPL Undefined
          CFI XSPH Undefined
          CFI XSPL Undefined
          CFI ?RET Concat
          CFI ?BRET_EXT Frame(CFA_SP, 3)
          CFI ?RET_HIGH Frame(CFA_SP, 2)
          CFI ?RET_LOW Frame(CFA_SP, 1)
          CFI EndCommon cfiCommon0
        
AF_DataRequest      SYMBOL "AF_DataRequest"
??AF_DataRequest?relay SYMBOL "?relay", AF_DataRequest
HalLcdWriteString   SYMBOL "HalLcdWriteString"
??HalLcdWriteString?relay SYMBOL "?relay", HalLcdWriteString
HalLedSet           SYMBOL "HalLedSet"
??HalLedSet?relay   SYMBOL "?relay", HalLedSet
HalUARTOpen         SYMBOL "HalUARTOpen"
??HalUARTOpen?relay SYMBOL "?relay", HalUARTOpen
HalUARTRead         SYMBOL "HalUARTRead"
??HalUARTRead?relay SYMBOL "?relay", HalUARTRead
HalUARTWrite        SYMBOL "HalUARTWrite"
??HalUARTWrite?relay SYMBOL "?relay", HalUARTWrite
RegisterForKeys     SYMBOL "RegisterForKeys"
??RegisterForKeys?relay SYMBOL "?relay", RegisterForKeys
ZDO_ParseEPListRsp  SYMBOL "ZDO_ParseEPListRsp"
??ZDO_ParseEPListRsp?relay SYMBOL "?relay", ZDO_ParseEPListRsp
ZDO_RegisterForZDOMsg SYMBOL "ZDO_RegisterForZDOMsg"
??ZDO_RegisterForZDOMsg?relay SYMBOL "?relay", ZDO_RegisterForZDOMsg
ZDP_MatchDescReq    SYMBOL "ZDP_MatchDescReq"
??ZDP_MatchDescReq?relay SYMBOL "?relay", ZDP_MatchDescReq
afRegister          SYMBOL "afRegister"
??afRegister?relay  SYMBOL "?relay", afRegister
osal_mem_free       SYMBOL "osal_mem_free"
??osal_mem_free?relay SYMBOL "?relay", osal_mem_free
osal_msg_deallocate SYMBOL "osal_msg_deallocate"
??osal_msg_deallocate?relay SYMBOL "?relay", osal_msg_deallocate
osal_msg_receive    SYMBOL "osal_msg_receive"
??osal_msg_receive?relay SYMBOL "?relay", osal_msg_receive
osal_start_timerEx  SYMBOL "osal_start_timerEx"
??osal_start_timerEx?relay SYMBOL "?relay", osal_start_timerEx
osal_stop_timerEx   SYMBOL "osal_stop_timerEx"
??osal_stop_timerEx?relay SYMBOL "?relay", osal_stop_timerEx
osal_strlen         SYMBOL "osal_strlen"
??osal_strlen?relay SYMBOL "?relay", osal_strlen
ParkWay_Init        SYMBOL "ParkWay_Init"
??ParkWay_Init?relay SYMBOL "?relay", ParkWay_Init
ParkWay_ProcessEvent SYMBOL "ParkWay_ProcessEvent"
??ParkWay_ProcessEvent?relay SYMBOL "?relay", ParkWay_ProcessEvent
SendUART            SYMBOL "SendUART"
??SendUART?relay    SYMBOL "?relay", SendUART
uart_init           SYMBOL "uart_init"
??uart_init?relay   SYMBOL "?relay", uart_init

        EXTERN ??AF_DataRequest?relay
        FUNCTION ??AF_DataRequest?relay,00H
        EXTERN ??HalLcdWriteString?relay
        FUNCTION ??HalLcdWriteString?relay,00H
        EXTERN ??HalLedSet?relay
        FUNCTION ??HalLedSet?relay,00H
        EXTERN ??HalUARTOpen?relay
        FUNCTION ??HalUARTOpen?relay,00H
        EXTERN ??HalUARTRead?relay
        FUNCTION ??HalUARTRead?relay,00H
        EXTERN ??HalUARTWrite?relay
        FUNCTION ??HalUARTWrite?relay,00H
        EXTERN ??RegisterForKeys?relay
        FUNCTION ??RegisterForKeys?relay,00H
        EXTERN ??ZDO_ParseEPListRsp?relay
        FUNCTION ??ZDO_ParseEPListRsp?relay,00H
        EXTERN ??ZDO_RegisterForZDOMsg?relay
        FUNCTION ??ZDO_RegisterForZDOMsg?relay,00H
        EXTERN ??ZDP_MatchDescReq?relay
        FUNCTION ??ZDP_MatchDescReq?relay,00H
        EXTERN ??afRegister?relay
        FUNCTION ??afRegister?relay,00H
        EXTERN ??osal_mem_free?relay
        FUNCTION ??osal_mem_free?relay,00H
        EXTERN ??osal_msg_deallocate?relay
        FUNCTION ??osal_msg_deallocate?relay,00H
        EXTERN ??osal_msg_receive?relay
        FUNCTION ??osal_msg_receive?relay,00H
        EXTERN ??osal_start_timerEx?relay
        FUNCTION ??osal_start_timerEx?relay,00H
        EXTERN ??osal_stop_timerEx?relay
        FUNCTION ??osal_stop_timerEx?relay,00H
        EXTERN ??osal_strlen?relay
        FUNCTION ??osal_strlen?relay,00H
        EXTERN AF_DataRequest
        FUNCTION AF_DataRequest,0202H
        ARGFRAME ISTACK, 0, STACK
        ARGFRAME PSTACK, 0, STACK
        ARGFRAME XSTACK, 38, STACK
        ARGFRAME IOVERLAY, 0, STATIC
        ARGFRAME DOVERLAY, 0, STATIC
        EXTERN HalLcdWriteString
        FUNCTION HalLcdWriteString,0202H
        ARGFRAME ISTACK, 0, STACK
        ARGFRAME PSTACK, 0, STACK
        ARGFRAME XSTACK, 9, STACK
        ARGFRAME IOVERLAY, 0, STATIC
        ARGFRAME DOVERLAY, 0, STATIC
        EXTERN HalLedSet
        FUNCTION HalLedSet,0202H
        ARGFRAME ISTACK, 0, STACK
        ARGFRAME PSTACK, 0, STACK
        ARGFRAME XSTACK, 29, STACK
        ARGFRAME IOVERLAY, 0, STATIC
        ARGFRAME DOVERLAY, 0, STATIC
        EXTERN HalUARTOpen
        FUNCTION HalUARTOpen,0202H
        ARGFRAME ISTACK, 2, STACK
        ARGFRAME PSTACK, 0, STACK
        ARGFRAME XSTACK, 29, STACK
        ARGFRAME IOVERLAY, 0, STATIC
        ARGFRAME DOVERLAY, 0, STATIC
        EXTERN HalUARTRead
        FUNCTION HalUARTRead,0202H
        ARGFRAME ISTACK, 0, STACK
        ARGFRAME PSTACK, 0, STACK
        ARGFRAME XSTACK, 10, STACK
        ARGFRAME IOVERLAY, 0, STATIC
        ARGFRAME DOVERLAY, 0, STATIC
        EXTERN HalUARTWrite
        FUNCTION HalUARTWrite,0202H
        ARGFRAME ISTACK, 0, STACK
        ARGFRAME PSTACK, 0, STACK
        ARGFRAME XSTACK, 10, STACK
        ARGFRAME IOVERLAY, 0, STATIC
        ARGFRAME DOVERLAY, 0, STATIC
        EXTERN RegisterForKeys
        FUNCTION RegisterForKeys,0202H
        ARGFRAME ISTACK, 0, STACK
        ARGFRAME PSTACK, 0, STACK
        ARGFRAME XSTACK, 9, STACK
        ARGFRAME IOVERLAY, 0, STATIC
        ARGFRAME DOVERLAY, 0, STATIC
        EXTERN ZDO_ParseEPListRsp
        FUNCTION ZDO_ParseEPListRsp,0202H
        ARGFRAME ISTACK, 0, STACK
        ARGFRAME PSTACK, 0, STACK
        ARGFRAME XSTACK, 29, STACK
        ARGFRAME IOVERLAY, 0, STATIC
        ARGFRAME DOVERLAY, 0, STATIC
        EXTERN ZDO_RegisterForZDOMsg
        FUNCTION ZDO_RegisterForZDOMsg,0202H
        ARGFRAME ISTACK, 0, STACK
        ARGFRAME PSTACK, 0, STACK
        ARGFRAME XSTACK, 9, STACK
        ARGFRAME IOVERLAY, 0, STATIC
        ARGFRAME DOVERLAY, 0, STATIC
        EXTERN ZDP_MatchDescReq
        FUNCTION ZDP_MatchDescReq,0202H
        ARGFRAME ISTACK, 0, STACK
        ARGFRAME PSTACK, 0, STACK
        ARGFRAME XSTACK, 37, STACK
        ARGFRAME IOVERLAY, 0, STATIC
        ARGFRAME DOVERLAY, 0, STATIC
        EXTERN afRegister
        FUNCTION afRegister,0202H
        ARGFRAME ISTACK, 0, STACK
        ARGFRAME PSTACK, 0, STACK
        ARGFRAME XSTACK, 9, STACK
        ARGFRAME IOVERLAY, 0, STATIC
        ARGFRAME DOVERLAY, 0, STATIC
        EXTERN osal_mem_free
        FUNCTION osal_mem_free,0202H
        ARGFRAME ISTACK, 0, STACK
        ARGFRAME PSTACK, 0, STACK
        ARGFRAME XSTACK, 29, STACK
        ARGFRAME IOVERLAY, 0, STATIC
        ARGFRAME DOVERLAY, 0, STATIC
        EXTERN osal_msg_deallocate
        FUNCTION osal_msg_deallocate,0202H
        ARGFRAME ISTACK, 0, STACK
        ARGFRAME PSTACK, 0, STACK
        ARGFRAME XSTACK, 29, STACK
        ARGFRAME IOVERLAY, 0, STATIC
        ARGFRAME DOVERLAY, 0, STATIC
        EXTERN osal_msg_receive
        FUNCTION osal_msg_receive,0202H
        ARGFRAME ISTACK, 0, STACK
        ARGFRAME PSTACK, 0, STACK
        ARGFRAME XSTACK, 29, STACK
        ARGFRAME IOVERLAY, 0, STATIC
        ARGFRAME DOVERLAY, 0, STATIC
        EXTERN osal_start_timerEx
        FUNCTION osal_start_timerEx,0202H
        ARGFRAME ISTACK, 0, STACK
        ARGFRAME PSTACK, 0, STACK
        ARGFRAME XSTACK, 29, STACK
        ARGFRAME IOVERLAY, 0, STATIC
        ARGFRAME DOVERLAY, 0, STATIC
        EXTERN osal_stop_timerEx
        FUNCTION osal_stop_timerEx,0202H
        ARGFRAME ISTACK, 0, STACK
        ARGFRAME PSTACK, 0, STACK
        ARGFRAME XSTACK, 29, STACK
        ARGFRAME IOVERLAY, 0, STATIC
        ARGFRAME DOVERLAY, 0, STATIC
        EXTERN osal_strlen
        FUNCTION osal_strlen,0202H
        ARGFRAME ISTACK, 0, STACK
        ARGFRAME PSTACK, 0, STACK
        ARGFRAME XSTACK, 34, STACK
        ARGFRAME IOVERLAY, 0, STATIC
        ARGFRAME DOVERLAY, 0, STATIC

// C:\Texas Instruments\ZStack-CC2530-2.5.1a\Projects\zstack\Samples\ParkWay\Source\PW_EndDevice.c
//    1 /*****************************************************************************
//    2   Project: Park Way (ZigBee)
//    3   End Device Firmware
//    4 
//    5   Ver.: 1.0
//    6   Date: 26/06/14
//    7   Developer:  Ânderson Ignácio da Silva
//    8   Obs.:
//    9     HAL_UART=TRUE - Enables UART on device
//   10 
//   11   Pre-processor directives:
//   12 
//   13   Changed files:
//   14 
//   15       
//   16 
//   17 *****************************************************************************/
//   18 /*********************************************************************
//   19  * INCLUDES
//   20  */
//   21 #include "OSAL.h"
//   22 #include "AF.h"
//   23 #include "ZDApp.h"
//   24 #include "ZDObject.h"
//   25 #include "ZDProfile.h"
//   26 #include "ParkWay.h"
//   27 #include "DebugTrace.h"
//   28 #include "OnBoard.h"
//   29 /* HAL */
//   30 #include "hal_lcd.h"
//   31 #include "hal_led.h"
//   32 #include "hal_key.h"
//   33 #include "hal_uart.h"
//   34 
//   35 /* RTOS */
//   36 #if defined( IAR_ARMCM3_LM )
//   37 #include "RTOS_App.h"
//   38 #endif  
//   39 
//   40 /*********************************************************************
//   41  * MACROS
//   42  */
//   43 
//   44 /*********************************************************************
//   45  * CONSTANTS
//   46  */
//   47 #define   TIME_AUTO_POLL_ED           200
//   48 #define   park                        '0'
//   49 #define   DEVICE_PW_1                 '0'
//   50 #define   DEVICE_PW_2                 '2'
//   51 #define   ParkWay_SEND_MSG_TIMEOUT   1500
//   52 /*********************************************************************
//   53  * TYPEDEFS
//   54  */
//   55 
//   56 /*********************************************************************
//   57  * GLOBAL VARIABLES
//   58  */
//   59 // This list should be filled with Application specific Cluster IDs.

        RSEG XDATA_ROM_C:CONST:REORDER:NOROOT(0)
        DATA16
//   60 const cId_t ParkWay_ClusterList[ParkWay_MAX_CLUSTERS] =
ParkWay_ClusterList:
        DW 1
//   61 {
//   62   ParkWay_CLUSTERID
//   63 };
//   64 

        RSEG XDATA_ROM_C:CONST:REORDER:NOROOT(0)
        DATA8
//   65 const SimpleDescriptionFormat_t ParkWay_SimpleDesc =
ParkWay_SimpleDesc:
        DB 10
        DATA16
        DW 3844
        DW 1
        DATA8
        DB 0
        DB 1
        DATA16
        DW ParkWay_ClusterList
        DATA8
        DB 1
        DATA16
        DW ParkWay_ClusterList
//   66 {
//   67   ParkWay_ENDPOINT,              //  int Endpoint;
//   68   ParkWay_PROFID,                //  uint16 AppProfId[2];
//   69   ParkWay_DEVICEID,              //  uint16 AppDeviceId[2];
//   70   ParkWay_DEVICE_VERSION,        //  int   AppDevVer:4;
//   71   ParkWay_FLAGS,                 //  int   AppFlags:4;
//   72   ParkWay_MAX_CLUSTERS,          //  byte  AppNumInClusters;
//   73   (cId_t *)ParkWay_ClusterList,  //  byte *pAppInClusterList;
//   74   ParkWay_MAX_CLUSTERS,          //  byte  AppNumInClusters;
//   75   (cId_t *)ParkWay_ClusterList   //  byte *pAppInClusterList;
//   76 };
//   77 
//   78 // This is the Endpoint/Interface description.  It is defined here, but
//   79 // filled-in in ParkWay_Init().  Another way to go would be to fill
//   80 // in the structure here and make it a "const" (in code space).  The
//   81 // way it's defined in this sample app it is define in RAM.

        RSEG XDATA_Z:XDATA:NOROOT(0)
        DATA8
//   82 endPointDesc_t ParkWay_epDesc;
ParkWay_epDesc:
        DS 6
        REQUIRE __INIT_XDATA_Z
//   83 
//   84 /*********************************************************************
//   85  * EXTERNAL VARIABLES
//   86  */
//   87 
//   88 /*********************************************************************
//   89  * EXTERNAL FUNCTIONS
//   90  */
//   91 
//   92 /*********************************************************************
//   93  * LOCAL VARIABLES
//   94  */

        RSEG XDATA_Z:XDATA:NOROOT(0)
        DATA8
//   95 byte ParkWay_TaskID;   // Task ID for internal task/event processing
ParkWay_TaskID:
        DS 1
        REQUIRE __INIT_XDATA_Z
//   96                           // This variable will be received when
//   97                           // ParkWay_Init() is called.

        RSEG XDATA_Z:XDATA:NOROOT(0)
        DATA8
//   98 devStates_t ParkWay_NwkState;
ParkWay_NwkState:
        DS 1
        REQUIRE __INIT_XDATA_Z
//   99 
//  100 

        RSEG XDATA_Z:XDATA:NOROOT(0)
        DATA8
//  101 byte ParkWay_TransID;  // This is the unique message ID (counter)
ParkWay_TransID:
        DS 1
        REQUIRE __INIT_XDATA_Z
//  102 

        RSEG XDATA_Z:XDATA:NOROOT(0)
        DATA8
//  103 afAddrType_t ParkWay_DstAddr;
ParkWay_DstAddr:
        DS 12
        REQUIRE __INIT_XDATA_Z
//  104 
//  105 /*********************************************************************
//  106  * LOCAL FUNCTIONS
//  107  */
//  108 void SendUART(uint8 *data,uint8 len);
//  109 void uart_init(void);
//  110 static void ParkWay_ProcessZDOMsgs( zdoIncomingMsg_t *inMsg );
//  111 static void ParkWay_HandleKeys( byte shift, byte keys );
//  112 static void ParkWay_MessageMSGCB( afIncomingMSGPacket_t *pckt );
//  113 static void ParkWay_SendTheMessage( void );
//  114 
//  115 /*********************************************************************
//  116  * NETWORK LAYER CALLBACKS
//  117  */
//  118 
//  119 /*********************************************************************
//  120  * PUBLIC FUNCTIONS
//  121  */
//  122 
//  123 /*********************************************************************
//  124  * @fn      ParkWay_Init
//  125  *
//  126  * @brief   Initialization function for the Generic App Task.
//  127  *          This is called during initialization and should contain
//  128  *          any application specific initialization (ie. hardware
//  129  *          initialization/setup, table initialization, power up
//  130  *          notificaiton ... ).
//  131  *
//  132  * @param   task_id - the ID assigned by OSAL.  This ID should be
//  133  *                    used to send messages and set timers.
//  134  *
//  135  * @return  none
//  136  */

        RSEG BANKED_CODE:CODE:NOROOT(0)
//  137 void ParkWay_Init( uint8 task_id )
ParkWay_Init:
          CFI Block cfiBlock0 Using cfiCommon0
          CFI Function ParkWay_Init
        CODE
//  138 {
        FUNCALL ParkWay_Init, afRegister
        LOCFRAME ISTACK, 0, STACK
        LOCFRAME PSTACK, 0, STACK
        LOCFRAME XSTACK, 9, STACK
        LOCFRAME IOVERLAY, 0, STATIC
        LOCFRAME DOVERLAY, 0, STATIC
        ARGFRAME ISTACK, 0, STACK
        ARGFRAME PSTACK, 0, STACK
        ARGFRAME XSTACK, 9, STACK
        ARGFRAME IOVERLAY, 0, STATIC
        ARGFRAME DOVERLAY, 0, STATIC
        FUNCALL ParkWay_Init, RegisterForKeys
        LOCFRAME ISTACK, 0, STACK
        LOCFRAME PSTACK, 0, STACK
        LOCFRAME XSTACK, 9, STACK
        LOCFRAME IOVERLAY, 0, STATIC
        LOCFRAME DOVERLAY, 0, STATIC
        ARGFRAME ISTACK, 0, STACK
        ARGFRAME PSTACK, 0, STACK
        ARGFRAME XSTACK, 9, STACK
        ARGFRAME IOVERLAY, 0, STATIC
        ARGFRAME DOVERLAY, 0, STATIC
        FUNCALL ParkWay_Init, HalLcdWriteString
        LOCFRAME ISTACK, 0, STACK
        LOCFRAME PSTACK, 0, STACK
        LOCFRAME XSTACK, 9, STACK
        LOCFRAME IOVERLAY, 0, STATIC
        LOCFRAME DOVERLAY, 0, STATIC
        ARGFRAME ISTACK, 0, STACK
        ARGFRAME PSTACK, 0, STACK
        ARGFRAME XSTACK, 9, STACK
        ARGFRAME IOVERLAY, 0, STATIC
        ARGFRAME DOVERLAY, 0, STATIC
        FUNCALL ParkWay_Init, ZDO_RegisterForZDOMsg
        LOCFRAME ISTACK, 0, STACK
        LOCFRAME PSTACK, 0, STACK
        LOCFRAME XSTACK, 9, STACK
        LOCFRAME IOVERLAY, 0, STATIC
        LOCFRAME DOVERLAY, 0, STATIC
        ARGFRAME ISTACK, 0, STACK
        ARGFRAME PSTACK, 0, STACK
        ARGFRAME XSTACK, 9, STACK
        ARGFRAME IOVERLAY, 0, STATIC
        ARGFRAME DOVERLAY, 0, STATIC
        FUNCALL ParkWay_Init, ZDO_RegisterForZDOMsg
        LOCFRAME ISTACK, 0, STACK
        LOCFRAME PSTACK, 0, STACK
        LOCFRAME XSTACK, 9, STACK
        LOCFRAME IOVERLAY, 0, STATIC
        LOCFRAME DOVERLAY, 0, STATIC
        ARGFRAME ISTACK, 0, STACK
        ARGFRAME PSTACK, 0, STACK
        ARGFRAME XSTACK, 9, STACK
        ARGFRAME IOVERLAY, 0, STATIC
        ARGFRAME DOVERLAY, 0, STATIC
        FUNCALL ParkWay_Init, osal_start_timerEx
        LOCFRAME ISTACK, 0, STACK
        LOCFRAME PSTACK, 0, STACK
        LOCFRAME XSTACK, 9, STACK
        LOCFRAME IOVERLAY, 0, STATIC
        LOCFRAME DOVERLAY, 0, STATIC
        ARGFRAME ISTACK, 0, STACK
        ARGFRAME PSTACK, 0, STACK
        ARGFRAME XSTACK, 9, STACK
        ARGFRAME IOVERLAY, 0, STATIC
        ARGFRAME DOVERLAY, 0, STATIC
        MOV     A,#-0x9
        LCALL   ?BANKED_ENTER_XDATA
          CFI DPH0 load(1, XDATA, add(CFA_XSP16, literal(-1)))
          CFI DPL0 load(1, XDATA, add(CFA_XSP16, literal(-2)))
          CFI ?BRET_EXT load(1, XDATA, add(CFA_XSP16, literal(-3)))
          CFI ?RET_HIGH load(1, XDATA, add(CFA_XSP16, literal(-4)))
          CFI ?RET_LOW load(1, XDATA, add(CFA_XSP16, literal(-5)))
          CFI R7 load(1, XDATA, add(CFA_XSP16, literal(-6)))
          CFI V0 load(1, XDATA, add(CFA_XSP16, literal(-7)))
          CFI VB load(1, XDATA, add(CFA_XSP16, literal(-8)))
          CFI R6 load(1, XDATA, add(CFA_XSP16, literal(-9)))
          CFI CFA_SP SP+0
          CFI CFA_XSP16 add(XSP16, 9)
        ; Saved register size: 9
        ; Auto size: 0
        MOV     A,R1
//  139   ParkWay_TaskID = task_id;
        MOV     DPTR,#ParkWay_TaskID
        MOVX    @DPTR,A
//  140   ParkWay_NwkState = DEV_INIT;
        MOV     DPTR,#ParkWay_NwkState
        MOV     A,#0x1
        MOVX    @DPTR,A
//  141   ParkWay_TransID = 0;
        MOV     DPTR,#ParkWay_TransID
        CLR     A
        MOVX    @DPTR,A
//  142 
//  143   // Device hardware initialization can be added here or in main() (Zmain.c).
//  144   // If the hardware is application specific - add it here.
//  145   // If the hardware is other parts of the device add it in main().
//  146 
//  147   ParkWay_DstAddr.addrMode = (afAddrMode_t)AddrNotPresent;
        MOV     DPTR,#ParkWay_DstAddr + 8
        MOVX    @DPTR,A
//  148   ParkWay_DstAddr.endPoint = 0;
        INC     DPTR
        MOVX    @DPTR,A
//  149   ParkWay_DstAddr.addr.shortAddr = 0;
        MOV     DPTR,#ParkWay_DstAddr
        MOVX    @DPTR,A
        INC     DPTR
        MOVX    @DPTR,A
//  150 
//  151   // Fill out the endpoint description.
//  152   ParkWay_epDesc.endPoint = ParkWay_ENDPOINT;
        MOV     DPTR,#ParkWay_epDesc
        MOV     A,#0xa
        MOVX    @DPTR,A
//  153   ParkWay_epDesc.task_id = &ParkWay_TaskID;
        INC     DPTR
        MOV     A,#ParkWay_TaskID & 0xff
        MOVX    @DPTR,A
        INC     DPTR
        MOV     A,#(ParkWay_TaskID >> 8) & 0xff
        MOVX    @DPTR,A
//  154   ParkWay_epDesc.simpleDesc
//  155             = (SimpleDescriptionFormat_t *)&ParkWay_SimpleDesc;
        INC     DPTR
        MOV     A,#ParkWay_SimpleDesc & 0xff
        MOVX    @DPTR,A
        INC     DPTR
        MOV     A,#(ParkWay_SimpleDesc >> 8) & 0xff
        MOVX    @DPTR,A
//  156   ParkWay_epDesc.latencyReq = noLatencyReqs;
        INC     DPTR
        CLR     A
        MOVX    @DPTR,A
//  157 
//  158   // Register the endpoint description with the AF
//  159   afRegister( &ParkWay_epDesc );
        ; Setup parameters for call to function afRegister
        MOV     R2,#ParkWay_epDesc & 0xff
        MOV     R3,#(ParkWay_epDesc >> 8) & 0xff
        LCALL   ??afRegister?relay   ; Banked call to: afRegister
//  160 
//  161   // Register for all key events - This app will handle all key events
//  162   RegisterForKeys( ParkWay_TaskID );
        ; Setup parameters for call to function RegisterForKeys
        MOV     DPTR,#ParkWay_TaskID
        MOVX    A,@DPTR
        MOV     R1,A
        LCALL   ??RegisterForKeys?relay; Banked call to: RegisterForKeys
//  163 
//  164   // Update the display
//  165 #if defined ( LCD_SUPPORTED )
//  166   HalLcdWriteString( "ParkWay-Peer", HAL_LCD_LINE_1 );
        ; Setup parameters for call to function HalLcdWriteString
        MOV     R1,#0x1
        MOV     R2,#`?<Constant "ParkWay-Peer">` & 0xff
        MOV     R3,#(`?<Constant "ParkWay-Peer">` >> 8) & 0xff
        LCALL   ??HalLcdWriteString?relay; Banked call to: HalLcdWriteString
//  167 #endif
//  168 
//  169   ZDO_RegisterForZDOMsg( ParkWay_TaskID, End_Device_Bind_rsp );
        ; Setup parameters for call to function ZDO_RegisterForZDOMsg
        MOV     R2,#0x20
        MOV     R3,#-0x80
        MOV     DPTR,#ParkWay_TaskID
        MOVX    A,@DPTR
        MOV     R1,A
        LCALL   ??ZDO_RegisterForZDOMsg?relay; Banked call to: ZDO_RegisterForZDOMsg
//  170   ZDO_RegisterForZDOMsg( ParkWay_TaskID, Match_Desc_rsp );
        ; Setup parameters for call to function ZDO_RegisterForZDOMsg
        MOV     R2,#0x6
        MOV     R3,#-0x80
        MOV     DPTR,#ParkWay_TaskID
        MOVX    A,@DPTR
        MOV     R1,A
        LCALL   ??ZDO_RegisterForZDOMsg?relay; Banked call to: ZDO_RegisterForZDOMsg
//  171 
//  172   osal_start_timerEx( ParkWay_TaskID,
//  173                         POLLING_OF_DEV_EVT,
//  174                         2000);
        ; Setup parameters for call to function osal_start_timerEx
        MOV     R4,#-0x30
        MOV     R5,#0x7
        MOV     R2,#0x2
        MOV     R3,#0x0
        MOV     DPTR,#ParkWay_TaskID
        MOVX    A,@DPTR
        MOV     R1,A
        LCALL   ??osal_start_timerEx?relay; Banked call to: osal_start_timerEx
          CFI EndBlock cfiBlock0
//  175 }
        REQUIRE ?Subroutine0
        ; // Fall through to label ?Subroutine0

        RSEG BANKED_CODE:CODE:NOROOT(0)
?Subroutine0:
          CFI Block cfiBlock1 Using cfiCommon0
          CFI NoFunction
          CFI CFA_SP SP+0
          CFI CFA_XSP16 add(XSP16, 9)
          CFI VB load(1, XDATA, add(CFA_XSP16, literal(-8)))
          CFI DPL0 load(1, XDATA, add(CFA_XSP16, literal(-2)))
          CFI DPH0 load(1, XDATA, add(CFA_XSP16, literal(-1)))
          CFI R6 load(1, XDATA, add(CFA_XSP16, literal(-9)))
          CFI R7 load(1, XDATA, add(CFA_XSP16, literal(-6)))
          CFI V0 load(1, XDATA, add(CFA_XSP16, literal(-7)))
          CFI ?BRET_EXT load(1, XDATA, add(CFA_XSP16, literal(-3)))
          CFI ?RET_HIGH load(1, XDATA, add(CFA_XSP16, literal(-4)))
          CFI ?RET_LOW load(1, XDATA, add(CFA_XSP16, literal(-5)))
        MOV     R7,#0x1
        LJMP    ?BANKED_LEAVE_XDATA
          CFI EndBlock cfiBlock1
//  176 

        RSEG BANKED_CODE:CODE:NOROOT(0)
//  177 uint16 ParkWay_ProcessEvent( uint8 task_id, uint16 events )
ParkWay_ProcessEvent:
          CFI Block cfiBlock2 Using cfiCommon0
          CFI Function ParkWay_ProcessEvent
        CODE
//  178 {
        FUNCALL ParkWay_ProcessEvent, osal_msg_receive
        LOCFRAME ISTACK, 0, STACK
        LOCFRAME PSTACK, 0, STACK
        LOCFRAME XSTACK, 29, STACK
        LOCFRAME IOVERLAY, 0, STATIC
        LOCFRAME DOVERLAY, 0, STATIC
        ARGFRAME ISTACK, 0, STACK
        ARGFRAME PSTACK, 0, STACK
        ARGFRAME XSTACK, 29, STACK
        ARGFRAME IOVERLAY, 0, STATIC
        ARGFRAME DOVERLAY, 0, STATIC
        FUNCALL ParkWay_ProcessEvent, osal_start_timerEx
        LOCFRAME ISTACK, 0, STACK
        LOCFRAME PSTACK, 0, STACK
        LOCFRAME XSTACK, 29, STACK
        LOCFRAME IOVERLAY, 0, STATIC
        LOCFRAME DOVERLAY, 0, STATIC
        ARGFRAME ISTACK, 0, STACK
        ARGFRAME PSTACK, 0, STACK
        ARGFRAME XSTACK, 29, STACK
        ARGFRAME IOVERLAY, 0, STATIC
        ARGFRAME DOVERLAY, 0, STATIC
        FUNCALL ParkWay_ProcessEvent, osal_msg_deallocate
        LOCFRAME ISTACK, 0, STACK
        LOCFRAME PSTACK, 0, STACK
        LOCFRAME XSTACK, 29, STACK
        LOCFRAME IOVERLAY, 0, STATIC
        LOCFRAME DOVERLAY, 0, STATIC
        ARGFRAME ISTACK, 0, STACK
        ARGFRAME PSTACK, 0, STACK
        ARGFRAME XSTACK, 29, STACK
        ARGFRAME IOVERLAY, 0, STATIC
        ARGFRAME DOVERLAY, 0, STATIC
        FUNCALL ParkWay_ProcessEvent, osal_msg_receive
        LOCFRAME ISTACK, 0, STACK
        LOCFRAME PSTACK, 0, STACK
        LOCFRAME XSTACK, 29, STACK
        LOCFRAME IOVERLAY, 0, STATIC
        LOCFRAME DOVERLAY, 0, STATIC
        ARGFRAME ISTACK, 0, STACK
        ARGFRAME PSTACK, 0, STACK
        ARGFRAME XSTACK, 29, STACK
        ARGFRAME IOVERLAY, 0, STATIC
        ARGFRAME DOVERLAY, 0, STATIC
        FUNCALL ParkWay_ProcessEvent, ZDO_ParseEPListRsp
        LOCFRAME ISTACK, 0, STACK
        LOCFRAME PSTACK, 0, STACK
        LOCFRAME XSTACK, 29, STACK
        LOCFRAME IOVERLAY, 0, STATIC
        LOCFRAME DOVERLAY, 0, STATIC
        ARGFRAME ISTACK, 0, STACK
        ARGFRAME PSTACK, 0, STACK
        ARGFRAME XSTACK, 29, STACK
        ARGFRAME IOVERLAY, 0, STATIC
        ARGFRAME DOVERLAY, 0, STATIC
        FUNCALL ParkWay_ProcessEvent, osal_stop_timerEx
        LOCFRAME ISTACK, 0, STACK
        LOCFRAME PSTACK, 0, STACK
        LOCFRAME XSTACK, 29, STACK
        LOCFRAME IOVERLAY, 0, STATIC
        LOCFRAME DOVERLAY, 0, STATIC
        ARGFRAME ISTACK, 0, STACK
        ARGFRAME PSTACK, 0, STACK
        ARGFRAME XSTACK, 29, STACK
        ARGFRAME IOVERLAY, 0, STATIC
        ARGFRAME DOVERLAY, 0, STATIC
        FUNCALL ParkWay_ProcessEvent, osal_mem_free
        LOCFRAME ISTACK, 0, STACK
        LOCFRAME PSTACK, 0, STACK
        LOCFRAME XSTACK, 29, STACK
        LOCFRAME IOVERLAY, 0, STATIC
        LOCFRAME DOVERLAY, 0, STATIC
        ARGFRAME ISTACK, 0, STACK
        ARGFRAME PSTACK, 0, STACK
        ARGFRAME XSTACK, 29, STACK
        ARGFRAME IOVERLAY, 0, STATIC
        ARGFRAME DOVERLAY, 0, STATIC
        FUNCALL ParkWay_ProcessEvent, osal_start_timerEx
        LOCFRAME ISTACK, 0, STACK
        LOCFRAME PSTACK, 0, STACK
        LOCFRAME XSTACK, 29, STACK
        LOCFRAME IOVERLAY, 0, STATIC
        LOCFRAME DOVERLAY, 0, STATIC
        ARGFRAME ISTACK, 0, STACK
        ARGFRAME PSTACK, 0, STACK
        ARGFRAME XSTACK, 29, STACK
        ARGFRAME IOVERLAY, 0, STATIC
        ARGFRAME DOVERLAY, 0, STATIC
        FUNCALL ParkWay_ProcessEvent, osal_strlen
        LOCFRAME ISTACK, 0, STACK
        LOCFRAME PSTACK, 0, STACK
        LOCFRAME XSTACK, 34, STACK
        LOCFRAME IOVERLAY, 0, STATIC
        LOCFRAME DOVERLAY, 0, STATIC
        ARGFRAME ISTACK, 0, STACK
        ARGFRAME PSTACK, 0, STACK
        ARGFRAME XSTACK, 34, STACK
        ARGFRAME IOVERLAY, 0, STATIC
        ARGFRAME DOVERLAY, 0, STATIC
        FUNCALL ParkWay_ProcessEvent, AF_DataRequest
        LOCFRAME ISTACK, 0, STACK
        LOCFRAME PSTACK, 0, STACK
        LOCFRAME XSTACK, 38, STACK
        LOCFRAME IOVERLAY, 0, STATIC
        LOCFRAME DOVERLAY, 0, STATIC
        ARGFRAME ISTACK, 0, STACK
        ARGFRAME PSTACK, 0, STACK
        ARGFRAME XSTACK, 38, STACK
        ARGFRAME IOVERLAY, 0, STATIC
        ARGFRAME DOVERLAY, 0, STATIC
        FUNCALL ParkWay_ProcessEvent, osal_stop_timerEx
        LOCFRAME ISTACK, 0, STACK
        LOCFRAME PSTACK, 0, STACK
        LOCFRAME XSTACK, 29, STACK
        LOCFRAME IOVERLAY, 0, STATIC
        LOCFRAME DOVERLAY, 0, STATIC
        ARGFRAME ISTACK, 0, STACK
        ARGFRAME PSTACK, 0, STACK
        ARGFRAME XSTACK, 29, STACK
        ARGFRAME IOVERLAY, 0, STATIC
        ARGFRAME DOVERLAY, 0, STATIC
        FUNCALL ParkWay_ProcessEvent, osal_start_timerEx
        LOCFRAME ISTACK, 0, STACK
        LOCFRAME PSTACK, 0, STACK
        LOCFRAME XSTACK, 29, STACK
        LOCFRAME IOVERLAY, 0, STATIC
        LOCFRAME DOVERLAY, 0, STATIC
        ARGFRAME ISTACK, 0, STACK
        ARGFRAME PSTACK, 0, STACK
        ARGFRAME XSTACK, 29, STACK
        ARGFRAME IOVERLAY, 0, STATIC
        ARGFRAME DOVERLAY, 0, STATIC
        FUNCALL ParkWay_ProcessEvent, osal_start_timerEx
        LOCFRAME ISTACK, 0, STACK
        LOCFRAME PSTACK, 0, STACK
        LOCFRAME XSTACK, 29, STACK
        LOCFRAME IOVERLAY, 0, STATIC
        LOCFRAME DOVERLAY, 0, STATIC
        ARGFRAME ISTACK, 0, STACK
        ARGFRAME PSTACK, 0, STACK
        ARGFRAME XSTACK, 29, STACK
        ARGFRAME IOVERLAY, 0, STATIC
        ARGFRAME DOVERLAY, 0, STATIC
        FUNCALL ParkWay_ProcessEvent, ZDP_MatchDescReq
        LOCFRAME ISTACK, 0, STACK
        LOCFRAME PSTACK, 0, STACK
        LOCFRAME XSTACK, 37, STACK
        LOCFRAME IOVERLAY, 0, STATIC
        LOCFRAME DOVERLAY, 0, STATIC
        ARGFRAME ISTACK, 0, STACK
        ARGFRAME PSTACK, 0, STACK
        ARGFRAME XSTACK, 37, STACK
        ARGFRAME IOVERLAY, 0, STATIC
        ARGFRAME DOVERLAY, 0, STATIC
        FUNCALL ParkWay_ProcessEvent, osal_start_timerEx
        LOCFRAME ISTACK, 0, STACK
        LOCFRAME PSTACK, 0, STACK
        LOCFRAME XSTACK, 29, STACK
        LOCFRAME IOVERLAY, 0, STATIC
        LOCFRAME DOVERLAY, 0, STATIC
        ARGFRAME ISTACK, 0, STACK
        ARGFRAME PSTACK, 0, STACK
        ARGFRAME XSTACK, 29, STACK
        ARGFRAME IOVERLAY, 0, STATIC
        ARGFRAME DOVERLAY, 0, STATIC
        FUNCALL ParkWay_ProcessEvent, HalLedSet
        LOCFRAME ISTACK, 0, STACK
        LOCFRAME PSTACK, 0, STACK
        LOCFRAME XSTACK, 29, STACK
        LOCFRAME IOVERLAY, 0, STATIC
        LOCFRAME DOVERLAY, 0, STATIC
        ARGFRAME ISTACK, 0, STACK
        ARGFRAME PSTACK, 0, STACK
        ARGFRAME XSTACK, 29, STACK
        ARGFRAME IOVERLAY, 0, STATIC
        ARGFRAME DOVERLAY, 0, STATIC
        REQUIRE ?V0
        REQUIRE ?V1
        REQUIRE ?V2
        REQUIRE ?V3
        REQUIRE ?V4
        REQUIRE ?V5
        MOV     A,#-0xe
        LCALL   ?BANKED_ENTER_XDATA
          CFI DPH0 load(1, XDATA, add(CFA_XSP16, literal(-1)))
          CFI DPL0 load(1, XDATA, add(CFA_XSP16, literal(-2)))
          CFI ?BRET_EXT load(1, XDATA, add(CFA_XSP16, literal(-3)))
          CFI ?RET_HIGH load(1, XDATA, add(CFA_XSP16, literal(-4)))
          CFI ?RET_LOW load(1, XDATA, add(CFA_XSP16, literal(-5)))
          CFI R7 load(1, XDATA, add(CFA_XSP16, literal(-6)))
          CFI V5 load(1, XDATA, add(CFA_XSP16, literal(-7)))
          CFI V4 load(1, XDATA, add(CFA_XSP16, literal(-8)))
          CFI V3 load(1, XDATA, add(CFA_XSP16, literal(-9)))
          CFI V2 load(1, XDATA, add(CFA_XSP16, literal(-10)))
          CFI V1 load(1, XDATA, add(CFA_XSP16, literal(-11)))
          CFI V0 load(1, XDATA, add(CFA_XSP16, literal(-12)))
          CFI VB load(1, XDATA, add(CFA_XSP16, literal(-13)))
          CFI R6 load(1, XDATA, add(CFA_XSP16, literal(-14)))
          CFI CFA_SP SP+0
          CFI CFA_XSP16 add(XSP16, 14)
        ; Saved register size: 14
        ; Auto size: 15
        MOV     A,#-0xf
        LCALL   ?ALLOC_XSTACK8
          CFI CFA_XSP16 add(XSP16, 29)
        MOV     A,R2
        MOV     R6,A
        MOV     A,R3
        MOV     R7,A
//  179   afIncomingMSGPacket_t *MSGpkt;
//  180   afDataConfirm_t *afDataConfirm;
//  181   zAddrType_t dstAddr;
//  182 
//  183   // Data Confirmation message fields
//  184   byte sentEP;
//  185   ZStatus_t sentStatus;
//  186   byte sentTransID;       // This should match the value sent
//  187   (void)task_id;  // Intentionally unreferenced parameter
//  188 
//  189   if ( events & SYS_EVENT_MSG )
        ANL     A,#0x80
        JNZ     $+5
        LJMP    ??ParkWay_ProcessEvent_0 & 0xFFFF
//  190   {
//  191     MSGpkt = (afIncomingMSGPacket_t *)osal_msg_receive( ParkWay_TaskID );
        ; Setup parameters for call to function osal_msg_receive
        SJMP    ??ParkWay_ProcessEvent_1
//  192     while ( MSGpkt )
//  193     {
//  194       switch ( MSGpkt->hdr.event )
//  195       {
//  196         case ZDO_CB_MSG:
//  197           ParkWay_ProcessZDOMsgs( (zdoIncomingMsg_t *)MSGpkt );
//  198           break;
//  199 
//  200         case KEY_CHANGE:
//  201           ParkWay_HandleKeys( ((keyChange_t *)MSGpkt)->state, ((keyChange_t *)MSGpkt)->keys );
//  202           osal_start_timerEx( ParkWay_TaskID,
//  203                               POLLING_OF_DEV_EVT,
//  204                               2000);
//  205           break;
//  206 
//  207         case AF_DATA_CONFIRM_CMD:
//  208           // This message is received as a confirmation of a data packet sent.
//  209           // The status is of ZStatus_t type [defined in ZComDef.h]
//  210           // The message fields are defined in AF.h
//  211           afDataConfirm = (afDataConfirm_t *)MSGpkt;
//  212           sentEP = afDataConfirm->endpoint;
//  213           sentStatus = afDataConfirm->hdr.status;
//  214           sentTransID = afDataConfirm->transID;
//  215           (void)sentEP;
//  216           (void)sentTransID;
//  217 
//  218           // Action taken when confirmation is received.
//  219           if ( sentStatus != ZSuccess )
//  220           {
//  221             // The data wasn't delivered -- Do something
//  222           }
//  223           break;
//  224 
//  225         case AF_INCOMING_MSG_CMD:
//  226           ParkWay_MessageMSGCB( MSGpkt );
//  227           break;
//  228 
//  229         case ZDO_STATE_CHANGE:
//  230           ParkWay_NwkState = (devStates_t)(MSGpkt->hdr.status);
??ParkWay_ProcessEvent_2:
        INC     DPTR
        MOVX    A,@DPTR
        MOV     DPTR,#ParkWay_NwkState
        MOVX    @DPTR,A
//  231           if ( (ParkWay_NwkState == DEV_ZB_COORD)
//  232               || (ParkWay_NwkState == DEV_ROUTER)
//  233               || (ParkWay_NwkState == DEV_END_DEVICE) )
        XRL     A,#0x9
        JZ      ??ParkWay_ProcessEvent_3
        MOVX    A,@DPTR
        XRL     A,#0x7
        JZ      ??ParkWay_ProcessEvent_3
        MOVX    A,@DPTR
        XRL     A,#0x6
        JNZ     ??ParkWay_ProcessEvent_4
//  234           {
//  235             // Start sending "the" message in a regular interval.
//  236             osal_start_timerEx( ParkWay_TaskID,
//  237                                 ParkWay_SEND_MSG_EVT,
//  238                                 ParkWay_SEND_MSG_TIMEOUT );
??ParkWay_ProcessEvent_3:
        ; Setup parameters for call to function osal_start_timerEx
        MOV     R4,#-0x24
        MOV     R5,#0x5
        MOV     R2,#0x1
??ParkWay_ProcessEvent_5:
        MOV     R3,#0x0
        MOV     DPTR,#ParkWay_TaskID
        MOVX    A,@DPTR
        MOV     R1,A
        LCALL   ??osal_start_timerEx?relay; Banked call to: osal_start_timerEx
//  239           }
//  240           break;
//  241 
//  242         default:
//  243           break;
//  244       }
//  245 
//  246       // Release the memory
//  247       osal_msg_deallocate( (uint8 *)MSGpkt );
??ParkWay_ProcessEvent_4:
        ; Setup parameters for call to function osal_msg_deallocate
        MOV     R2,?V2
        MOV     R3,?V3
        LCALL   ??osal_msg_deallocate?relay; Banked call to: osal_msg_deallocate
//  248 
//  249       // Next
//  250       MSGpkt = (afIncomingMSGPacket_t *)osal_msg_receive( ParkWay_TaskID );
        ; Setup parameters for call to function osal_msg_receive
??ParkWay_ProcessEvent_1:
        MOV     DPTR,#ParkWay_TaskID
        MOVX    A,@DPTR
        MOV     R1,A
        LCALL   ??osal_msg_receive?relay; Banked call to: osal_msg_receive
        MOV     ?V2,R2
        MOV     ?V3,R3
        MOV     A,?V2
        ORL     A,?V3
        JNZ     $+5
        LJMP    ??ParkWay_ProcessEvent_6 & 0xFFFF
        MOV     DPL,?V2
        MOV     DPH,?V3
        MOVX    A,@DPTR
        ADD     A,#0x40
        JZ      ??ParkWay_ProcessEvent_7
        ADD     A,#-0x11
        JZ      ??ParkWay_ProcessEvent_2
        ADD     A,#-0x2
        JNZ     ??ParkWay_ProcessEvent_4
        MOV     A,?V2
        ADD     A,#0xc
        MOV     DPL,A
        CLR     A
        ADDC    A,?V3
        MOV     DPH,A
        MOVX    A,@DPTR
        XRL     A,#0x6
        JNZ     ??ParkWay_ProcessEvent_8
        INC     DPTR
        MOVX    A,@DPTR
        XRL     A,#0x80
??ParkWay_ProcessEvent_8:
        JNZ     ??ParkWay_ProcessEvent_4
        ; Setup parameters for call to function ZDO_ParseEPListRsp
        MOV     R2,?V2
        MOV     R3,?V3
        LCALL   ??ZDO_ParseEPListRsp?relay; Banked call to: ZDO_ParseEPListRsp
        MOV     ?V0,R2
        MOV     ?V1,R3
        MOV     A,R2
        ORL     A,?V1
        JZ      ??ParkWay_ProcessEvent_4
        MOV     DPL,R2
        MOV     DPH,R3
        MOVX    A,@DPTR
        JNZ     ??ParkWay_ProcessEvent_9
        INC     DPTR
        INC     DPTR
        INC     DPTR
        MOVX    A,@DPTR
        JZ      ??ParkWay_ProcessEvent_9
        MOV     DPTR,#ParkWay_DstAddr + 8
        MOV     A,#0x2
        MOVX    @DPTR,A
        MOV     DPL,R2
        MOV     DPH,R3
        INC     DPTR
        MOVX    A,@DPTR
        MOV     R0,A
        INC     DPTR
        MOVX    A,@DPTR
        MOV     R1,A
        MOV     DPTR,#ParkWay_DstAddr
        MOV     A,R0
        MOVX    @DPTR,A
        INC     DPTR
        MOV     A,R1
        MOVX    @DPTR,A
        MOV     DPL,R2
        MOV     DPH,R3
        INC     DPTR
        INC     DPTR
        INC     DPTR
        INC     DPTR
        MOVX    A,@DPTR
        MOV     DPTR,#ParkWay_DstAddr + 9
        MOVX    @DPTR,A
        ; Setup parameters for call to function osal_stop_timerEx
        MOV     R2,#0x2
        MOV     R3,#0x0
        MOV     DPTR,#ParkWay_TaskID
        MOVX    A,@DPTR
        MOV     R1,A
        LCALL   ??osal_stop_timerEx?relay; Banked call to: osal_stop_timerEx
??ParkWay_ProcessEvent_9:
        ; Setup parameters for call to function osal_mem_free
        MOV     R2,?V0
        MOV     R3,?V1
        LCALL   ??osal_mem_free?relay; Banked call to: osal_mem_free
        LJMP    ??ParkWay_ProcessEvent_4 & 0xFFFF
??ParkWay_ProcessEvent_7:
        ; Setup parameters for call to function osal_start_timerEx
        MOV     R4,#-0x30
        MOV     R5,#0x7
        MOV     R2,#0x2
        LJMP    ??ParkWay_ProcessEvent_5 & 0xFFFF
//  251     }
//  252 
//  253     // return unprocessed events
//  254     return (events ^ SYS_EVENT_MSG);
??ParkWay_ProcessEvent_6:
        MOV     A,R6
        MOV     R2,A
        MOV     A,R7
        XRL     A,#0x80
        LJMP    ??ParkWay_ProcessEvent_10 & 0xFFFF
//  255   }
//  256 
//  257   // Send a message out - This event is generated by a timer
//  258   //  (setup in ParkWay_Init()).
//  259   if ( events & ParkWay_SEND_MSG_EVT )
??ParkWay_ProcessEvent_0:
        MOV     A,R6
        MOV     C,0xE0 /* A   */.0
        JC      $+5
        LJMP    ??ParkWay_ProcessEvent_11 & 0xFFFF
//  260   {
//  261     // Send "the" message
//  262     ParkWay_SendTheMessage();
        MOV     DPL,?XSP + 0
        MOV     DPH,?XSP + 1
        MOV     A,#0x45
        MOVX    @DPTR,A
        MOV     A,#0x1
        LCALL   ?XSTACK_DISP0_8
        MOV     A,#0x44
        MOVX    @DPTR,A
        MOV     A,#0x2
        LCALL   ?XSTACK_DISP0_8
        MOV     A,#0x30
        MOVX    @DPTR,A
        MOV     A,#0x3
        LCALL   ?XSTACK_DISP0_8
        MOV     A,#0x32
        MOVX    @DPTR,A
        MOV     A,#0x4
        LCALL   ?XSTACK_DISP0_8
        MOV     A,#0x2d
        MOVX    @DPTR,A
        MOV     A,#0x5
        LCALL   ?XSTACK_DISP0_8
        MOV     A,#0x30
        MOVX    @DPTR,A
        ; Setup parameters for call to function AF_DataRequest
        MOV     ?V0,#0x1e
        MOV     R0,#?V0
        LCALL   ?PUSH_XSTACK_I_ONE
          CFI CFA_XSP16 add(XSP16, 30)
        MOV     ?V0,#ParkWay_TransID & 0xff
        MOV     ?V1,#(ParkWay_TransID >> 8) & 0xff
        MOV     R0,#?V0
        LCALL   ?PUSH_XSTACK_I_TWO
          CFI CFA_XSP16 add(XSP16, 32)
        MOV     A,#0x3
        LCALL   ?XSTACK_DISP100_8
        MOV     ?V0,R0
        MOV     ?V1,R1
        MOV     R0,#?V0
        LCALL   ?PUSH_XSTACK_I_TWO
          CFI CFA_XSP16 add(XSP16, 34)
        ; Setup parameters for call to function osal_strlen
        MOV     A,#0x5
        LCALL   ?XSTACK_DISP101_8
        LCALL   ??osal_strlen?relay  ; Banked call to: osal_strlen
        MOV     A,R2
        ADD     A,#0x1
        MOV     ?V0,A
        CLR     A
        ADDC    A,#0x0
        MOV     ?V1,A
        MOV     R0,#?V0
        LCALL   ?PUSH_XSTACK_I_TWO
          CFI CFA_XSP16 add(XSP16, 36)
        MOV     ?V0,#0x1
        MOV     ?V1,#0x0
        MOV     R0,#?V0
        LCALL   ?PUSH_XSTACK_I_TWO
          CFI CFA_XSP16 add(XSP16, 38)
        MOV     R1,#0x20
        MOV     R4,#ParkWay_epDesc & 0xff
        MOV     R5,#(ParkWay_epDesc >> 8) & 0xff
        MOV     R2,#ParkWay_DstAddr & 0xff
        MOV     R3,#(ParkWay_DstAddr >> 8) & 0xff
        LCALL   ??AF_DataRequest?relay; Banked call to: AF_DataRequest
        MOV     A,#0x9
        LCALL   ?DEALLOC_XSTACK8
          CFI CFA_XSP16 add(XSP16, 29)
        MOV     A,R1
        JZ      ??ParkWay_ProcessEvent_12
        ; Setup parameters for call to function osal_stop_timerEx
        MOV     R2,#0x1
        MOV     R3,#0x0
        MOV     DPTR,#ParkWay_TaskID
        MOVX    A,@DPTR
        MOV     R1,A
        LCALL   ??osal_stop_timerEx?relay; Banked call to: osal_stop_timerEx
        ; Setup parameters for call to function osal_start_timerEx
        MOV     R4,#-0x38
        MOV     R5,#0x0
        MOV     R2,#0x2
        MOV     R3,#0x0
        MOV     DPTR,#ParkWay_TaskID
        MOVX    A,@DPTR
        MOV     R1,A
        LCALL   ??osal_start_timerEx?relay; Banked call to: osal_start_timerEx
//  263 
//  264     // Setup to send message again
//  265     osal_start_timerEx( ParkWay_TaskID,
//  266                         ParkWay_SEND_MSG_EVT,
//  267                         ParkWay_SEND_MSG_TIMEOUT );
??ParkWay_ProcessEvent_12:
        ; Setup parameters for call to function osal_start_timerEx
        MOV     R4,#-0x24
        MOV     R5,#0x5
        MOV     R2,#0x1
        MOV     R3,#0x0
        MOV     DPTR,#ParkWay_TaskID
        MOVX    A,@DPTR
        MOV     R1,A
        LCALL   ??osal_start_timerEx?relay; Banked call to: osal_start_timerEx
//  268 
//  269     // return unprocessed events
//  270     return (events ^ ParkWay_SEND_MSG_EVT);
        MOV     A,R6
        XRL     A,#0x1
        MOV     R2,A
        MOV     A,R7
??ParkWay_ProcessEvent_10:
        MOV     R3,A
        SJMP    ??ParkWay_ProcessEvent_13
//  271   }
//  272   
//  273   if(events & POLLING_OF_DEV_EVT)
??ParkWay_ProcessEvent_11:
        ANL     A,#0x2
        JZ      ??ParkWay_ProcessEvent_14
//  274   {
//  275     //HalLedSet ( HAL_LED_1, HAL_LED_MODE_ON);
//  276     // Initiate a Match Description Request (Service Discovery)
//  277     dstAddr.addrMode = AddrBroadcast;
        MOV     A,#0xe
        LCALL   ?XSTACK_DISP0_8
        MOV     A,#0xf
        MOVX    @DPTR,A
//  278     dstAddr.addr.shortAddr = NWK_BROADCAST_SHORTADDR;
        MOV     A,#0x6
        LCALL   ?XSTACK_DISP0_8
        MOV     A,#-0x1
        MOVX    @DPTR,A
        INC     DPTR
        MOVX    @DPTR,A
//  279     ZDP_MatchDescReq( &dstAddr, NWK_BROADCAST_SHORTADDR,
//  280                       ParkWay_PROFID,
//  281                       ParkWay_MAX_CLUSTERS, (cId_t *)ParkWay_ClusterList,
//  282                       ParkWay_MAX_CLUSTERS, (cId_t *)ParkWay_ClusterList,
//  283                       FALSE );
        MOV     ?V0,#ParkWay_ClusterList & 0xff
        MOV     ?V1,#(ParkWay_ClusterList >> 8) & 0xff
        ; Setup parameters for call to function ZDP_MatchDescReq
        MOV     ?V2,#0x0
        MOV     R0,#?V2
        LCALL   ?PUSH_XSTACK_I_ONE
          CFI CFA_XSP16 add(XSP16, 30)
        MOV     R0,#?V0
        LCALL   ?PUSH_XSTACK_I_TWO
          CFI CFA_XSP16 add(XSP16, 32)
        MOV     ?V2,#0x1
        MOV     R0,#?V2
        LCALL   ?PUSH_XSTACK_I_ONE
          CFI CFA_XSP16 add(XSP16, 33)
        MOV     R0,#?V0
        LCALL   ?PUSH_XSTACK_I_TWO
          CFI CFA_XSP16 add(XSP16, 35)
        MOV     ?V0,#0x4
        MOV     ?V1,#0xf
        MOV     R0,#?V0
        LCALL   ?PUSH_XSTACK_I_TWO
          CFI CFA_XSP16 add(XSP16, 37)
        MOV     R1,#0x1
        MOV     R4,#-0x1
        MOV     R5,#-0x1
        MOV     A,#0xe
        LCALL   ?XSTACK_DISP101_8
        LCALL   ??ZDP_MatchDescReq?relay; Banked call to: ZDP_MatchDescReq
        MOV     A,#0x8
        LCALL   ?DEALLOC_XSTACK8
          CFI CFA_XSP16 add(XSP16, 29)
//  284     osal_start_timerEx( ParkWay_TaskID,
//  285                         POLLING_OF_DEV_EVT,
//  286                         2000 );
        ; Setup parameters for call to function osal_start_timerEx
        MOV     R4,#-0x30
        MOV     R5,#0x7
        MOV     R2,#0x2
        MOV     R3,#0x0
        MOV     DPTR,#ParkWay_TaskID
        MOVX    A,@DPTR
        MOV     R1,A
        LCALL   ??osal_start_timerEx?relay; Banked call to: osal_start_timerEx
//  287   } 
//  288 
//  289 
//  290   HalLedSet( HAL_LED_ALL, HAL_LED_MODE_OFF );
??ParkWay_ProcessEvent_14:
        ; Setup parameters for call to function HalLedSet
        MOV     R2,#0x0
        MOV     R1,#0xf
        LCALL   ??HalLedSet?relay    ; Banked call to: HalLedSet
//  291   
//  292   // Discard unknown events
//  293   return 0;
        MOV     R2,#0x0
        MOV     R3,#0x0
??ParkWay_ProcessEvent_13:
        MOV     A,#0xf
        LCALL   ?DEALLOC_XSTACK8
          CFI CFA_XSP16 add(XSP16, 14)
        MOV     R7,#0x6
        LJMP    ?BANKED_LEAVE_XDATA
          CFI EndBlock cfiBlock2
//  294 }
//  295 
//  296 /*********************************************************************
//  297  * Event Generation Functions
//  298  */
//  299 
//  300 /*********************************************************************
//  301  */
//  302 static void ParkWay_ProcessZDOMsgs( zdoIncomingMsg_t *inMsg )
//  303 {
//  304   switch ( inMsg->clusterID )
//  305   {
//  306     case End_Device_Bind_rsp:
//  307       if ( ZDO_ParseBindRsp( inMsg ) == ZSuccess )
//  308       {
//  309         // Light LED
//  310         //HalLedSet ( HAL_LED_2, HAL_LED_MODE_FLASH );
//  311       }
//  312       break;
//  313 
//  314     case Match_Desc_rsp:
//  315       {
//  316         ZDO_ActiveEndpointRsp_t *pRsp = ZDO_ParseEPListRsp( inMsg );
//  317         if ( pRsp )
//  318         {
//  319           if ( pRsp->status == ZSuccess && pRsp->cnt )
//  320           {
//  321             ParkWay_DstAddr.addrMode = (afAddrMode_t)Addr16Bit;
//  322             ParkWay_DstAddr.addr.shortAddr = pRsp->nwkAddr;
//  323             // Take the first endpoint, Can be changed to search through endpoints
//  324             ParkWay_DstAddr.endPoint = pRsp->epList[0];
//  325 
//  326             // Light LED
//  327             //HalLedSet( HAL_LED_2, HAL_LED_MODE_ON );
//  328 
//  329             //This stop the peer from send request do the coordinator
//  330             //HalLedSet ( HAL_LED_1, HAL_LED_MODE_OFF);
//  331             osal_stop_timerEx( ParkWay_TaskID,POLLING_OF_DEV_EVT);
//  332           }
//  333           osal_mem_free( pRsp );
//  334         }
//  335       }
//  336       break;
//  337   }
//  338 }
//  339 
//  340 /*********************************************************************
//  341  * LOCAL FUNCTIONS
//  342  */
//  343 
//  344 static void ParkWay_MessageMSGCB( afIncomingMSGPacket_t *pkt )
//  345 {
//  346 }
//  347 
//  348 static void ParkWay_SendTheMessage( void )
//  349 {
//  350   uint8 pData[6], pin_ultra=4;
//  351   // P0SEL &= (~BV(2));
//  352   // P0DIR &= (~BV(2));
//  353   // vaga = (pin_ultra & P0);
//  354   // if(vaga)
//  355   // {
//  356   //    vaga='1';
//  357   // }
//  358   // else
//  359   // {
//  360   //    vaga='0';
//  361   // }
//  362 
//  363   pData[0] = 'E';
//  364   pData[1] = 'D';
//  365   pData[2] = DEVICE_PW_1;
//  366   pData[3] = DEVICE_PW_2;
//  367   pData[4] = '-';
//  368   pData[5] = park;
//  369 
//  370   if ( AF_DataRequest( &ParkWay_DstAddr, &ParkWay_epDesc,
//  371                        ParkWay_CLUSTERID,
//  372                        (byte)osal_strlen( pData ) + 1,
//  373                        (byte *)&pData,
//  374                        &ParkWay_TransID,
//  375                        AF_DISCV_ROUTE, AF_DEFAULT_RADIUS ) == afStatus_SUCCESS )
//  376   {
//  377     // Successfully requested to be sent.
//  378   }
//  379   else
//  380   {
//  381      osal_stop_timerEx( ParkWay_TaskID,
//  382                         ParkWay_SEND_MSG_EVT);
//  383     osal_start_timerEx( ParkWay_TaskID,
//  384                         POLLING_OF_DEV_EVT,
//  385                         200);
//  386   }
//  387 }
//  388 

        RSEG BANKED_CODE:CODE:NOROOT(0)
//  389 static void UART_CallBack(uint8 port, uint8 event)
UART_CallBack:
          CFI Block cfiBlock3 Using cfiCommon0
          CFI Function UART_CallBack
        CODE
//  390 {
        FUNCALL UART_CallBack, HalUARTRead
        LOCFRAME ISTACK, 0, STACK
        LOCFRAME PSTACK, 0, STACK
        LOCFRAME XSTACK, 10, STACK
        LOCFRAME IOVERLAY, 0, STATIC
        LOCFRAME DOVERLAY, 0, STATIC
        ARGFRAME ISTACK, 0, STACK
        ARGFRAME PSTACK, 0, STACK
        ARGFRAME XSTACK, 10, STACK
        ARGFRAME IOVERLAY, 0, STATIC
        ARGFRAME DOVERLAY, 0, STATIC
        FUNCALL UART_CallBack, SendUART
        LOCFRAME ISTACK, 0, STACK
        LOCFRAME PSTACK, 0, STACK
        LOCFRAME XSTACK, 10, STACK
        LOCFRAME IOVERLAY, 0, STATIC
        LOCFRAME DOVERLAY, 0, STATIC
        ARGFRAME ISTACK, 0, STACK
        ARGFRAME PSTACK, 0, STACK
        ARGFRAME XSTACK, 10, STACK
        ARGFRAME IOVERLAY, 0, STATIC
        ARGFRAME DOVERLAY, 0, STATIC
        MOV     A,#-0x9
        LCALL   ?BANKED_ENTER_XDATA
          CFI DPH0 load(1, XDATA, add(CFA_XSP16, literal(-1)))
          CFI DPL0 load(1, XDATA, add(CFA_XSP16, literal(-2)))
          CFI ?BRET_EXT load(1, XDATA, add(CFA_XSP16, literal(-3)))
          CFI ?RET_HIGH load(1, XDATA, add(CFA_XSP16, literal(-4)))
          CFI ?RET_LOW load(1, XDATA, add(CFA_XSP16, literal(-5)))
          CFI R7 load(1, XDATA, add(CFA_XSP16, literal(-6)))
          CFI V0 load(1, XDATA, add(CFA_XSP16, literal(-7)))
          CFI VB load(1, XDATA, add(CFA_XSP16, literal(-8)))
          CFI R6 load(1, XDATA, add(CFA_XSP16, literal(-9)))
          CFI CFA_SP SP+0
          CFI CFA_XSP16 add(XSP16, 9)
        ; Saved register size: 9
        ; Auto size: 1
        MOV     A,#-0x1
        LCALL   ?ALLOC_XSTACK8
          CFI CFA_XSP16 add(XSP16, 10)
        MOV     A,R2
        MOV     R7,A
//  391   (void)port;
//  392   uint8 cmdbuff[1];
//  393   if (event & (HAL_UART_RX_FULL | HAL_UART_RX_ABOUT_FULL | HAL_UART_RX_TIMEOUT))
        MOV     A,#0x7
        ANL     A,R7
        JZ      ??UART_CallBack_0
//  394   {
//  395     HalUARTRead(port, cmdbuff, 1);
        ; Setup parameters for call to function HalUARTRead
        MOV     R4,#0x1
        MOV     R5,#0x0
        MOV     R2,?XSP + 0
        MOV     R3,?XSP + 1
        LCALL   ??HalUARTRead?relay  ; Banked call to: HalUARTRead
//  396     SendUART(cmdbuff,1);
        ; Setup parameters for call to function SendUART
        MOV     R1,#0x1
        MOV     R2,?XSP + 0
        MOV     R3,?XSP + 1
        LCALL   ??SendUART?relay     ; Banked call to: SendUART
//  397   }
//  398 }
??UART_CallBack_0:
        MOV     A,#0x1
        LCALL   ?DEALLOC_XSTACK8
          CFI CFA_XSP16 add(XSP16, 9)
        LJMP    ?Subroutine0 & 0xFFFF
          CFI EndBlock cfiBlock3
//  399 
//  400 //This function initializes the UART

        RSEG BANKED_CODE:CODE:NOROOT(0)
//  401 void uart_init()
uart_init:
          CFI Block cfiBlock4 Using cfiCommon0
          CFI Function uart_init
        CODE
//  402 {
        FUNCALL uart_init, HalUARTOpen
        LOCFRAME ISTACK, 2, STACK
        LOCFRAME PSTACK, 0, STACK
        LOCFRAME XSTACK, 29, STACK
        LOCFRAME IOVERLAY, 0, STATIC
        LOCFRAME DOVERLAY, 0, STATIC
        ARGFRAME ISTACK, 2, STACK
        ARGFRAME PSTACK, 0, STACK
        ARGFRAME XSTACK, 29, STACK
        ARGFRAME IOVERLAY, 0, STATIC
        ARGFRAME DOVERLAY, 0, STATIC
        PUSH    DPL
          CFI DPL0 Frame(CFA_SP, 4)
          CFI CFA_SP SP+-4
        PUSH    DPH
          CFI DPH0 Frame(CFA_SP, 5)
          CFI CFA_SP SP+-5
        ; Saved register size: 2
        ; Auto size: 29
        MOV     A,#-0x1d
        LCALL   ?ALLOC_XSTACK8
          CFI CFA_XSP16 add(XSP16, 29)
//  403   halUARTCfg_t uartConfig;
//  404   uartConfig.configured = TRUE; // 2x30 don't care - see uart driver.
        MOV     DPL,?XSP + 0
        MOV     DPH,?XSP + 1
        MOV     A,#0x1
        MOVX    @DPTR,A
//  405   uartConfig.baudRate = HAL_UART_BR_115200;
        LCALL   ?XSTACK_DISP0_8
        MOV     A,#0x4
        MOVX    @DPTR,A
//  406   uartConfig.flowControl = TRUE;
        MOV     A,#0x2
        LCALL   ?XSTACK_DISP0_8
        MOV     A,#0x1
        MOVX    @DPTR,A
//  407   uartConfig.flowControlThreshold = 48; // 2x30 don't care - see uart driver.
        MOV     A,#0x3
        LCALL   ?XSTACK_DISP0_8
        MOV     A,#0x30
        MOVX    @DPTR,A
        INC     DPTR
        CLR     A
        MOVX    @DPTR,A
//  408   uartConfig.rx.maxBufSize = 128; // 2x30 don't care - see uart driver.
        MOV     A,#0xa
        LCALL   ?XSTACK_DISP0_8
        MOV     A,#-0x80
        MOVX    @DPTR,A
        INC     DPTR
        CLR     A
        MOVX    @DPTR,A
//  409   uartConfig.tx.maxBufSize = 128; // 2x30 don't care - see uart driver.
        MOV     A,#0x12
        LCALL   ?XSTACK_DISP0_8
        MOV     A,#-0x80
        MOVX    @DPTR,A
        INC     DPTR
        CLR     A
        MOVX    @DPTR,A
//  410   uartConfig.idleTimeout = 6; // 2x30 don't care - see uart driver.
        MOV     A,#0x5
        LCALL   ?XSTACK_DISP0_8
        MOV     A,#0x6
        MOVX    @DPTR,A
//  411   uartConfig.intEnable = TRUE; // 2x30 don't care - see uart driver.
        MOV     A,#0x16
        LCALL   ?XSTACK_DISP0_8
        MOV     A,#0x1
        MOVX    @DPTR,A
//  412   uartConfig.callBackFunc = UART_CallBack;
        MOV     A,#0x1b
        LCALL   ?XSTACK_DISP0_8
        MOV     A,#??UART_CallBack?relay & 0xff
        MOVX    @DPTR,A
        INC     DPTR
        MOV     A,#(??UART_CallBack?relay >> 8) & 0xff
        MOVX    @DPTR,A
//  413   HalUARTOpen (HAL_UART_PORT_0, &uartConfig);
        ; Setup parameters for call to function HalUARTOpen
        MOV     R2,?XSP + 0
        MOV     R3,?XSP + 1
        MOV     R1,#0x0
        LCALL   ??HalUARTOpen?relay  ; Banked call to: HalUARTOpen
//  414 }
        MOV     A,#0x1d
        LCALL   ?DEALLOC_XSTACK8
          CFI CFA_XSP16 XSP16+0
        POP     DPH
          CFI DPH0 SameValue
          CFI CFA_SP SP+-4
        POP     DPL
          CFI DPL0 SameValue
          CFI CFA_SP SP+-3
        LJMP    ?BRET
          CFI EndBlock cfiBlock4
//  415 

        RSEG BANKED_CODE:CODE:NOROOT(0)
//  416 void SendUART(uint8 *data,uint8 len)
SendUART:
          CFI Block cfiBlock5 Using cfiCommon0
          CFI Function SendUART
        CODE
//  417 {
        FUNCALL SendUART, HalUARTWrite
        LOCFRAME ISTACK, 0, STACK
        LOCFRAME PSTACK, 0, STACK
        LOCFRAME XSTACK, 10, STACK
        LOCFRAME IOVERLAY, 0, STATIC
        LOCFRAME DOVERLAY, 0, STATIC
        ARGFRAME ISTACK, 0, STACK
        ARGFRAME PSTACK, 0, STACK
        ARGFRAME XSTACK, 10, STACK
        ARGFRAME IOVERLAY, 0, STATIC
        ARGFRAME DOVERLAY, 0, STATIC
        REQUIRE ?V0
        REQUIRE ?V1
        MOV     A,#-0xa
        LCALL   ?BANKED_ENTER_XDATA
          CFI DPH0 load(1, XDATA, add(CFA_XSP16, literal(-1)))
          CFI DPL0 load(1, XDATA, add(CFA_XSP16, literal(-2)))
          CFI ?BRET_EXT load(1, XDATA, add(CFA_XSP16, literal(-3)))
          CFI ?RET_HIGH load(1, XDATA, add(CFA_XSP16, literal(-4)))
          CFI ?RET_LOW load(1, XDATA, add(CFA_XSP16, literal(-5)))
          CFI R7 load(1, XDATA, add(CFA_XSP16, literal(-6)))
          CFI V1 load(1, XDATA, add(CFA_XSP16, literal(-7)))
          CFI V0 load(1, XDATA, add(CFA_XSP16, literal(-8)))
          CFI VB load(1, XDATA, add(CFA_XSP16, literal(-9)))
          CFI R6 load(1, XDATA, add(CFA_XSP16, literal(-10)))
          CFI CFA_SP SP+0
          CFI CFA_XSP16 add(XSP16, 10)
        ; Saved register size: 10
        ; Auto size: 0
        MOV     A,R1
//  418   HalUARTWrite(HAL_UART_PORT_0, data, len);
        ; Setup parameters for call to function HalUARTWrite
        MOV     R4,A
        MOV     R5,#0x0
        MOV     R1,#0x0
        LCALL   ??HalUARTWrite?relay ; Banked call to: HalUARTWrite
//  419 }
        MOV     R7,#0x2
        LJMP    ?BANKED_LEAVE_XDATA
          CFI EndBlock cfiBlock5

        RSEG BANK_RELAYS:CODE:REORDER:NOROOT(0)
??ParkWay_Init?relay:
        CODE
        LCALL   ?BDISPATCH
        DATA24
        DC24    ParkWay_Init

        RSEG BANK_RELAYS:CODE:REORDER:NOROOT(0)
??ParkWay_ProcessEvent?relay:
        CODE
        LCALL   ?BDISPATCH
        DATA24
        DC24    ParkWay_ProcessEvent

        RSEG BANK_RELAYS:CODE:REORDER:NOROOT(0)
??UART_CallBack?relay:
        CODE
        LCALL   ?BDISPATCH
        DATA24
        DC24    UART_CallBack

        RSEG BANK_RELAYS:CODE:REORDER:NOROOT(0)
??uart_init?relay:
        CODE
        LCALL   ?BDISPATCH
        DATA24
        DC24    uart_init

        RSEG BANK_RELAYS:CODE:REORDER:NOROOT(0)
??SendUART?relay:
        CODE
        LCALL   ?BDISPATCH
        DATA24
        DC24    SendUART

        RSEG XDATA_ROM_C:CONST:REORDER:NOROOT(0)
        DATA8
`?<Constant "ParkWay-Peer">`:
        DB "ParkWay-Peer"

        END
//  420 
//  421 static void ParkWay_HandleKeys( uint8 shift, uint8 keys )
//  422 {
//  423 }
//  424 
//  425 /*********************************************************************/
// 
// 856 bytes in segment BANKED_CODE
//  30 bytes in segment BANK_RELAYS
//  27 bytes in segment XDATA_ROM_C
//  21 bytes in segment XDATA_Z
// 
// 886 bytes of CODE  memory
//  27 bytes of CONST memory
//  21 bytes of XDATA memory
//
//Errors: none
//Warnings: 2
