###############################################################################
#                                                                             #
# IAR C/C++ Compiler V8.30.1.41636 for 8051             27/Jun/2014  01:38:22 #
# Copyright 2004-2013 IAR Systems AB.                                         #
#                                                                             #
#    Core               =  plain                                              #
#    Code model         =  banked                                             #
#    Data model         =  large                                              #
#    Calling convention =  xdata reentrant                                    #
#    Constant location  =  data_rom                                           #
#    Dptr setup         =  1,16                                               #
#                                                                             #
#    Source file        =  C:\Texas Instruments\ZStack-CC2530-2.5.1a\Componen #
#                          ts\stack\zdo\ZDProfile.c                           #
#    Command line       =  -f "C:\Texas Instruments\ZStack-CC2530-2.5.1a\Proj #
#                          ects\zstack\Samples\ParkWay\CC2530DB\..\..\..\Tool #
#                          s\CC2530DB\f8wEndev.cfg" (-DCPU32MHZ               #
#                          -DROOT=__near_func -DMAC_CFG_TX_DATA_MAX=3         #
#                          -DMAC_CFG_TX_MAX=6 -DMAC_CFG_RX_MAX=3) -f          #
#                          "C:\Texas Instruments\ZStack-CC2530-2.5.1a\Project #
#                          s\zstack\Samples\ParkWay\CC2530DB\..\..\..\Tools\C #
#                          C2530DB\f8wConfig.cfg" (-DZIGBEEPRO -DSECURE=0     #
#                          -DZG_SECURE_DYNAMIC=0 -DREFLECTOR                  #
#                          -DDEFAULT_CHANLIST=0x00000800                      #
#                          -DZDAPP_CONFIG_PAN_ID=0xFFFF                       #
#                          -DNWK_START_DELAY=100 -DEXTENDED_JOINING_RANDOM_MA #
#                          SK=0x007F -DBEACON_REQUEST_DELAY=100               #
#                          -DBEACON_REQ_DELAY_MASK=0x00FF                     #
#                          -DLINK_STATUS_JITTER_MASK=0x007F                   #
#                          -DROUTE_EXPIRY_TIME=30 -DAPSC_ACK_WAIT_DURATION_PO #
#                          LLED=3000 -DNWK_INDIRECT_MSG_TIMEOUT=7             #
#                          -DMAX_RREQ_ENTRIES=8 -DAPSC_MAX_FRAME_RETRIES=3    #
#                          -DNWK_MAX_DATA_RETRIES=2                           #
#                          -DMAX_POLL_FAILURE_RETRIES=2 -DMAX_BCAST=9         #
#                          -DAPS_MAX_GROUPS=16 -DMAX_RTG_ENTRIES=40           #
#                          -DNWK_MAX_BINDING_ENTRIES=4                        #
#                          -DMAX_BINDING_CLUSTER_IDS=4 "-DDEFAULT_KEY={0x01,  #
#                          0x03, 0x05, 0x07, 0x09, 0x0B, 0x0D, 0x0F, 0x00,    #
#                          0x02, 0x04, 0x06, 0x08, 0x0A, 0x0C, 0x0D}"         #
#                          -DMAC_MAX_FRAME_SIZE=116                           #
#                          -DZDNWKMGR_MIN_TRANSMISSIONS=20 "-DCONST=const     #
#                          __code" -DGENERIC=__generic                        #
#                          -DRFD_RCVC_ALWAYS_ON=FALSE -DPOLL_RATE=1000        #
#                          -DQUEUED_POLL_RATE=100 -DRESPONSE_POLL_RATE=100)   #
#                          -DREJOIN_POLL_RATE=440 "C:\Texas                   #
#                          Instruments\ZStack-CC2530-2.5.1a\Components\stack\ #
#                          zdo\ZDProfile.c" -D NWK_AUTO_POLL -D ZTOOL_P1 -D   #
#                          MT_TASK -D MT_SYS_FUNC -D MT_ZDO_FUNC -D           #
#                          LCD_SUPPORTED=DEBUG -D POWER_SAVING -lC "C:\Texas  #
#                          Instruments\ZStack-CC2530-2.5.1a\Projects\zstack\S #
#                          amples\ParkWay\CC2530DB\EndDeviceEB\List\" -lA     #
#                          "C:\Texas Instruments\ZStack-CC2530-2.5.1a\Project #
#                          s\zstack\Samples\ParkWay\CC2530DB\EndDeviceEB\List #
#                          \" --diag_suppress Pe001,Pa010 -o "C:\Texas        #
#                          Instruments\ZStack-CC2530-2.5.1a\Projects\zstack\S #
#                          amples\ParkWay\CC2530DB\EndDeviceEB\Obj\" -e       #
#                          --no_code_motion --debug --core=plain --dptr=16,1  #
#                          --data_model=large --code_model=banked             #
#                          --calling_convention=xdata_reentrant               #
#                          --place_constants=data_rom --nr_virtual_regs 8 -I  #
#                          "C:\Texas Instruments\ZStack-CC2530-2.5.1a\Project #
#                          s\zstack\Samples\ParkWay\CC2530DB\" -I "C:\Texas   #
#                          Instruments\ZStack-CC2530-2.5.1a\Projects\zstack\S #
#                          amples\ParkWay\CC2530DB\..\Source\" -I "C:\Texas   #
#                          Instruments\ZStack-CC2530-2.5.1a\Projects\zstack\S #
#                          amples\ParkWay\CC2530DB\..\..\..\ZMain\TI2530DB\"  #
#                          -I "C:\Texas Instruments\ZStack-CC2530-2.5.1a\Proj #
#                          ects\zstack\Samples\ParkWay\CC2530DB\..\..\..\..\. #
#                          .\Components\hal\include\" -I "C:\Texas            #
#                          Instruments\ZStack-CC2530-2.5.1a\Projects\zstack\S #
#                          amples\ParkWay\CC2530DB\..\..\..\..\..\Components\ #
#                          hal\target\CC2530EB\" -I "C:\Texas                 #
#                          Instruments\ZStack-CC2530-2.5.1a\Projects\zstack\S #
#                          amples\ParkWay\CC2530DB\..\..\..\..\..\Components\ #
#                          mac\include\" -I "C:\Texas                         #
#                          Instruments\ZStack-CC2530-2.5.1a\Projects\zstack\S #
#                          amples\ParkWay\CC2530DB\..\..\..\..\..\Components\ #
#                          mac\high_level\" -I "C:\Texas                      #
#                          Instruments\ZStack-CC2530-2.5.1a\Projects\zstack\S #
#                          amples\ParkWay\CC2530DB\..\..\..\..\..\Components\ #
#                          mac\low_level\srf04\" -I "C:\Texas                 #
#                          Instruments\ZStack-CC2530-2.5.1a\Projects\zstack\S #
#                          amples\ParkWay\CC2530DB\..\..\..\..\..\Components\ #
#                          mac\low_level\srf04\single_chip\" -I "C:\Texas     #
#                          Instruments\ZStack-CC2530-2.5.1a\Projects\zstack\S #
#                          amples\ParkWay\CC2530DB\..\..\..\..\..\Components\ #
#                          mt\" -I "C:\Texas Instruments\ZStack-CC2530-2.5.1a #
#                          \Projects\zstack\Samples\ParkWay\CC2530DB\..\..\.. #
#                          \..\..\Components\osal\include\" -I "C:\Texas      #
#                          Instruments\ZStack-CC2530-2.5.1a\Projects\zstack\S #
#                          amples\ParkWay\CC2530DB\..\..\..\..\..\Components\ #
#                          services\saddr\" -I "C:\Texas                      #
#                          Instruments\ZStack-CC2530-2.5.1a\Projects\zstack\S #
#                          amples\ParkWay\CC2530DB\..\..\..\..\..\Components\ #
#                          services\sdata\" -I "C:\Texas                      #
#                          Instruments\ZStack-CC2530-2.5.1a\Projects\zstack\S #
#                          amples\ParkWay\CC2530DB\..\..\..\..\..\Components\ #
#                          stack\af\" -I "C:\Texas Instruments\ZStack-CC2530- #
#                          2.5.1a\Projects\zstack\Samples\ParkWay\CC2530DB\.. #
#                          \..\..\..\..\Components\stack\nwk\" -I "C:\Texas   #
#                          Instruments\ZStack-CC2530-2.5.1a\Projects\zstack\S #
#                          amples\ParkWay\CC2530DB\..\..\..\..\..\Components\ #
#                          stack\sapi\" -I "C:\Texas                          #
#                          Instruments\ZStack-CC2530-2.5.1a\Projects\zstack\S #
#                          amples\ParkWay\CC2530DB\..\..\..\..\..\Components\ #
#                          stack\sec\" -I "C:\Texas                           #
#                          Instruments\ZStack-CC2530-2.5.1a\Projects\zstack\S #
#                          amples\ParkWay\CC2530DB\..\..\..\..\..\Components\ #
#                          stack\sys\" -I "C:\Texas                           #
#                          Instruments\ZStack-CC2530-2.5.1a\Projects\zstack\S #
#                          amples\ParkWay\CC2530DB\..\..\..\..\..\Components\ #
#                          stack\zdo\" -I "C:\Texas                           #
#                          Instruments\ZStack-CC2530-2.5.1a\Projects\zstack\S #
#                          amples\ParkWay\CC2530DB\..\..\..\..\..\Components\ #
#                          zmac\" -I "C:\Texas Instruments\ZStack-CC2530-2.5. #
#                          1a\Projects\zstack\Samples\ParkWay\CC2530DB\..\..\ #
#                          ..\..\..\Components\zmac\f8w\" -Ohz                #
#                          --require_prototypes                               #
#    List file          =  C:\Texas Instruments\ZStack-CC2530-2.5.1a\Projects #
#                          \zstack\Samples\ParkWay\CC2530DB\EndDeviceEB\List\ #
#                          ZDProfile.lst                                      #
#    Object file        =  C:\Texas Instruments\ZStack-CC2530-2.5.1a\Projects #
#                          \zstack\Samples\ParkWay\CC2530DB\EndDeviceEB\Obj\Z #
#                          DProfile.r51                                       #
#                                                                             #
#                                                                             #
###############################################################################

C:\Texas Instruments\ZStack-CC2530-2.5.1a\Components\stack\zdo\ZDProfile.c
      1          /**************************************************************************************************
      2            Filename:       ZDProfile.c
      3            Revised:        $Date: 2010-10-13 10:54:13 -0700 (Wed, 13 Oct 2010) $
      4            Revision:       $Revision: 24112 $
      5          
      6            Description:    This is the Zigbee Device Profile.
      7          
      8          
      9            Copyright 2004-2010 Texas Instruments Incorporated. All rights reserved.
     10          
     11            IMPORTANT: Your use of this Software is limited to those specific rights
     12            granted under the terms of a software license agreement between the user
     13            who downloaded the software, his/her employer (which must be your employer)
     14            and Texas Instruments Incorporated (the "License").  You may not use this
     15            Software unless you agree to abide by the terms of the License. The License
     16            limits your use, and you acknowledge, that the Software may not be modified,
     17            copied or distributed unless embedded on a Texas Instruments microcontroller
     18            or used solely and exclusively in conjunction with a Texas Instruments radio
     19            frequency transceiver, which is integrated into your product.  Other than for
     20            the foregoing purpose, you may not use, reproduce, copy, prepare derivative
     21            works of, modify, distribute, perform, display or sell this Software and/or
     22            its documentation for any purpose.
     23          
     24            YOU FURTHER ACKNOWLEDGE AND AGREE THAT THE SOFTWARE AND DOCUMENTATION ARE
     25            PROVIDED “AS IS” WITHOUT WARRANTY OF ANY KIND, EITHER EXPRESS OR IMPLIED,
     26            INCLUDING WITHOUT LIMITATION, ANY WARRANTY OF MERCHANTABILITY, TITLE,
     27            NON-INFRINGEMENT AND FITNESS FOR A PARTICULAR PURPOSE. IN NO EVENT SHALL
     28            TEXAS INSTRUMENTS OR ITS LICENSORS BE LIABLE OR OBLIGATED UNDER CONTRACT,
     29            NEGLIGENCE, STRICT LIABILITY, CONTRIBUTION, BREACH OF WARRANTY, OR OTHER
     30            LEGAL EQUITABLE THEORY ANY DIRECT OR INDIRECT DAMAGES OR EXPENSES
     31            INCLUDING BUT NOT LIMITED TO ANY INCIDENTAL, SPECIAL, INDIRECT, PUNITIVE
     32            OR CONSEQUENTIAL DAMAGES, LOST PROFITS OR LOST DATA, COST OF PROCUREMENT
     33            OF SUBSTITUTE GOODS, TECHNOLOGY, SERVICES, OR ANY CLAIMS BY THIRD PARTIES
     34            (INCLUDING BUT NOT LIMITED TO ANY DEFENSE THEREOF), OR OTHER SIMILAR COSTS.
     35          
     36            Should you have any questions regarding your right to use this Software,
     37            contact Texas Instruments Incorporated at www.TI.com.
     38          **************************************************************************************************/
     39          
     40          /*********************************************************************
     41           * INCLUDES
     42           */
     43          #include "ZComdef.h"
     44          #include "OSAL.h"
     45          #include "AF.h"
     46          #include "NLMEDE.h"
     47          #include "nwk_util.h"
     48          #include "APS.h"
     49          
     50          #include "AddrMgr.h"
     51          #include "ZDConfig.h"
     52          #include "ZDProfile.h"
     53          #include "ZDObject.h"
     54          #include "ZDNwkMgr.h"
     55          
     56          #if defined( LCD_SUPPORTED )
     57            #include "OnBoard.h"
     58          #endif
     59          
     60          #include "nwk_util.h"
     61          
     62          #if defined( MT_ZDO_FUNC )
     63            #include "MT_ZDO.h"
     64          #endif
     65          
     66          /*********************************************************************
     67           * MACROS
     68           */
     69          
     70          #define ZADDR_TO_AFADDR( pZADDR, AFADDR ) {                            \
     71            (AFADDR).endPoint = ZDP_AF_ENDPOINT;                                 \
     72            (AFADDR).addrMode = (afAddrMode_t)(pZADDR)->addrMode;                \
     73            (AFADDR).addr.shortAddr = (pZADDR)->addr.shortAddr;                  \
     74          }
     75          
     76          #define FillAndSendBuffer( TRANSSEQ, ADDR, ID, LEN, BUF ) {     \
     77            afStatus_t stat;                                    \
     78            ZDP_TmpBuf = (BUF)+1;                               \
     79            stat = fillAndSend( (TRANSSEQ), (ADDR), (ID), (LEN) );          \
     80            osal_mem_free( (BUF) );                             \
     81            ZDP_TmpBuf = ZDP_Buf+1;                             \
     82            return stat;                                        \
     83          }
     84          
     85          #define FillAndSendTxOptions( TRANSSEQ, ADDR, ID, LEN, TxO ) {  \
     86            afStatus_t stat;                                    \
     87            ZDP_TxOptions = (TxO);                              \
     88            stat = fillAndSend( (TRANSSEQ), (ADDR), (ID), (LEN) );          \
     89            ZDP_TxOptions = AF_TX_OPTIONS_NONE;                 \
     90            return stat;                                        \
     91          }
     92          
     93          #define FillAndSendBufferTxOptions( TRANSSEQ, ADDR, ID, LEN, BUF, TxO ) { \
     94            afStatus_t stat;                                    \
     95            ZDP_TmpBuf = (BUF)+1;                               \
     96            ZDP_TxOptions = (TxO);                              \
     97            stat = fillAndSend( (TRANSSEQ), (ADDR), (ID), (LEN) );          \
     98            osal_mem_free( (BUF) );                             \
     99            ZDP_TmpBuf = ZDP_Buf+1;                             \
    100            ZDP_TxOptions = AF_TX_OPTIONS_NONE;                 \
    101            return stat;                                        \
    102          }
    103          
    104          /*********************************************************************
    105           * CONSTANTS
    106           */
    107          
    108          #define ZDP_BUF_SZ          80
    109          

   \                                 In  segment CODE_C, align 1
    110          CONST byte ZDP_AF_ENDPOINT = 0;
   \                     ZDP_AF_ENDPOINT:
   \   000000   00           DB 0
    111          
    112          /*********************************************************************
    113           * TYPEDEFS
    114           */
    115          typedef struct
    116          {
    117            void *next;
    118            uint8 taskID;
    119            uint16 clusterID;
    120          } ZDO_MsgCB_t;
    121          
    122          
    123          /*********************************************************************
    124           * GLOBAL VARIABLES
    125           */
    126          

   \                                 In  segment XDATA_Z, align 1, keep-with-next
    127          byte ZDP_TransID = 0;
   \                     ZDP_TransID:
   \   000000                DS 1
   \   000001                REQUIRE __INIT_XDATA_Z
    128          
    129          /*********************************************************************
    130           * EXTERNAL VARIABLES
    131           */
    132          
    133          extern endPointDesc_t ZDApp_epDesc;
    134          
    135          /*********************************************************************
    136           * EXTERNAL FUNCTIONS
    137           */
    138          
    139          /*********************************************************************
    140           * LOCAL FUNCTIONS
    141           */
    142          
    143          static afStatus_t fillAndSend( uint8 *transSeq, zAddrType_t *addr, cId_t clusterID, byte len );
    144          uint8 ZDO_SendMsgCBs( zdoIncomingMsg_t *inMsg );
    145          void zdpProcessAddrReq( zdoIncomingMsg_t *inMsg );
    146          
    147          /*********************************************************************
    148           * LOCAL VARIABLES
    149           */
    150          

   \                                 In  segment XDATA_Z, align 1, keep-with-next
    151          static uint8  ZDP_Buf[ ZDP_BUF_SZ ];
   \                     ZDP_Buf:
   \   000000                DS 80
   \   000050                REQUIRE __INIT_XDATA_Z

   \                                 In  segment XDATA_I, align 1, keep-with-next
    152          static uint8 *ZDP_TmpBuf = ZDP_Buf+1;
   \                     ZDP_TmpBuf:
   \   000000                DS 2
   \   000002                REQUIRE `?<Initializer for ZDP_TmpBuf>`
   \   000002                REQUIRE __INIT_XDATA_I
    153          

   \                                 In  segment XDATA_Z, align 1, keep-with-next
    154          byte ZDP_TxOptions = AF_TX_OPTIONS_NONE;
   \                     ZDP_TxOptions:
   \   000000                DS 1
   \   000001                REQUIRE __INIT_XDATA_Z

   \                                 In  segment XDATA_Z, align 1, keep-with-next
    155          ZDO_MsgCB_t *zdoMsgCBs = (ZDO_MsgCB_t *)NULL;
   \                     zdoMsgCBs:
   \   000000                DS 2
   \   000002                REQUIRE __INIT_XDATA_Z
    156          
    157          /*********************************************************************
    158           * ZDO Message Processing table
    159           */
    160          
    161          typedef void (*pfnZDPMsgProcessor)( zdoIncomingMsg_t *inMsg );
    162          
    163          typedef struct
    164          {
    165            uint16                clusterID;
    166            pfnZDPMsgProcessor    pFn;
    167          } zdpMsgProcItem_t;
    168          

   \                                 In  segment CODE_C, align 1
    169          CONST zdpMsgProcItem_t zdpMsgProcs[] =
   \                     zdpMsgProcs:
   \   000000   0100         DW 1
   \   000002   ....         DW ??zdpProcessAddrReq?relay
   \   000004   0200         DW 2
   \   000006   ....         DW ??ZDO_ProcessNodeDescReq?relay
   \   000008   0300         DW 3
   \   00000A   ....         DW ??ZDO_ProcessPowerDescReq?relay
   \   00000C   0400         DW 4
   \   00000E   ....         DW ??ZDO_ProcessSimpleDescReq?relay
   \   000010   0500         DW 5
   \   000012   ....         DW ??ZDO_ProcessActiveEPReq?relay
   \   000014   0600         DW 6
   \   000016   ....         DW ??ZDO_ProcessMatchDescReq?relay
   \   000018   1100         DW 17
   \   00001A   ....         DW ??ZDO_ProcessUserDescReq?relay
   \   00001C   1400         DW 20
   \   00001E   ....         DW ??ZDO_ProcessUserDescSet?relay
   \   000020   1500         DW 21
   \   000022   ....         DW ??ZDO_ProcessServerDiscReq?relay
   \   000024   FFFF         DW 65535
   \   000026   0000         DW 0H
    170          {
    171          #if ( RFD_RCVC_ALWAYS_ON==TRUE ) || ( ZG_BUILD_RTR_TYPE )
    172            // These aren't processed by sleeping end devices.
    173            { NWK_addr_req,           zdpProcessAddrReq },
    174            { Device_annce,           ZDO_ProcessDeviceAnnce },
    175          #endif
    176            { IEEE_addr_req,          zdpProcessAddrReq },
    177            { Node_Desc_req,          ZDO_ProcessNodeDescReq },
    178            { Power_Desc_req,         ZDO_ProcessPowerDescReq },
    179            { Simple_Desc_req,        ZDO_ProcessSimpleDescReq },
    180            { Active_EP_req,          ZDO_ProcessActiveEPReq },
    181            { Match_Desc_req,         ZDO_ProcessMatchDescReq },
    182          #if defined ( ZDO_MGMT_NWKDISC_RESPONSE )
    183            { Mgmt_NWK_Disc_req,      ZDO_ProcessMgmtNwkDiscReq },
    184          #endif
    185          #if defined ( ZDO_MGMT_LQI_RESPONSE ) && ( ZG_BUILD_RTR_TYPE )
    186            { Mgmt_Lqi_req,           ZDO_ProcessMgmtLqiReq },
    187          #endif
    188          #if defined ( ZDO_MGMT_RTG_RESPONSE ) && ( ZG_BUILD_RTR_TYPE )
    189            { Mgmt_Rtg_req,           ZDO_ProcessMgmtRtgReq },
    190          #endif
    191          #if defined ( ZDO_MGMT_BIND_RESPONSE ) && defined ( REFLECTOR )
    192            { Mgmt_Bind_req,          ZDO_ProcessMgmtBindReq },
    193          #endif
    194          #if defined ( ZDO_MGMT_JOINDIRECT_RESPONSE ) && ( ZG_BUILD_RTR_TYPE )
    195            { Mgmt_Direct_Join_req,   ZDO_ProcessMgmtDirectJoinReq },
    196          #endif
    197          #if defined ( ZDO_MGMT_LEAVE_RESPONSE )
    198            { Mgmt_Leave_req,         ZDO_ProcessMgmtLeaveReq },
    199          #endif
    200          #if defined ( ZDO_MGMT_PERMIT_JOIN_RESPONSE )  && ( ZG_BUILD_RTR_TYPE )
    201            { Mgmt_Permit_Join_req,   ZDO_ProcessMgmtPermitJoinReq },
    202          #endif
    203          #if defined ( ZDO_USERDESC_RESPONSE )
    204            { User_Desc_req,          ZDO_ProcessUserDescReq },
    205          #endif
    206          #if defined ( ZDO_USERDESCSET_RESPONSE )
    207            { User_Desc_set,          ZDO_ProcessUserDescSet },
    208          #endif
    209          #if defined ( ZDO_SERVERDISC_RESPONSE )
    210            { Server_Discovery_req,   ZDO_ProcessServerDiscReq },
    211          #endif
    212            {0xFFFF, NULL} // Last
    213          };
    214          
    215          /*********************************************************************
    216           * @fn          fillAndSend
    217           *
    218           * @brief       Combined to reduce space
    219           *
    220           * @param
    221           * @param
    222           *
    223           * @return      afStatus_t
    224           */

   \                                 In  segment BANKED_CODE, align 1, keep-with-next
    225          static afStatus_t fillAndSend( uint8 *transSeq, zAddrType_t *addr, cId_t clusterID, byte len )
   \                     fillAndSend:
    226          {
   \   000000                REQUIRE ?V0
   \   000000                REQUIRE ?V1
   \   000000                REQUIRE ?V2
   \   000000                REQUIRE ?V3
   \   000000                REQUIRE ?V4
   \   000000   74F3         MOV     A,#-0xd
   \   000002   12....       LCALL   ?BANKED_ENTER_XDATA
   \   000005                ; Saved register size: 13
   \   000005                ; Auto size: 12
   \   000005   74F4         MOV     A,#-0xc
   \   000007   12....       LCALL   ?ALLOC_XSTACK8
   \   00000A   8A..         MOV     ?V2,R2
   \   00000C   8B..         MOV     ?V3,R3
   \   00000E   8C..         MOV     ?V0,R4
   \   000010   8D..         MOV     ?V1,R5
   \   000012   E9           MOV     A,R1
   \   000013   FE           MOV     R6,A
    227            afAddrType_t afAddr;
    228          
    229            osal_memset( &afAddr, 0, sizeof(afAddrType_t) );
   \   000014                ; Setup parameters for call to function osal_memset
   \   000014   7C0C         MOV     R4,#0xc
   \   000016   7D00         MOV     R5,#0x0
   \   000018   7900         MOV     R1,#0x0
   \   00001A   AA..         MOV     R2,?XSP + 0
   \   00001C   AB..         MOV     R3,?XSP + 1
   \   00001E   12....       LCALL   ??osal_memset?relay  ; Banked call to: osal_memset
    230            ZADDR_TO_AFADDR( addr, afAddr );
   \   000021   7409         MOV     A,#0x9
   \   000023   12....       LCALL   ?XSTACK_DISP0_8
   \   000026   E4           CLR     A
   \   000027   12....       LCALL   ?Subroutine18 & 0xFFFF
   \                     ??CrossCallReturnLabel_16:
   \   00002A   A3           INC     DPTR
   \   00002B   E0           MOVX    A,@DPTR
   \   00002C   C0E0         PUSH    A
   \   00002E   7408         MOV     A,#0x8
   \   000030   12....       LCALL   ?XSTACK_DISP0_8
   \   000033   D0E0         POP     A
   \   000035   F0           MOVX    @DPTR,A
   \   000036   85..82       MOV     DPL,?V0
   \   000039   85..83       MOV     DPH,?V1
   \   00003C   12....       LCALL   ?Subroutine55 & 0xFFFF
   \                     ??CrossCallReturnLabel_85:
   \   00003F   12....       LCALL   ??Subroutine117_0 & 0xFFFF
    231          
    232            *(ZDP_TmpBuf-1) = *transSeq;
   \                     ??CrossCallReturnLabel_222:
   \   000042   90....       MOV     DPTR,#ZDP_TmpBuf
   \   000045   E0           MOVX    A,@DPTR
   \   000046   24FF         ADD     A,#-0x1
   \   000048   F5..         MOV     ?V0,A
   \   00004A   A3           INC     DPTR
   \   00004B   E0           MOVX    A,@DPTR
   \   00004C   34FF         ADDC    A,#-0x1
   \   00004E   F5..         MOV     ?V1,A
   \   000050   85..82       MOV     DPL,?V2
   \   000053   85..83       MOV     DPH,?V3
   \   000056   12....       LCALL   ?Subroutine84 & 0xFFFF
    233          
    234            return AF_DataRequest( &afAddr, &ZDApp_epDesc, clusterID,
    235                                     (uint16)(len+1), (uint8*)(ZDP_TmpBuf-1),
    236                                     transSeq, ZDP_TxOptions,  AF_DEFAULT_RADIUS );
   \                     ??CrossCallReturnLabel_131:
   \   000059                ; Setup parameters for call to function AF_DataRequest
   \   000059   75..1E       MOV     ?V4,#0x1e
   \   00005C   78..         MOV     R0,#?V4
   \   00005E   12....       LCALL   ?PUSH_XSTACK_I_ONE
   \   000061   78..         MOV     R0,#?V2
   \   000063   12....       LCALL   ?PUSH_XSTACK_I_TWO
   \   000066   78..         MOV     R0,#?V0
   \   000068   12....       LCALL   ?PUSH_XSTACK_I_TWO
   \   00006B   75..00       MOV     ?V1,#0x0
   \   00006E   EE           MOV     A,R6
   \   00006F   2401         ADD     A,#0x1
   \   000071   F5..         MOV     ?V0,A
   \   000073   5002         JNC     ??fillAndSend_0
   \   000075   05..         INC     ?V1
   \                     ??fillAndSend_0:
   \   000077   78..         MOV     R0,#?V0
   \   000079   12....       LCALL   ?PUSH_XSTACK_I_TWO
   \   00007C   7420         MOV     A,#0x20
   \   00007E   12....       LCALL   ?XSTACK_DISP0_8
   \   000081   12....       LCALL   ?PUSH_XSTACK8_X_TWO
   \   000084   90....       MOV     DPTR,#ZDP_TxOptions
   \   000087   E0           MOVX    A,@DPTR
   \   000088   F9           MOV     R1,A
   \   000089   7C..         MOV     R4,#ZDApp_epDesc & 0xff
   \   00008B   7D..         MOV     R5,#(ZDApp_epDesc >> 8) & 0xff
   \   00008D   7409         MOV     A,#0x9
   \   00008F   12....       LCALL   ?XSTACK_DISP101_8
   \   000092   12....       LCALL   ??AF_DataRequest?relay; Banked call to: AF_DataRequest
   \   000095   7409         MOV     A,#0x9
   \   000097   12....       LCALL   ?DEALLOC_XSTACK8
   \   00009A   740C         MOV     A,#0xc
   \   00009C   12....       LCALL   ?DEALLOC_XSTACK8
   \   00009F                REQUIRE ?Subroutine0
   \   00009F                ; // Fall through to label ?Subroutine0
    237          
    238          }

   \                                 In  segment BANKED_CODE, align 1, keep-with-next
   \                     ?Subroutine0:
   \   000000   7F05         MOV     R7,#0x5
   \   000002   02....       LJMP    ?BANKED_LEAVE_XDATA

   \                                 In  segment BANKED_CODE, align 1, keep-with-next
   \                     ?Subroutine55:
   \   000000   12....       LCALL   ?Subroutine81 & 0xFFFF
   \                     ??CrossCallReturnLabel_279:
   \   000003   85..82       MOV     DPL,?XSP + 0
   \   000006   85..83       MOV     DPH,?XSP + 1
   \   000009   22           RET

   \                                 In  segment BANKED_CODE, align 1, keep-with-next
   \                     ?Subroutine84:
   \   000000   E0           MOVX    A,@DPTR
   \   000001   85..82       MOV     DPL,?V0
   \   000004   85..83       MOV     DPH,?V1
   \   000007   F0           MOVX    @DPTR,A
   \   000008   22           RET

   \                                 In  segment BANKED_CODE, align 1, keep-with-next
   \                     ??Subroutine117_0:
   \   000000   E8           MOV     A,R0
   \   000001                REQUIRE ??Subroutine118_0
   \   000001                ; // Fall through to label ??Subroutine118_0

   \                                 In  segment BANKED_CODE, align 1, keep-with-next
   \                     ??Subroutine118_0:
   \   000000   F0           MOVX    @DPTR,A
   \   000001   A3           INC     DPTR
   \   000002   E9           MOV     A,R1
   \   000003   F0           MOVX    @DPTR,A
   \   000004   22           RET

   \                                 In  segment BANKED_CODE, align 1, keep-with-next
   \                     ?Subroutine18:
   \   000000   F0           MOVX    @DPTR,A
   \   000001   85..82       MOV     DPL,?V0
   \   000004   85..83       MOV     DPH,?V1
   \   000007   A3           INC     DPTR
   \   000008   A3           INC     DPTR
   \   000009   A3           INC     DPTR
   \   00000A   A3           INC     DPTR
   \   00000B   A3           INC     DPTR
   \   00000C   A3           INC     DPTR
   \   00000D   A3           INC     DPTR
   \   00000E   22           RET

   \                                 In  segment BANKED_CODE, align 1, keep-with-next
   \                     ?Subroutine81:
   \   000000   12....       LCALL   ??Subroutine128_0 & 0xFFFF
   \                     ??CrossCallReturnLabel_287:
   \   000003   F9           MOV     R1,A
   \   000004   22           RET

   \                                 In  segment BANKED_CODE, align 1, keep-with-next
   \                     ??Subroutine128_0:
   \   000000   E0           MOVX    A,@DPTR
   \   000001   F8           MOV     R0,A
   \   000002   A3           INC     DPTR
   \   000003   E0           MOVX    A,@DPTR
   \   000004   22           RET
    239          
    240          /*********************************************************************
    241           * @fn          ZDP_SendData
    242           *
    243           * @brief       This builds and send a request message that has
    244           *              NWKAddrOfInterest as its only parameter.
    245           *
    246           * @param       dstAddr - destination address
    247           * @param       cmd - clusterID
    248           * @param       dataLen - number of bytes of data
    249           * @param       data - pointer to the data
    250           * @param       SecurityEnable - Security Options
    251           *
    252           * @return      afStatus_t
    253           */

   \                                 In  segment BANKED_CODE, align 1, keep-with-next
    254          afStatus_t ZDP_SendData( uint8 *TransSeq, zAddrType_t *dstAddr, uint16 cmd,
   \                     ZDP_SendData:
    255                                  byte len, uint8 *buf, byte SecurityEnable )
    256          {
   \   000000                REQUIRE ?V0
   \   000000                REQUIRE ?V2
   \   000000                REQUIRE ?V3
   \   000000   74F4         MOV     A,#-0xc
   \   000002   12....       LCALL   ?BANKED_ENTER_XDATA
   \   000005                ; Saved register size: 12
   \   000005                ; Auto size: 0
   \   000005   89..         MOV     ?V0,R1
    257            uint8 *pBuf = ZDP_TmpBuf;
   \   000007   90....       MOV     DPTR,#ZDP_TmpBuf
   \   00000A   E0           MOVX    A,@DPTR
   \   00000B   F5..         MOV     ?V2,A
   \   00000D   A3           INC     DPTR
   \   00000E   E0           MOVX    A,@DPTR
   \   00000F   F5..         MOV     ?V3,A
    258            byte cnt = len;
   \   000011   AE..         MOV     R6,?V0
   \   000013   740E         MOV     A,#0xe
   \   000015   12....       LCALL   ?XSTACK_DISP0_8
   \   000018   12....       LCALL   ??Subroutine127_0 & 0xFFFF
   \                     ??CrossCallReturnLabel_268:
   \   00001B   8020         SJMP    ??ZDP_SendData_0
    259          
    260            while ( cnt-- )
    261            {
    262              *pBuf++ = *buf++;
   \                     ??ZDP_SendData_1:
   \   00001D   8882         MOV     DPL,R0
   \   00001F   8983         MOV     DPH,R1
   \   000021   E0           MOVX    A,@DPTR
   \   000022   85..82       MOV     DPL,?V2
   \   000025   85..83       MOV     DPH,?V3
   \   000028   12....       LCALL   ?Subroutine36 & 0xFFFF
    263            }
   \                     ??CrossCallReturnLabel_51:
   \   00002B   A3           INC     DPTR
   \   00002C   A882         MOV     R0,DPL
   \   00002E   A983         MOV     R1,DPH
   \   000030   85..82       MOV     DPL,?V2
   \   000033   85..83       MOV     DPH,?V3
   \   000036   A3           INC     DPTR
   \   000037   8582..       MOV     ?V2,DPL
   \   00003A   8583..       MOV     ?V3,DPH
   \                     ??ZDP_SendData_0:
   \   00003D   EE           MOV     A,R6
   \   00003E   FF           MOV     R7,A
   \   00003F   74FF         MOV     A,#-0x1
   \   000041   2F           ADD     A,R7
   \   000042   1E           DEC     R6
   \   000043   04           INC     A
   \   000044   70D7         JNZ     ??ZDP_SendData_1
    264          
    265            FillAndSendTxOptions( TransSeq, dstAddr, cmd, len, ((SecurityEnable) ? AF_EN_SECURITY : 0) );
   \   000046   7410         MOV     A,#0x10
   \   000048   12....       LCALL   ?XSTACK_DISP0_8
   \   00004B   E0           MOVX    A,@DPTR
   \   00004C   90....       MOV     DPTR,#ZDP_TxOptions
   \   00004F   6004         JZ      ??ZDP_SendData_2
   \   000051   7440         MOV     A,#0x40
   \   000053   8001         SJMP    ??ZDP_SendData_3
   \                     ??ZDP_SendData_2:
   \   000055   E4           CLR     A
   \                     ??ZDP_SendData_3:
   \   000056   F0           MOVX    @DPTR,A
   \   000057                ; Setup parameters for call to function fillAndSend
   \   000057   740C         MOV     A,#0xc
   \   000059   12....       LCALL   ?XSTACK_DISP0_8
   \   00005C   12....       LCALL   ?PUSH_XSTACK8_X_TWO
   \   00005F   A9..         MOV     R1,?V0
   \   000061   12....       LCALL   ??fillAndSend?relay  ; Banked call to: fillAndSend
   \   000064   7402         MOV     A,#0x2
   \   000066   12....       LCALL   ?DEALLOC_XSTACK8
   \   000069   90....       MOV     DPTR,#ZDP_TxOptions
   \   00006C   E4           CLR     A
   \   00006D   F0           MOVX    @DPTR,A
   \   00006E   02....       LJMP    ??Subroutine97_0 & 0xFFFF
    266          }

   \                                 In  segment BANKED_CODE, align 1, keep-with-next
   \                     ??Subroutine97_0:
   \   000000   7F04         MOV     R7,#0x4
   \   000002   02....       LJMP    ?BANKED_LEAVE_XDATA

   \                                 In  segment BANKED_CODE, align 1, keep-with-next
   \                     ?Subroutine36:
   \   000000   F0           MOVX    @DPTR,A
   \   000001   8882         MOV     DPL,R0
   \   000003   8983         MOV     DPH,R1
   \   000005   22           RET

   \                                 In  segment BANKED_CODE, align 1, keep-with-next
   \                     ??Subroutine127_0:
   \   000000   12....       LCALL   ?Subroutine81 & 0xFFFF
   \                     ??CrossCallReturnLabel_281:
   \   000003   22           RET
    267          
    268          /*********************************************************************
    269           * @fn          ZDP_NWKAddrOfInterestReq
    270           *
    271           * @brief       This builds and send a request message that has
    272           *              NWKAddrOfInterest as its only parameter.
    273           *
    274           * @param       dstAddr - destination address
    275           * @param       nwkAddr - 16 bit address
    276           * @param       SecurityEnable - Security Options
    277           *
    278           * @return      afStatus_t
    279           */

   \                                 In  segment BANKED_CODE, align 1, keep-with-next
    280          afStatus_t ZDP_NWKAddrOfInterestReq( zAddrType_t *dstAddr, uint16 nwkAddr,
   \                     ZDP_NWKAddrOfInterestReq:
    281                                               byte cmd, byte SecurityEnable )
    282          {
   \   000000                REQUIRE ?V0
   \   000000                REQUIRE ?V1
   \   000000   74F6         MOV     A,#-0xa
   \   000002   12....       LCALL   ?BANKED_ENTER_XDATA
   \   000005                ; Saved register size: 10
   \   000005                ; Auto size: 0
   \   000005   E9           MOV     A,R1
   \   000006   FE           MOV     R6,A
    283            (void)SecurityEnable;  // Intentionally unreferenced parameter
    284          
    285            ZDP_TmpBuf[0] = LO_UINT16( nwkAddr );
   \   000007   12....       LCALL   ?Subroutine20 & 0xFFFF
    286            ZDP_TmpBuf[1] = HI_UINT16( nwkAddr );
   \                     ??CrossCallReturnLabel_20:
   \   00000A   F0           MOVX    @DPTR,A
    287          
    288            return fillAndSend( &ZDP_TransID, dstAddr, cmd, 2 );
   \   00000B                ; Setup parameters for call to function fillAndSend
   \   00000B   8E..         MOV     ?V0,R6
   \   00000D   02....       LJMP    ?Subroutine2 & 0xFFFF
    289          }

   \                                 In  segment BANKED_CODE, align 1, keep-with-next
   \                     ?Subroutine20:
   \   000000   90....       MOV     DPTR,#ZDP_TmpBuf
   \   000003   12....       LCALL   ?Subroutine85 & 0xFFFF
   \                     ??CrossCallReturnLabel_188:
   \   000006   EC           MOV     A,R4
   \   000007   12....       LCALL   ?Subroutine77 & 0xFFFF
   \                     ??CrossCallReturnLabel_121:
   \   00000A   ED           MOV     A,R5
   \   00000B   22           RET

   \                                 In  segment BANKED_CODE, align 1, keep-with-next
   \                     ?Subroutine2:
   \   000000   75..00       MOV     ?V1,#0x0
   \   000003   78..         MOV     R0,#?V0
   \   000005   12....       LCALL   ?PUSH_XSTACK_I_TWO
   \   000008   7902         MOV     R1,#0x2
   \   00000A                REQUIRE ??Subroutine105_0
   \   00000A                ; // Fall through to label ??Subroutine105_0

   \                                 In  segment BANKED_CODE, align 1, keep-with-next
   \                     ??Subroutine105_0:
   \   000000   EA           MOV     A,R2
   \   000001   FC           MOV     R4,A
   \   000002   EB           MOV     A,R3
   \   000003   FD           MOV     R5,A
   \   000004   7A..         MOV     R2,#ZDP_TransID & 0xff
   \   000006   7B..         MOV     R3,#(ZDP_TransID >> 8) & 0xff
   \   000008                REQUIRE ??Subroutine106_0
   \   000008                ; // Fall through to label ??Subroutine106_0

   \                                 In  segment BANKED_CODE, align 1, keep-with-next
   \                     ??Subroutine106_0:
   \   000000   12....       LCALL   ??fillAndSend?relay  ; Banked call to: fillAndSend
   \   000003   7402         MOV     A,#0x2
   \   000005                REQUIRE ??Subroutine107_0
   \   000005                ; // Fall through to label ??Subroutine107_0

   \                                 In  segment BANKED_CODE, align 1, keep-with-next
   \                     ??Subroutine107_0:
   \   000000   12....       LCALL   ?DEALLOC_XSTACK8
   \   000003   7F02         MOV     R7,#0x2
   \   000005   02....       LJMP    ?BANKED_LEAVE_XDATA

   \                                 In  segment BANKED_CODE, align 1, keep-with-next
   \                     ?Subroutine85:
   \   000000   12....       LCALL   ?Subroutine92 & 0xFFFF
   \                     ??CrossCallReturnLabel_191:
   \   000003   22           RET

   \                                 In  segment BANKED_CODE, align 1, keep-with-next
   \                     ?Subroutine92:
   \   000000   12....       LCALL   ??Subroutine128_0 & 0xFFFF
   \                     ??CrossCallReturnLabel_286:
   \   000003   F583         MOV     DPH,A
   \   000005   8882         MOV     DPL,R0
   \   000007   22           RET

   \                                 In  segment BANKED_CODE, align 1, keep-with-next
   \                     ?Subroutine77:
   \   000000   F0           MOVX    @DPTR,A
   \   000001   90....       MOV     DPTR,#ZDP_TmpBuf
   \   000004   12....       LCALL   ?Subroutine92 & 0xFFFF
   \                     ??CrossCallReturnLabel_190:
   \   000007   A3           INC     DPTR
   \   000008   22           RET
    290          
    291          /*********************************************************************
    292           * Address Requests
    293           */
    294          
    295          /*********************************************************************
    296           * @fn          ZDP_NwkAddrReq
    297           *
    298           * @brief       This builds and send a NWK_addr_req message.  This
    299           *              function sends a broadcast message looking for a 16
    300           *              bit address with a 64 bit address as bait.
    301           *
    302           * @param       IEEEAddress - looking for this device
    303           * @param       SecurityEnable - Security Options
    304           *
    305           * @return      afStatus_t
    306           */

   \                                 In  segment BANKED_CODE, align 1, keep-with-next
    307          afStatus_t ZDP_NwkAddrReq( uint8 *IEEEAddress, byte ReqType,
   \                     ZDP_NwkAddrReq:
    308                                     byte StartIndex, byte SecurityEnable )
    309          {
   \   000000                REQUIRE ?V0
   \   000000                REQUIRE ?V1
   \   000000                REQUIRE ?V2
   \   000000                REQUIRE ?V3
   \   000000   74F4         MOV     A,#-0xc
   \   000002   12....       LCALL   ?BANKED_ENTER_XDATA
   \   000005                ; Saved register size: 12
   \   000005                ; Auto size: 9
   \   000005   74F7         MOV     A,#-0x9
   \   000007   12....       LCALL   ?ALLOC_XSTACK8
   \   00000A   8A..         MOV     ?V0,R2
   \   00000C   8B..         MOV     ?V1,R3
   \   00000E   89..         MOV     ?V3,R1
   \   000010   8C..         MOV     ?V2,R4
    310            uint8 *pBuf = ZDP_TmpBuf;
   \   000012   90....       MOV     DPTR,#ZDP_TmpBuf
   \   000015   12....       LCALL   ??Subroutine125_0 & 0xFFFF
    311            byte len = Z_EXTADDR_LEN + 1 + 1;  // IEEEAddress + ReqType + StartIndex.
    312            zAddrType_t dstAddr;
    313          
    314            (void)SecurityEnable;  // Intentionally unreferenced parameter
    315          
    316            if ( osal_ExtAddrEqual( saveExtAddr, IEEEAddress ) == FALSE )
   \                     ??CrossCallReturnLabel_259:
   \   000018                ; Setup parameters for call to function sAddrExtCmp
   \   000018   AC..         MOV     R4,?V0
   \   00001A   AD..         MOV     R5,?V1
   \   00001C   7A..         MOV     R2,#saveExtAddr & 0xff
   \   00001E   7B..         MOV     R3,#(saveExtAddr >> 8) & 0xff
   \   000020   12....       LCALL   ??sAddrExtCmp?relay  ; Banked call to: sAddrExtCmp
   \   000023   E9           MOV     A,R1
   \   000024   700A         JNZ     ??ZDP_NwkAddrReq_0
    317            {
    318              dstAddr.addrMode = AddrBroadcast;
   \   000026   7408         MOV     A,#0x8
   \   000028   12....       LCALL   ?XSTACK_DISP0_8
   \   00002B   12....       LCALL   ?Subroutine86 & 0xFFFF
    319              dstAddr.addr.shortAddr = NWK_BROADCAST_SHORTADDR_DEVRXON;
    320            }
   \                     ??CrossCallReturnLabel_133:
   \   00002E   8012         SJMP    ??ZDP_NwkAddrReq_1
    321            else
    322            {
    323              dstAddr.addrMode = Addr16Bit;
   \                     ??ZDP_NwkAddrReq_0:
   \   000030   7408         MOV     A,#0x8
   \   000032   12....       LCALL   ?XSTACK_DISP0_8
   \   000035   7402         MOV     A,#0x2
   \   000037   F0           MOVX    @DPTR,A
    324              dstAddr.addr.shortAddr = ZDAppNwkAddr.addr.shortAddr;
   \   000038   90....       MOV     DPTR,#ZDAppNwkAddr
   \   00003B   12....       LCALL   ?Subroutine55 & 0xFFFF
    325            }
   \                     ??CrossCallReturnLabel_86:
   \   00003E   E8           MOV     A,R0
   \   00003F   F0           MOVX    @DPTR,A
   \   000040   A3           INC     DPTR
   \   000041   E9           MOV     A,R1
   \                     ??ZDP_NwkAddrReq_1:
   \   000042   F0           MOVX    @DPTR,A
    326          
    327            pBuf = osal_cpyExtAddr( pBuf, IEEEAddress );
   \   000043                ; Setup parameters for call to function sAddrExtCpy
   \   000043   AC..         MOV     R4,?V0
   \   000045   AD..         MOV     R5,?V1
   \   000047   EE           MOV     A,R6
   \   000048   FA           MOV     R2,A
   \   000049   EF           MOV     A,R7
   \   00004A   FB           MOV     R3,A
   \   00004B   12....       LCALL   ??sAddrExtCpy?relay  ; Banked call to: sAddrExtCpy
   \   00004E   8A..         MOV     ?V0,R2
   \   000050   8B..         MOV     ?V1,R3
   \   000052   AE..         MOV     R6,?V0
   \   000054   AF..         MOV     R7,?V1
    328          
    329            *pBuf++ = ReqType;
   \   000056   8E82         MOV     DPL,R6
   \   000058   8F83         MOV     DPH,R7
   \   00005A   E5..         MOV     A,?V3
   \   00005C   F0           MOVX    @DPTR,A
   \   00005D   A3           INC     DPTR
    330            *pBuf++ = StartIndex;
   \   00005E   E5..         MOV     A,?V2
   \   000060   F0           MOVX    @DPTR,A
    331          
    332            return fillAndSend( &ZDP_TransID, &dstAddr, NWK_addr_req, len );
   \   000061                ; Setup parameters for call to function fillAndSend
   \   000061   E4           CLR     A
   \   000062   F5..         MOV     ?V0,A
   \   000064   F5..         MOV     ?V1,A
   \   000066   78..         MOV     R0,#?V0
   \   000068   12....       LCALL   ?PUSH_XSTACK_I_TWO
   \   00006B   790A         MOV     R1,#0xa
   \   00006D   7402         MOV     A,#0x2
   \   00006F   12....       LCALL   ?XSTACK_DISP102_8
   \   000072   7A..         MOV     R2,#ZDP_TransID & 0xff
   \   000074   7B..         MOV     R3,#(ZDP_TransID >> 8) & 0xff
   \   000076   12....       LCALL   ??fillAndSend?relay  ; Banked call to: fillAndSend
   \   000079   7402         MOV     A,#0x2
   \   00007B   12....       LCALL   ?DEALLOC_XSTACK8
   \   00007E   7409         MOV     A,#0x9
   \   000080   80..         SJMP    ??Subroutine96_0
    333          }

   \                                 In  segment BANKED_CODE, align 1, keep-with-next
   \                     ??Subroutine96_0:
   \   000000   12....       LCALL   ?DEALLOC_XSTACK8
   \   000003                REQUIRE ??Subroutine97_0
   \   000003                ; // Fall through to label ??Subroutine97_0

   \                                 In  segment BANKED_CODE, align 1, keep-with-next
   \                     ?Subroutine86:
   \   000000   740F         MOV     A,#0xf
   \   000002   F0           MOVX    @DPTR,A
   \   000003   85..82       MOV     DPL,?XSP + 0
   \   000006   85..83       MOV     DPH,?XSP + 1
   \   000009   74FD         MOV     A,#-0x3
   \   00000B   F0           MOVX    @DPTR,A
   \   00000C   A3           INC     DPTR
   \   00000D   74FF         MOV     A,#-0x1
   \   00000F   22           RET

   \                                 In  segment BANKED_CODE, align 1, keep-with-next
   \                     ??Subroutine125_0:
   \   000000   E0           MOVX    A,@DPTR
   \   000001   FE           MOV     R6,A
   \   000002   A3           INC     DPTR
   \   000003   E0           MOVX    A,@DPTR
   \   000004   FF           MOV     R7,A
   \   000005   22           RET
    334          
    335          /*********************************************************************
    336           * @fn          ZDP_IEEEAddrReq
    337           *
    338           * @brief       This builds and send a IEEE_addr_req message.  This
    339           *              function sends a unicast message looking for a 64
    340           *              bit IEEE address with a 16 bit address as bait.
    341           *
    342           * @param       ReqType - ZDP_IEEEADDR_REQTYPE_SINGLE or
    343           *                        ZDP_IEEEADDR_REQTYPE_EXTENDED
    344           * @param       SecurityEnable - Security Options
    345           *
    346           * @return      afStatus_t
    347           */

   \                                 In  segment BANKED_CODE, align 1, keep-with-next
    348          afStatus_t ZDP_IEEEAddrReq( uint16 shortAddr, byte ReqType,
   \                     ZDP_IEEEAddrReq:
    349                                      byte StartIndex, byte SecurityEnable )
    350          {
   \   000000                REQUIRE ?V0
   \   000000                REQUIRE ?V1
   \   000000   74F6         MOV     A,#-0xa
   \   000002   12....       LCALL   ?BANKED_ENTER_XDATA
   \   000005                ; Saved register size: 10
   \   000005                ; Auto size: 9
   \   000005   74F7         MOV     A,#-0x9
   \   000007   12....       LCALL   ?ALLOC_XSTACK8
   \   00000A   E9           MOV     A,R1
   \   00000B   FF           MOV     R7,A
   \   00000C   12....       LCALL   ?Subroutine59 & 0xFFFF
    351            uint8 *pBuf = ZDP_TmpBuf;
    352            byte len = 2 + 1 + 1;  // shortAddr + ReqType + StartIndex.
    353            zAddrType_t dstAddr;
    354          
    355            (void)SecurityEnable;  // Intentionally unreferenced parameter
    356          
    357            dstAddr.addrMode = (afAddrMode_t)Addr16Bit;
   \                     ??CrossCallReturnLabel_264:
   \   00000F   7408         MOV     A,#0x8
   \   000011   12....       LCALL   ?XSTACK_DISP0_8
   \   000014   7402         MOV     A,#0x2
   \   000016   F0           MOVX    @DPTR,A
    358            dstAddr.addr.shortAddr = shortAddr;
   \   000017   12....       LCALL   ?Subroutine31 & 0xFFFF
    359          
    360            *pBuf++ = LO_UINT16( shortAddr );
   \                     ??CrossCallReturnLabel_256:
   \   00001A   EA           MOV     A,R2
   \   00001B   8882         MOV     DPL,R0
   \   00001D   8983         MOV     DPH,R1
   \   00001F   12....       LCALL   ??Subroutine124_0 & 0xFFFF
    361            *pBuf++ = HI_UINT16( shortAddr );
   \                     ??CrossCallReturnLabel_251:
   \   000022   A3           INC     DPTR
    362          
    363            *pBuf++ = ReqType;
   \   000023   EF           MOV     A,R7
   \   000024   F0           MOVX    @DPTR,A
   \   000025   A3           INC     DPTR
    364            *pBuf++ = StartIndex;
   \   000026   EE           MOV     A,R6
   \   000027   F0           MOVX    @DPTR,A
    365          
    366            return fillAndSend( &ZDP_TransID, &dstAddr, IEEE_addr_req, len );
   \   000028                ; Setup parameters for call to function fillAndSend
   \   000028   75..01       MOV     ?V0,#0x1
   \   00002B   75..00       MOV     ?V1,#0x0
   \   00002E   78..         MOV     R0,#?V0
   \   000030   12....       LCALL   ?PUSH_XSTACK_I_TWO
   \   000033   7904         MOV     R1,#0x4
   \   000035                REQUIRE ?Subroutine7
   \   000035                ; // Fall through to label ?Subroutine7
    367          }

   \                                 In  segment BANKED_CODE, align 1, keep-with-next
   \                     ?Subroutine7:
   \   000000   7402         MOV     A,#0x2
   \   000002   12....       LCALL   ?XSTACK_DISP102_8
   \   000005   7A..         MOV     R2,#ZDP_TransID & 0xff
   \   000007   7B..         MOV     R3,#(ZDP_TransID >> 8) & 0xff
   \   000009   12....       LCALL   ??fillAndSend?relay  ; Banked call to: fillAndSend
   \   00000C   7402         MOV     A,#0x2
   \   00000E   12....       LCALL   ?DEALLOC_XSTACK8
   \   000011                REQUIRE ??Subroutine98_0
   \   000011                ; // Fall through to label ??Subroutine98_0

   \                                 In  segment BANKED_CODE, align 1, keep-with-next
   \                     ??Subroutine98_0:
   \   000000   7409         MOV     A,#0x9
   \   000002   02....       LJMP    ??Subroutine107_0 & 0xFFFF

   \                                 In  segment BANKED_CODE, align 1, keep-with-next
   \                     ?Subroutine31:
   \   000000   85..82       MOV     DPL,?XSP + 0
   \   000003   85..83       MOV     DPH,?XSP + 1
   \   000006                REQUIRE ??Subroutine123_0
   \   000006                ; // Fall through to label ??Subroutine123_0

   \                                 In  segment BANKED_CODE, align 1, keep-with-next
   \                     ??Subroutine123_0:
   \   000000   EA           MOV     A,R2
   \   000001                REQUIRE ??Subroutine124_0
   \   000001                ; // Fall through to label ??Subroutine124_0

   \                                 In  segment BANKED_CODE, align 1, keep-with-next
   \                     ??Subroutine124_0:
   \   000000   F0           MOVX    @DPTR,A
   \   000001   A3           INC     DPTR
   \   000002   EB           MOV     A,R3
   \   000003   F0           MOVX    @DPTR,A
   \   000004   22           RET

   \                                 In  segment BANKED_CODE, align 1, keep-with-next
   \                     ?Subroutine59:
   \   000000   EC           MOV     A,R4
   \   000001                REQUIRE ??Subroutine126_0
   \   000001                ; // Fall through to label ??Subroutine126_0

   \                                 In  segment BANKED_CODE, align 1, keep-with-next
   \                     ??Subroutine126_0:
   \   000000   FE           MOV     R6,A
   \   000001   90....       MOV     DPTR,#ZDP_TmpBuf
   \   000004                REQUIRE ??Subroutine127_0
   \   000004                ; // Fall through to label ??Subroutine127_0
    368          
    369          /*********************************************************************
    370           * @fn          ZDP_MatchDescReq
    371           *
    372           * @brief       This builds and send a Match_Desc_req message.  This
    373           *              function sends a broadcast or unicast message
    374           *              requesting the list of endpoint/interfaces that
    375           *              match profile ID and cluster IDs.
    376           *
    377           * @param       dstAddr - destination address
    378           * @param       nwkAddr - network address of interest
    379           * @param       ProfileID - Profile ID
    380           * @param       NumInClusters - number of input clusters
    381           * @param       InClusterList - input cluster ID list
    382           * @param       NumOutClusters - number of output clusters
    383           * @param       OutClusterList - output cluster ID list
    384           * @param       SecurityEnable - Security Options
    385           *
    386           * @return      afStatus_t
    387           */

   \                                 In  segment BANKED_CODE, align 1, keep-with-next
    388          afStatus_t ZDP_MatchDescReq( zAddrType_t *dstAddr, uint16 nwkAddr,
   \                     ZDP_MatchDescReq:
    389                                          uint16 ProfileID,
    390                                          byte NumInClusters, cId_t *InClusterList,
    391                                          byte NumOutClusters, cId_t *OutClusterList,
    392                                          byte SecurityEnable )
    393          {
   \   000000                REQUIRE ?V0
   \   000000                REQUIRE ?V1
   \   000000                REQUIRE ?V2
   \   000000                REQUIRE ?V3
   \   000000                REQUIRE ?V4
   \   000000                REQUIRE ?V5
   \   000000   74F2         MOV     A,#-0xe
   \   000002   12....       LCALL   ?BANKED_ENTER_XDATA
   \   000005                ; Saved register size: 14
   \   000005                ; Auto size: 0
   \   000005   8C..         MOV     ?V0,R4
   \   000007   8D..         MOV     ?V1,R5
   \   000009   E9           MOV     A,R1
   \   00000A   12....       LCALL   ??Subroutine126_0 & 0xFFFF
    394            uint8 *pBuf = ZDP_TmpBuf;
   \                     ??CrossCallReturnLabel_266:
   \   00000D   7412         MOV     A,#0x12
   \   00000F   12....       LCALL   ?XSTACK_DISP0_8
   \   000012   E0           MOVX    A,@DPTR
   \   000013   FC           MOV     R4,A
    395            // nwkAddr+ProfileID+NumInClusters+NumOutClusters.
    396            byte i, len = 2 + 2 + 1 + 1;  // nwkAddr+ProfileID+NumInClusters+NumOutClusters.
    397          
    398            (void)SecurityEnable;  // Intentionally unreferenced parameter
    399          
    400            len += (NumInClusters + NumOutClusters) * sizeof(uint16);
   \   000014   EE           MOV     A,R6
   \   000015   2C           ADD     A,R4
   \   000016   C3           CLR     C
   \   000017   33           RLC     A
   \   000018   2406         ADD     A,#0x6
   \   00001A   FF           MOV     R7,A
    401          
    402            if ( len >= ZDP_BUF_SZ-1 )
   \   00001B   C3           CLR     C
   \   00001C   944F         SUBB    A,#0x4f
   \   00001E   4005         JC      ??ZDP_MatchDescReq_0
    403            {
    404              return afStatus_MEM_FAIL;
   \   000020   7910         MOV     R1,#0x10
   \   000022   02....       LJMP    ??ZDP_MatchDescReq_1 & 0xFFFF
    405            }
    406          
    407            // The spec changed in Zigbee 2007 (2.4.3.1.7.1) to not allow sending
    408            // this command to 0xFFFF.  So, here we will filter this and replace 
    409            // with 0xFFFD to only send to devices with RX ON.  This includes the 
    410            // network address of interest.
    411            if ( ((dstAddr->addrMode == AddrBroadcast) || (dstAddr->addrMode == Addr16Bit))
    412                && (dstAddr->addr.shortAddr == NWK_BROADCAST_SHORTADDR_DEVALL) )
   \                     ??ZDP_MatchDescReq_0:
   \   000025   8A82         MOV     DPL,R2
   \   000027   8B83         MOV     DPH,R3
   \   000029   A3           INC     DPTR
   \   00002A   A3           INC     DPTR
   \   00002B   A3           INC     DPTR
   \   00002C   A3           INC     DPTR
   \   00002D   A3           INC     DPTR
   \   00002E   A3           INC     DPTR
   \   00002F   A3           INC     DPTR
   \   000030   A3           INC     DPTR
   \   000031   E0           MOVX    A,@DPTR
   \   000032   640F         XRL     A,#0xf
   \   000034   6011         JZ      ??ZDP_MatchDescReq_2
   \   000036   8A82         MOV     DPL,R2
   \   000038   8B83         MOV     DPH,R3
   \   00003A   A3           INC     DPTR
   \   00003B   A3           INC     DPTR
   \   00003C   A3           INC     DPTR
   \   00003D   A3           INC     DPTR
   \   00003E   A3           INC     DPTR
   \   00003F   A3           INC     DPTR
   \   000040   A3           INC     DPTR
   \   000041   A3           INC     DPTR
   \   000042   E0           MOVX    A,@DPTR
   \   000043   6402         XRL     A,#0x2
   \   000045   7018         JNZ     ??ZDP_MatchDescReq_3
   \                     ??ZDP_MatchDescReq_2:
   \   000047   8A82         MOV     DPL,R2
   \   000049   8B83         MOV     DPH,R3
   \   00004B   E0           MOVX    A,@DPTR
   \   00004C   F4           CPL     A
   \   00004D   7003         JNZ     ??ZDP_MatchDescReq_4
   \   00004F   A3           INC     DPTR
   \   000050   E0           MOVX    A,@DPTR
   \   000051   F4           CPL     A
   \                     ??ZDP_MatchDescReq_4:
   \   000052   700B         JNZ     ??ZDP_MatchDescReq_3
    413            {
    414              dstAddr->addr.shortAddr = NWK_BROADCAST_SHORTADDR_DEVRXON;
   \   000054   8A82         MOV     DPL,R2
   \   000056   8B83         MOV     DPH,R3
   \   000058   74FD         MOV     A,#-0x3
   \   00005A   F0           MOVX    @DPTR,A
   \   00005B   A3           INC     DPTR
   \   00005C   74FF         MOV     A,#-0x1
   \   00005E   F0           MOVX    @DPTR,A
    415            }
    416            if ( nwkAddr == NWK_BROADCAST_SHORTADDR_DEVALL )
   \                     ??ZDP_MatchDescReq_3:
   \   00005F   74FF         MOV     A,#-0x1
   \   000061   65..         XRL     A,?V0
   \   000063   7004         JNZ     ??ZDP_MatchDescReq_5
   \   000065   74FF         MOV     A,#-0x1
   \   000067   65..         XRL     A,?V1
   \                     ??ZDP_MatchDescReq_5:
   \   000069   7006         JNZ     ??ZDP_MatchDescReq_6
    417            {
    418              nwkAddr = NWK_BROADCAST_SHORTADDR_DEVRXON;
   \   00006B   75..FD       MOV     ?V0,#-0x3
   \   00006E   75..FF       MOV     ?V1,#-0x1
    419            }
    420            
    421            *pBuf++ = LO_UINT16( nwkAddr );   // NWKAddrOfInterest
   \                     ??ZDP_MatchDescReq_6:
   \   000071   8882         MOV     DPL,R0
   \   000073   8983         MOV     DPH,R1
   \   000075   E5..         MOV     A,?V0
   \   000077   F0           MOVX    @DPTR,A
   \   000078   A3           INC     DPTR
    422            *pBuf++ = HI_UINT16( nwkAddr );
   \   000079   E5..         MOV     A,?V1
   \   00007B   12....       LCALL   ??Subroutine113_0 & 0xFFFF
   \                     ??CrossCallReturnLabel_199:
   \   00007E   740E         MOV     A,#0xe
   \   000080   12....       LCALL   ?XSTACK_DISP0_8
   \   000083   12....       LCALL   ??Subroutine114_0 & 0xFFFF
    423          
    424            *pBuf++ = LO_UINT16( ProfileID );   // Profile ID
   \                     ??CrossCallReturnLabel_206:
   \   000086   8882         MOV     DPL,R0
   \   000088   8983         MOV     DPH,R1
   \   00008A   E5..         MOV     A,?V0
   \   00008C   F0           MOVX    @DPTR,A
   \   00008D   A3           INC     DPTR
    425            *pBuf++ = HI_UINT16( ProfileID );
   \   00008E   E5..         MOV     A,?V1
   \   000090   F0           MOVX    @DPTR,A
   \   000091   A3           INC     DPTR
    426          
    427            *pBuf++ = NumInClusters; // Input cluster list
   \   000092   EE           MOV     A,R6
   \   000093   F0           MOVX    @DPTR,A
   \   000094   A3           INC     DPTR
   \   000095   08           INC     R0
   \   000096   08           INC     R0
   \   000097   08           INC     R0
   \   000098   A983         MOV     R1,DPH
    428            if ( NumInClusters )
   \   00009A   6010         JZ      ??ZDP_MatchDescReq_7
    429            {
    430              for (i=0; i<NumInClusters; ++i)  {
   \   00009C   7D00         MOV     R5,#0x0
   \   00009E   7410         MOV     A,#0x10
   \   0000A0   12....       LCALL   ?XSTACK_DISP0_8
   \   0000A3   12....       LCALL   ??Subroutine114_0 & 0xFFFF
    431                *pBuf++ = LO_UINT16( InClusterList[i] );
   \                     ??CrossCallReturnLabel_207:
   \   0000A6   12....       LCALL   ?Subroutine10 & 0xFFFF
    432                *pBuf++ = HI_UINT16( InClusterList[i] );
    433              }
    434            }
   \                     ??CrossCallReturnLabel_2:
   \   0000A9   9E           SUBB    A,R6
   \   0000AA   40FA         JC      ??CrossCallReturnLabel_207
    435          
    436            *pBuf++ = NumOutClusters; // Output cluster list
   \                     ??ZDP_MatchDescReq_7:
   \   0000AC   EC           MOV     A,R4
   \   0000AD   12....       LCALL   ?Subroutine12 & 0xFFFF
    437            if ( NumOutClusters )
   \                     ??CrossCallReturnLabel_203:
   \   0000B0   6010         JZ      ??ZDP_MatchDescReq_8
    438            {
    439              for (i=0; i<NumOutClusters; ++i)  {
   \   0000B2   7D00         MOV     R5,#0x0
   \   0000B4   7413         MOV     A,#0x13
   \   0000B6   12....       LCALL   ?XSTACK_DISP0_8
   \   0000B9   12....       LCALL   ??Subroutine114_0 & 0xFFFF
    440                *pBuf++ = LO_UINT16( OutClusterList[i] );
   \                     ??CrossCallReturnLabel_208:
   \   0000BC   12....       LCALL   ?Subroutine10 & 0xFFFF
    441                *pBuf++ = HI_UINT16( OutClusterList[i] );
    442              }
    443            }
   \                     ??CrossCallReturnLabel_3:
   \   0000BF   9C           SUBB    A,R4
   \   0000C0   40FA         JC      ??CrossCallReturnLabel_208
    444          
    445            return fillAndSend( &ZDP_TransID, dstAddr, Match_Desc_req, len );
   \                     ??ZDP_MatchDescReq_8:
   \   0000C2                ; Setup parameters for call to function fillAndSend
   \   0000C2   75..06       MOV     ?V0,#0x6
   \   0000C5   75..00       MOV     ?V1,#0x0
   \   0000C8   78..         MOV     R0,#?V0
   \   0000CA   12....       LCALL   ?PUSH_XSTACK_I_TWO
   \   0000CD   EF           MOV     A,R7
   \   0000CE   F9           MOV     R1,A
   \   0000CF   EA           MOV     A,R2
   \   0000D0   FC           MOV     R4,A
   \   0000D1   EB           MOV     A,R3
   \   0000D2   FD           MOV     R5,A
   \   0000D3   7A..         MOV     R2,#ZDP_TransID & 0xff
   \   0000D5   7B..         MOV     R3,#(ZDP_TransID >> 8) & 0xff
   \   0000D7   12....       LCALL   ??fillAndSend?relay  ; Banked call to: fillAndSend
   \   0000DA   7402         MOV     A,#0x2
   \   0000DC   12....       LCALL   ?DEALLOC_XSTACK8
   \                     ??ZDP_MatchDescReq_1:
   \   0000DF                REQUIRE ?Subroutine3
   \   0000DF                ; // Fall through to label ?Subroutine3
    446          }

   \                                 In  segment BANKED_CODE, align 1, keep-with-next
   \                     ?Subroutine3:
   \   000000   7F06         MOV     R7,#0x6
   \   000002   02....       LJMP    ?BANKED_LEAVE_XDATA

   \                                 In  segment BANKED_CODE, align 1, keep-with-next
   \                     ?Subroutine10:
   \   000000   ED           MOV     A,R5
   \   000001   25E0         ADD     A,0xE0 /* A   */
   \   000003   F5..         MOV     ?V2,A
   \   000005   E4           CLR     A
   \   000006   33           RLC     A
   \   000007   F5..         MOV     ?V3,A
   \   000009   E5..         MOV     A,?V0
   \   00000B   25..         ADD     A,?V2
   \   00000D   F5..         MOV     ?V4,A
   \   00000F   E5..         MOV     A,?V1
   \   000011   35..         ADDC    A,?V3
   \   000013   F5..         MOV     ?V5,A
   \   000015   85..82       MOV     DPL,?V4
   \   000018   12....       LCALL   ?Subroutine82 & 0xFFFF
   \                     ??CrossCallReturnLabel_139:
   \   00001B   A3           INC     DPTR
   \   00001C   A882         MOV     R0,DPL
   \   00001E   A983         MOV     R1,DPH
   \   000020   85..82       MOV     DPL,?V4
   \   000023   85..83       MOV     DPH,?V5
   \   000026   A3           INC     DPTR
   \   000027   12....       LCALL   ?Subroutine74 & 0xFFFF
   \                     ??CrossCallReturnLabel_245:
   \   00002A   0D           INC     R5
   \   00002B   ED           MOV     A,R5
   \   00002C   C3           CLR     C
   \   00002D   22           RET

   \                                 In  segment BANKED_CODE, align 1, keep-with-next
   \                     ?Subroutine82:
   \   000000   F583         MOV     DPH,A
   \   000002                REQUIRE ??Subroutine99_0
   \   000002                ; // Fall through to label ??Subroutine99_0

   \                                 In  segment BANKED_CODE, align 1, keep-with-next
   \                     ??Subroutine99_0:
   \   000000   E0           MOVX    A,@DPTR
   \   000001   8882         MOV     DPL,R0
   \   000003   8983         MOV     DPH,R1
   \   000005   F0           MOVX    @DPTR,A
   \   000006   22           RET

   \                                 In  segment BANKED_CODE, align 1, keep-with-next
   \                     ?Subroutine12:
   \   000000   8882         MOV     DPL,R0
   \   000002   8983         MOV     DPH,R1
   \   000004                REQUIRE ??Subroutine113_0
   \   000004                ; // Fall through to label ??Subroutine113_0

   \                                 In  segment BANKED_CODE, align 1, keep-with-next
   \                     ??Subroutine113_0:
   \   000000   F0           MOVX    @DPTR,A
   \   000001   A3           INC     DPTR
   \   000002   A882         MOV     R0,DPL
   \   000004   A983         MOV     R1,DPH
   \   000006   22           RET

   \                                 In  segment BANKED_CODE, align 1, keep-with-next
   \                     ??Subroutine114_0:
   \   000000   E0           MOVX    A,@DPTR
   \   000001   F5..         MOV     ?V0,A
   \   000003   A3           INC     DPTR
   \   000004   E0           MOVX    A,@DPTR
   \   000005   F5..         MOV     ?V1,A
   \   000007   22           RET

   \                                 In  segment BANKED_CODE, align 1, keep-with-next
   \                     ?Subroutine74:
   \   000000   12....       LCALL   ?Subroutine90 & 0xFFFF
   \                     ??CrossCallReturnLabel_250:
   \   000003   22           RET

   \                                 In  segment BANKED_CODE, align 1, keep-with-next
   \                     ?Subroutine90:
   \   000000   E0           MOVX    A,@DPTR
   \   000001   8882         MOV     DPL,R0
   \   000003   8983         MOV     DPH,R1
   \   000005   F0           MOVX    @DPTR,A
   \   000006   A3           INC     DPTR
   \   000007   08           INC     R0
   \   000008   A983         MOV     R1,DPH
   \   00000A   22           RET
    447          
    448          /*********************************************************************
    449           * @fn          ZDP_SimpleDescReq
    450           *
    451           * @brief       This builds and send a NWK_Simple_Desc_req
    452           *              message.  This function sends unicast message to the
    453           *              destination device.
    454           *
    455           * @param       dstAddr - destination address
    456           * @param       nwkAddr - 16 bit address
    457           * @param       epIntf - endpoint/interface
    458           * @param       SecurityEnable - Security Options
    459           *
    460           * @return      afStatus_t
    461           */

   \                                 In  segment BANKED_CODE, align 1, keep-with-next
    462          afStatus_t ZDP_SimpleDescReq( zAddrType_t *dstAddr, uint16 nwkAddr,
   \                     ZDP_SimpleDescReq:
    463                                              byte endPoint, byte SecurityEnable )
    464          
    465          {
   \   000000                REQUIRE ?V0
   \   000000                REQUIRE ?V1
   \   000000   74F6         MOV     A,#-0xa
   \   000002   12....       LCALL   ?BANKED_ENTER_XDATA
   \   000005                ; Saved register size: 10
   \   000005                ; Auto size: 0
    466            (void)SecurityEnable;  // Intentionally unreferenced parameter
    467          
    468            ZDP_TmpBuf[0] = LO_UINT16( nwkAddr );
   \   000005   12....       LCALL   ?Subroutine20 & 0xFFFF
    469            ZDP_TmpBuf[1] = HI_UINT16( nwkAddr );
   \                     ??CrossCallReturnLabel_21:
   \   000008   12....       LCALL   ?Subroutine17 & 0xFFFF
    470            ZDP_TmpBuf[2] = endPoint;
    471          
    472            return fillAndSend( &ZDP_TransID, dstAddr, Simple_Desc_req, 3 );
   \                     ??CrossCallReturnLabel_14:
   \   00000B                ; Setup parameters for call to function fillAndSend
   \   00000B   75..04       MOV     ?V0,#0x4
   \   00000E   75..00       MOV     ?V1,#0x0
   \   000011   78..         MOV     R0,#?V0
   \   000013   12....       LCALL   ?PUSH_XSTACK_I_TWO
   \   000016   7903         MOV     R1,#0x3
   \   000018   02....       LJMP    ??Subroutine105_0 & 0xFFFF
    473          }

   \                                 In  segment BANKED_CODE, align 1, keep-with-next
   \                     ?Subroutine17:
   \   000000   12....       LCALL   ?Subroutine77 & 0xFFFF
   \                     ??CrossCallReturnLabel_122:
   \   000003   A3           INC     DPTR
   \   000004   E9           MOV     A,R1
   \   000005   F0           MOVX    @DPTR,A
   \   000006   22           RET
    474          
    475          /*********************************************************************
    476           * @fn          ZDP_UserDescSet
    477           *
    478           * @brief       This builds and send a User_Desc_set message to set
    479           *              the user descriptor.  This function sends unicast
    480           *              message to the destination device.
    481           *
    482           * @param       dstAddr - destination address
    483           * @param       nwkAddr - 16 bit address
    484           * @param       UserDescriptor - user descriptor
    485           * @param       SecurityEnable - Security Options
    486           *
    487           * @return      afStatus_t
    488           */

   \                                 In  segment BANKED_CODE, align 1, keep-with-next
    489          afStatus_t ZDP_UserDescSet( zAddrType_t *dstAddr, uint16 nwkAddr,
   \                     ZDP_UserDescSet:
    490                                    UserDescriptorFormat_t *UserDescriptor,
    491                                    byte SecurityEnable )
    492          {
   \   000000                REQUIRE ?V0
   \   000000                REQUIRE ?V1
   \   000000                REQUIRE ?V2
   \   000000                REQUIRE ?V3
   \   000000                REQUIRE ?V4
   \   000000                REQUIRE ?V5
   \   000000                REQUIRE ?V6
   \   000000   74F1         MOV     A,#-0xf
   \   000002   12....       LCALL   ?BANKED_ENTER_XDATA
   \   000005                ; Saved register size: 15
   \   000005                ; Auto size: 2
   \   000005   74FE         MOV     A,#-0x2
   \   000007   12....       LCALL   ?ALLOC_XSTACK8
   \   00000A   12....       LCALL   ?Subroutine31 & 0xFFFF
    493            uint8 *pBuf = ZDP_TmpBuf;
   \                     ??CrossCallReturnLabel_257:
   \   00000D   12....       LCALL   ?Subroutine53 & 0xFFFF
   \                     ??CrossCallReturnLabel_215:
   \   000010   7411         MOV     A,#0x11
   \   000012   12....       LCALL   ?XSTACK_DISP0_8
   \   000015   12....       LCALL   ??Subroutine127_0 & 0xFFFF
   \                     ??CrossCallReturnLabel_269:
   \   000018   E8           MOV     A,R0
   \   000019   FA           MOV     R2,A
   \   00001A   E9           MOV     A,R1
   \   00001B   FB           MOV     R3,A
    494            byte len = (UserDescriptor->len < AF_MAX_USER_DESCRIPTOR_LEN) ?
    495                        UserDescriptor->len : AF_MAX_USER_DESCRIPTOR_LEN;
   \   00001C   8A82         MOV     DPL,R2
   \   00001E   8B83         MOV     DPH,R3
   \   000020   E0           MOVX    A,@DPTR
   \   000021   C3           CLR     C
   \   000022   9410         SUBB    A,#0x10
   \   000024   5005         JNC     ??ZDP_UserDescSet_0
   \   000026   E0           MOVX    A,@DPTR
   \   000027   F5..         MOV     ?V2,A
   \   000029   8003         SJMP    ??ZDP_UserDescSet_1
   \                     ??ZDP_UserDescSet_0:
   \   00002B   75..10       MOV     ?V2,#0x10
    496            byte addrLen = 2;
    497          
    498            (void)SecurityEnable;  // Intentionally unreferenced parameter
    499          
    500            *pBuf++ = LO_UINT16( nwkAddr );
   \                     ??ZDP_UserDescSet_1:
   \   00002E   EC           MOV     A,R4
   \   00002F   85..82       MOV     DPL,?V0
   \   000032   85..83       MOV     DPH,?V1
   \   000035   F0           MOVX    @DPTR,A
   \   000036   A3           INC     DPTR
    501            *pBuf++ = HI_UINT16( nwkAddr );
   \   000037   ED           MOV     A,R5
   \   000038   12....       LCALL   ?Subroutine23 & 0xFFFF
    502          
    503            *pBuf++ = len;
    504            addrLen = 3;
    505          
    506            pBuf = osal_memcpy( pBuf, UserDescriptor->desc, len );
    507            osal_memset( pBuf, AF_USER_DESCRIPTOR_FILL, AF_MAX_USER_DESCRIPTOR_LEN-len );
   \                     ??CrossCallReturnLabel_26:
   \   00003B                ; Setup parameters for call to function osal_memset
   \   00003B   F5..         MOV     ?V4,A
   \   00003D   7410         MOV     A,#0x10
   \   00003F   C3           CLR     C
   \   000040   95..         SUBB    A,?V4
   \   000042   FC           MOV     R4,A
   \   000043   95E0         SUBB    A,0xE0 /* A   */
   \   000045   FD           MOV     R5,A
   \   000046   7920         MOV     R1,#0x20
   \   000048   E9           MOV     A,R1
   \   000049   C0E0         PUSH    A
   \   00004B   EC           MOV     A,R4
   \   00004C   FE           MOV     R6,A
   \   00004D   ED           MOV     A,R5
   \   00004E   FF           MOV     R7,A
   \   00004F                ; Setup parameters for call to function osal_memcpy
   \   00004F   8A82         MOV     DPL,R2
   \   000051   8B83         MOV     DPH,R3
   \   000053   A3           INC     DPTR
   \   000054   A982         MOV     R1,DPL
   \   000056   AA83         MOV     R2,DPH
   \   000058   89..         MOV     ?V4,R1
   \   00005A   8A..         MOV     ?V5,R2
   \   00005C   75..00       MOV     ?V6,#0x0
   \   00005F   78..         MOV     R0,#?V4
   \   000061   12....       LCALL   ?PUSH_XSTACK_I_THREE
   \   000064   AC..         MOV     R4,?V2
   \   000066   7D00         MOV     R5,#0x0
   \   000068   AA..         MOV     R2,?V0
   \   00006A   AB..         MOV     R3,?V1
   \   00006C   12....       LCALL   ??osal_memcpy?relay  ; Banked call to: osal_memcpy
   \   00006F   7403         MOV     A,#0x3
   \   000071   12....       LCALL   ?DEALLOC_XSTACK8
   \   000074   EE           MOV     A,R6
   \   000075   FC           MOV     R4,A
   \   000076   EF           MOV     A,R7
   \   000077   FD           MOV     R5,A
   \   000078   D0E0         POP     A
   \   00007A   F9           MOV     R1,A
   \   00007B   12....       LCALL   ??osal_memset?relay  ; Banked call to: osal_memset
    508          
    509            return fillAndSend( &ZDP_TransID, dstAddr, User_Desc_set, (AF_MAX_USER_DESCRIPTOR_LEN + addrLen) );
   \   00007E                ; Setup parameters for call to function fillAndSend
   \   00007E   75..14       MOV     ?V0,#0x14
   \   000081   75..00       MOV     ?V1,#0x0
   \   000084   78..         MOV     R0,#?V0
   \   000086   12....       LCALL   ?PUSH_XSTACK_I_TWO
   \   000089   7913         MOV     R1,#0x13
   \   00008B   7402         MOV     A,#0x2
   \   00008D   12....       LCALL   ?XSTACK_DISP0_8
   \   000090   12....       LCALL   ?Subroutine60 & 0xFFFF
   \                     ??CrossCallReturnLabel_89:
   \   000093   12....       LCALL   ??fillAndSend?relay  ; Banked call to: fillAndSend
   \   000096   7402         MOV     A,#0x2
   \   000098   12....       LCALL   ?DEALLOC_XSTACK8
   \   00009B   7402         MOV     A,#0x2
   \   00009D   12....       LCALL   ?DEALLOC_XSTACK8
   \   0000A0                REQUIRE ?Subroutine4
   \   0000A0                ; // Fall through to label ?Subroutine4
    510          }

   \                                 In  segment BANKED_CODE, align 1, keep-with-next
   \                     ?Subroutine4:
   \   000000   7F07         MOV     R7,#0x7
   \   000002   02....       LJMP    ?BANKED_LEAVE_XDATA

   \                                 In  segment BANKED_CODE, align 1, keep-with-next
   \                     ?Subroutine60:
   \   000000   E0           MOVX    A,@DPTR
   \   000001   FC           MOV     R4,A
   \   000002   A3           INC     DPTR
   \   000003   E0           MOVX    A,@DPTR
   \   000004   FD           MOV     R5,A
   \   000005   7A..         MOV     R2,#ZDP_TransID & 0xff
   \   000007   7B..         MOV     R3,#(ZDP_TransID >> 8) & 0xff
   \   000009   22           RET

   \                                 In  segment BANKED_CODE, align 1, keep-with-next
   \                     ?Subroutine23:
   \   000000   F0           MOVX    @DPTR,A
   \   000001   A3           INC     DPTR
   \   000002   E5..         MOV     A,?V2
   \   000004   12....       LCALL   ?Subroutine88 & 0xFFFF
   \                     ??CrossCallReturnLabel_197:
   \   000007   22           RET

   \                                 In  segment BANKED_CODE, align 1, keep-with-next
   \                     ?Subroutine88:
   \   000000   F0           MOVX    @DPTR,A
   \   000001   A3           INC     DPTR
   \   000002   8582..       MOV     ?V0,DPL
   \   000005   8583..       MOV     ?V1,DPH
   \   000008   22           RET

   \                                 In  segment BANKED_CODE, align 1, keep-with-next
   \                     ?Subroutine53:
   \   000000   90....       MOV     DPTR,#ZDP_TmpBuf
   \   000003                REQUIRE ??Subroutine114_0
   \   000003                ; // Fall through to label ??Subroutine114_0
    511          
    512          /*********************************************************************
    513           * @fn          ZDP_ServerDiscReq
    514           *
    515           * @brief       Build and send a Server_Discovery_req request message.
    516           *
    517           * @param       serverMask - 16-bit bit-mask of server services being sought.
    518           * @param       SecurityEnable - Security Options
    519           *
    520           * @return      afStatus_t
    521           */

   \                                 In  segment BANKED_CODE, align 1, keep-with-next
    522          afStatus_t ZDP_ServerDiscReq( uint16 serverMask, byte SecurityEnable )
   \                     ZDP_ServerDiscReq:
    523          {
   \   000000                REQUIRE ?V0
   \   000000                REQUIRE ?V1
   \   000000   74F6         MOV     A,#-0xa
   \   000002   12....       LCALL   ?BANKED_ENTER_XDATA
   \   000005                ; Saved register size: 10
   \   000005                ; Auto size: 9
   \   000005   74F7         MOV     A,#-0x9
   \   000007   12....       LCALL   ?ALLOC_XSTACK8
   \   00000A   E9           MOV     A,R1
   \   00000B   12....       LCALL   ??Subroutine126_0 & 0xFFFF
    524            uint8 *pBuf = ZDP_TmpBuf;
    525            zAddrType_t dstAddr;
    526          
    527            dstAddr.addrMode = AddrBroadcast;
   \                     ??CrossCallReturnLabel_267:
   \   00000E   7408         MOV     A,#0x8
   \   000010   12....       LCALL   ?XSTACK_DISP0_8
   \   000013   12....       LCALL   ?Subroutine21 & 0xFFFF
    528            dstAddr.addr.shortAddr = NWK_BROADCAST_SHORTADDR_DEVRXON;
    529          
    530            *pBuf++ = LO_UINT16( serverMask );
   \                     ??CrossCallReturnLabel_22:
   \   000016   EA           MOV     A,R2
   \   000017   8882         MOV     DPL,R0
   \   000019   8983         MOV     DPH,R1
   \   00001B   12....       LCALL   ??Subroutine124_0 & 0xFFFF
    531            *pBuf = HI_UINT16( serverMask );
    532          
    533            FillAndSendTxOptions( &ZDP_TransID, &dstAddr, Server_Discovery_req, 2,
    534                       ((SecurityEnable) ? AF_EN_SECURITY : AF_TX_OPTIONS_NONE) );
   \                     ??CrossCallReturnLabel_252:
   \   00001E   EE           MOV     A,R6
   \   00001F   90....       MOV     DPTR,#ZDP_TxOptions
   \   000022   6004         JZ      ??ZDP_ServerDiscReq_0
   \   000024   7440         MOV     A,#0x40
   \   000026   8001         SJMP    ??ZDP_ServerDiscReq_1
   \                     ??ZDP_ServerDiscReq_0:
   \   000028   E4           CLR     A
   \                     ??ZDP_ServerDiscReq_1:
   \   000029   F0           MOVX    @DPTR,A
   \   00002A                ; Setup parameters for call to function fillAndSend
   \   00002A   75..15       MOV     ?V0,#0x15
   \   00002D   75..00       MOV     ?V1,#0x0
   \   000030   78..         MOV     R0,#?V0
   \   000032   12....       LCALL   ?PUSH_XSTACK_I_TWO
   \   000035   7902         MOV     R1,#0x2
   \   000037   E9           MOV     A,R1
   \   000038   12....       LCALL   ?XSTACK_DISP102_8
   \   00003B   7A..         MOV     R2,#ZDP_TransID & 0xff
   \   00003D   7B..         MOV     R3,#(ZDP_TransID >> 8) & 0xff
   \   00003F   12....       LCALL   ??fillAndSend?relay  ; Banked call to: fillAndSend
   \   000042   7402         MOV     A,#0x2
   \   000044   12....       LCALL   ?DEALLOC_XSTACK8
   \   000047   90....       MOV     DPTR,#ZDP_TxOptions
   \   00004A   E4           CLR     A
   \   00004B   F0           MOVX    @DPTR,A
   \   00004C   02....       LJMP    ??Subroutine98_0 & 0xFFFF
    535          }

   \                                 In  segment BANKED_CODE, align 1, keep-with-next
   \                     ?Subroutine21:
   \   000000   12....       LCALL   ?Subroutine86 & 0xFFFF
   \                     ??CrossCallReturnLabel_134:
   \   000003   F0           MOVX    @DPTR,A
   \   000004   22           RET
    536          
    537          /*********************************************************************
    538           * @fn          ZDP_DeviceAnnce
    539           *
    540           * @brief       This builds and send a Device_Annce message.  This
    541           *              function sends a broadcast message.
    542           *
    543           * @param       nwkAddr - 16 bit address of the device
    544           * @param       IEEEAddr - 64 bit address of the device
    545           * @param       capabilities - device capabilities.  This field is only
    546           *                 sent for v1.1 networks.
    547           * @param       SecurityEnable - Security Options
    548           *
    549           * @return      afStatus_t
    550           */

   \                                 In  segment BANKED_CODE, align 1, keep-with-next
    551          afStatus_t ZDP_DeviceAnnce( uint16 nwkAddr, uint8 *IEEEAddr,
   \                     ZDP_DeviceAnnce:
    552                                        byte capabilities, byte SecurityEnable )
    553          {
   \   000000                REQUIRE ?V0
   \   000000                REQUIRE ?V1
   \   000000   74F6         MOV     A,#-0xa
   \   000002   12....       LCALL   ?BANKED_ENTER_XDATA
   \   000005                ; Saved register size: 10
   \   000005                ; Auto size: 9
   \   000005   74F7         MOV     A,#-0x9
   \   000007   12....       LCALL   ?ALLOC_XSTACK8
   \   00000A   E9           MOV     A,R1
   \   00000B   FE           MOV     R6,A
    554            zAddrType_t dstAddr;
    555            uint8 len;
    556          
    557            (void)SecurityEnable;  // Intentionally unreferenced parameter
    558          
    559            dstAddr.addrMode = (afAddrMode_t)AddrBroadcast;
   \   00000C   7408         MOV     A,#0x8
   \   00000E   12....       LCALL   ?XSTACK_DISP0_8
   \   000011   12....       LCALL   ?Subroutine21 & 0xFFFF
    560            dstAddr.addr.shortAddr = NWK_BROADCAST_SHORTADDR_DEVRXON;
    561          
    562            ZDP_TmpBuf[0] = LO_UINT16( nwkAddr );
   \                     ??CrossCallReturnLabel_23:
   \   000014   12....       LCALL   ?Subroutine48 & 0xFFFF
   \                     ??CrossCallReturnLabel_183:
   \   000017   EA           MOV     A,R2
   \   000018   12....       LCALL   ?Subroutine22 & 0xFFFF
    563            ZDP_TmpBuf[1] = HI_UINT16( nwkAddr );
   \                     ??CrossCallReturnLabel_24:
   \   00001B   EB           MOV     A,R3
   \   00001C   F0           MOVX    @DPTR,A
    564            osal_cpyExtAddr( &ZDP_TmpBuf[2], IEEEAddr );
   \   00001D                ; Setup parameters for call to function sAddrExtCpy
   \   00001D   90....       MOV     DPTR,#ZDP_TmpBuf
   \   000020   E0           MOVX    A,@DPTR
   \   000021   2402         ADD     A,#0x2
   \   000023   FA           MOV     R2,A
   \   000024   A3           INC     DPTR
   \   000025   E0           MOVX    A,@DPTR
   \   000026   3400         ADDC    A,#0x0
   \   000028   FB           MOV     R3,A
   \   000029   12....       LCALL   ??sAddrExtCpy?relay  ; Banked call to: sAddrExtCpy
    565            len = 2 + Z_EXTADDR_LEN;
    566          
    567            ZDP_TmpBuf[10] = capabilities;
   \   00002C   12....       LCALL   ?Subroutine94 & 0xFFFF
   \                     ??CrossCallReturnLabel_284:
   \   00002F   C8           XCH     A,R0
   \   000030   240A         ADD     A,#0xa
   \   000032   F582         MOV     DPL,A
   \   000034   E4           CLR     A
   \   000035   38           ADDC    A,R0
   \   000036   F583         MOV     DPH,A
   \   000038   EE           MOV     A,R6
   \   000039   F0           MOVX    @DPTR,A
    568            len++;
    569          
    570            return fillAndSend( &ZDP_TransID, &dstAddr, Device_annce, len );
   \   00003A                ; Setup parameters for call to function fillAndSend
   \   00003A   75..13       MOV     ?V0,#0x13
   \   00003D   75..00       MOV     ?V1,#0x0
   \   000040   78..         MOV     R0,#?V0
   \   000042   12....       LCALL   ?PUSH_XSTACK_I_TWO
   \   000045   790B         MOV     R1,#0xb
   \   000047   02....       LJMP    ?Subroutine7 & 0xFFFF
    571          }

   \                                 In  segment BANKED_CODE, align 1, keep-with-next
   \                     ?Subroutine48:
   \   000000   90....       MOV     DPTR,#ZDP_TmpBuf
   \   000003                REQUIRE ??Subroutine111_0
   \   000003                ; // Fall through to label ??Subroutine111_0

   \                                 In  segment BANKED_CODE, align 1, keep-with-next
   \                     ??Subroutine111_0:
   \   000000   12....       LCALL   ?Subroutine85 & 0xFFFF
   \                     ??CrossCallReturnLabel_189:
   \   000003   22           RET

   \                                 In  segment BANKED_CODE, align 1, keep-with-next
   \                     ?Subroutine22:
   \   000000   12....       LCALL   ?Subroutine77 & 0xFFFF
   \                     ??CrossCallReturnLabel_123:
   \   000003   22           RET

   \                                 In  segment BANKED_CODE, align 1, keep-with-next
   \                     ?Subroutine94:
   \   000000   90....       MOV     DPTR,#ZDP_TmpBuf
   \   000003                REQUIRE ??Subroutine128_0
   \   000003                ; // Fall through to label ??Subroutine128_0
    572          
    573          /*********************************************************************
    574           * Address Responses
    575           */
    576          
    577          /*********************************************************************
    578           * @fn      zdpProcessAddrReq
    579           *
    580           * @brief   Process an incoming NWK_addr_req or IEEE_addr_req message and then
    581           *          build and send a corresponding NWK_addr_rsp or IEEE_addr_rsp msg.
    582           *
    583           * @param   inMsg - incoming message
    584           *
    585           * @return  none
    586           */

   \                                 In  segment BANKED_CODE, align 1, keep-with-next
    587          void zdpProcessAddrReq( zdoIncomingMsg_t *inMsg )
   \                     zdpProcessAddrReq:
    588          {
   \   000000                REQUIRE ?V0
   \   000000                REQUIRE ?V1
   \   000000                REQUIRE ?V2
   \   000000                REQUIRE ?V3
   \   000000                REQUIRE ?V4
   \   000000   74F3         MOV     A,#-0xd
   \   000002   12....       LCALL   ?BANKED_ENTER_XDATA
   \   000005                ; Saved register size: 13
   \   000005                ; Auto size: 0
   \   000005   8A..         MOV     ?V2,R2
   \   000007   8B..         MOV     ?V3,R3
    589            associated_devices_t *pAssoc;
    590            uint8 reqType;
    591            uint16 aoi = INVALID_NODE_ADDR;
   \   000009   7EFE         MOV     R6,#-0x2
   \   00000B   7FFF         MOV     R7,#-0x1
    592            uint8 *ieee = NULL;
   \   00000D   75..00       MOV     ?V0,#0x0
   \   000010   75..00       MOV     ?V1,#0x0
    593          
    594            reqType = inMsg->asdu[(inMsg->clusterID == NWK_addr_req) ? Z_EXTADDR_LEN : sizeof( uint16 ) ];
   \   000013   EA           MOV     A,R2
   \   000014   12....       LCALL   ?Subroutine56 & 0xFFFF
   \                     ??CrossCallReturnLabel_144:
   \   000017   7004         JNZ     ??zdpProcessAddrReq_0
   \   000019   7808         MOV     R0,#0x8
   \   00001B   8002         SJMP    ??zdpProcessAddrReq_1
   \                     ??zdpProcessAddrReq_0:
   \   00001D   7802         MOV     R0,#0x2
   \                     ??zdpProcessAddrReq_1:
   \   00001F   EA           MOV     A,R2
   \   000020   12....       LCALL   ??Subroutine100_0 & 0xFFFF
   \                     ??CrossCallReturnLabel_140:
   \   000023   E0           MOVX    A,@DPTR
   \   000024   28           ADD     A,R0
   \   000025   FA           MOV     R2,A
   \   000026   A3           INC     DPTR
   \   000027   E0           MOVX    A,@DPTR
   \   000028   3400         ADDC    A,#0x0
   \   00002A   8A82         MOV     DPL,R2
   \   00002C   F583         MOV     DPH,A
   \   00002E   E0           MOVX    A,@DPTR
   \   00002F   F5..         MOV     ?V4,A
    595          
    596            if ( inMsg->clusterID == NWK_addr_req )
   \   000031   12....       LCALL   ?Subroutine68 & 0xFFFF
   \                     ??CrossCallReturnLabel_105:
   \   000034   49           ORL     A,R1
   \   000035   7018         JNZ     ??zdpProcessAddrReq_2
    597          
    598            {
    599              ieee = inMsg->asdu;
   \   000037   12....       LCALL   ?Subroutine66 & 0xFFFF
   \                     ??CrossCallReturnLabel_141:
   \   00003A   12....       LCALL   ??Subroutine114_0 & 0xFFFF
    600          
    601              if ( osal_ExtAddrEqual( saveExtAddr, ieee ) )
   \                     ??CrossCallReturnLabel_209:
   \   00003D                ; Setup parameters for call to function sAddrExtCmp
   \   00003D   AC..         MOV     R4,?V0
   \   00003F   FD           MOV     R5,A
   \   000040   7A..         MOV     R2,#saveExtAddr & 0xff
   \   000042   7B..         MOV     R3,#(saveExtAddr >> 8) & 0xff
   \   000044   12....       LCALL   ??sAddrExtCmp?relay  ; Banked call to: sAddrExtCmp
   \   000047   E9           MOV     A,R1
   \   000048   603B         JZ      ??zdpProcessAddrReq_3
    602              {
    603                aoi = ZDAppNwkAddr.addr.shortAddr;
   \   00004A   12....       LCALL   ?Subroutine57 & 0xFFFF
    604              }
    605              // Handle response for sleeping end devices
    606              else if ( (ZSTACK_ROUTER_BUILD)
    607                && (((pAssoc = AssocGetWithExt( ieee )) != NULL)
    608                       && (pAssoc->nodeRelation == CHILD_RFD)) )
    609              {
    610                aoi = pAssoc->shortAddr;
    611                if ( reqType != ZDP_ADDR_REQTYPE_SINGLE )
    612                  reqType = 0xFF; // Force Invalid
    613              }
    614            }
   \                     ??CrossCallReturnLabel_262:
   \   00004D   8026         SJMP    ??zdpProcessAddrReq_4
    615            else  // if ( inMsg->clusterID == IEEE_addr_req )
    616            {
    617              aoi = BUILD_UINT16( inMsg->asdu[0], inMsg->asdu[1] );
   \                     ??zdpProcessAddrReq_2:
   \   00004F   12....       LCALL   ?Subroutine66 & 0xFFFF
   \                     ??CrossCallReturnLabel_142:
   \   000052   12....       LCALL   ?Subroutine49 & 0xFFFF
   \                     ??CrossCallReturnLabel_72:
   \   000055   E0           MOVX    A,@DPTR
   \   000056   FA           MOV     R2,A
   \   000057   A3           INC     DPTR
   \   000058   E0           MOVX    A,@DPTR
   \   000059   F8           MOV     R0,A
   \   00005A   E4           CLR     A
   \   00005B   C8           XCH     A,R0
   \   00005C   F9           MOV     R1,A
   \   00005D   EA           MOV     A,R2
   \   00005E   28           ADD     A,R0
   \   00005F   FE           MOV     R6,A
   \   000060   E4           CLR     A
   \   000061   39           ADDC    A,R1
   \   000062   FF           MOV     R7,A
    618          
    619              if ( aoi == ZDAppNwkAddr.addr.shortAddr )
   \   000063   90....       MOV     DPTR,#ZDAppNwkAddr
   \   000066   E0           MOVX    A,@DPTR
   \   000067   6E           XRL     A,R6
   \   000068   7003         JNZ     ??zdpProcessAddrReq_5
   \   00006A   A3           INC     DPTR
   \   00006B   E0           MOVX    A,@DPTR
   \   00006C   6F           XRL     A,R7
   \                     ??zdpProcessAddrReq_5:
   \   00006D   7016         JNZ     ??zdpProcessAddrReq_3
    620              {
    621                ieee = saveExtAddr;
   \   00006F   75....       MOV     ?V0,#saveExtAddr & 0xff
   \   000072   75....       MOV     ?V1,#(saveExtAddr >> 8) & 0xff
    622              }
    623              else if ( (ZSTACK_ROUTER_BUILD)
    624                && (((pAssoc = AssocGetWithShort( aoi )) != NULL)
    625                       && (pAssoc->nodeRelation == CHILD_RFD)) )
    626              {
    627                AddrMgrEntry_t addrEntry;
    628                addrEntry.user = ADDRMGR_USER_DEFAULT;
    629                addrEntry.index = pAssoc->addrIdx;
    630                if ( AddrMgrEntryGet( &addrEntry ) )
    631                {
    632                  ieee = addrEntry.extAddr;
    633                }
    634          
    635                if ( reqType != ZDP_ADDR_REQTYPE_SINGLE )
    636                  reqType = 0xFF; // Force Invalid
    637              }
    638            }
    639          
    640            if ( ((aoi != INVALID_NODE_ADDR) && (ieee != NULL)) || (inMsg->wasBroadcast == FALSE) )
   \                     ??zdpProcessAddrReq_4:
   \   000075   74FE         MOV     A,#-0x2
   \   000077   6E           XRL     A,R6
   \   000078   7003         JNZ     ??zdpProcessAddrReq_6
   \   00007A   74FF         MOV     A,#-0x1
   \   00007C   6F           XRL     A,R7
   \                     ??zdpProcessAddrReq_6:
   \   00007D   6006         JZ      ??zdpProcessAddrReq_3
   \   00007F   E5..         MOV     A,?V0
   \   000081   45..         ORL     A,?V1
   \   000083   7011         JNZ     ??zdpProcessAddrReq_7
   \                     ??zdpProcessAddrReq_3:
   \   000085   E5..         MOV     A,?V2
   \   000087   240B         ADD     A,#0xb
   \   000089   F582         MOV     DPL,A
   \   00008B   E4           CLR     A
   \   00008C   35..         ADDC    A,?V3
   \   00008E   F583         MOV     DPH,A
   \   000090   E0           MOVX    A,@DPTR
   \   000091   6003         JZ      $+5
   \   000093   02....       LJMP    ??zdpProcessAddrReq_8 & 0xFFFF
    641            {
    642              uint8 stat;
    643              uint8 *pBuf = ZDP_TmpBuf;
   \                     ??zdpProcessAddrReq_7:
   \   000096   12....       LCALL   ??Subroutine109_0 & 0xFFFF
    644              // Status + IEEE-Addr + Nwk-Addr.
    645              uint8 len = 1 + Z_EXTADDR_LEN + 2;
    646              
    647              // If aoi and iee are both setup, we found results
    648              if ( (aoi != INVALID_NODE_ADDR) && (ieee != NULL) )
   \                     ??CrossCallReturnLabel_174:
   \   000099   74FE         MOV     A,#-0x2
   \   00009B   6E           XRL     A,R6
   \   00009C   7003         JNZ     ??zdpProcessAddrReq_9
   \   00009E   74FF         MOV     A,#-0x1
   \   0000A0   6F           XRL     A,R7
   \                     ??zdpProcessAddrReq_9:
   \   0000A1   6018         JZ      ??zdpProcessAddrReq_10
   \   0000A3   E5..         MOV     A,?V0
   \   0000A5   45..         ORL     A,?V1
   \   0000A7   6012         JZ      ??zdpProcessAddrReq_10
    649              {
    650                stat = ((reqType == ZDP_ADDR_REQTYPE_SINGLE) || (reqType == ZDP_ADDR_REQTYPE_EXTENDED)) 
    651                              ? ZDP_SUCCESS : ZDP_INVALID_REQTYPE;
   \   0000A9   E5..         MOV     A,?V4
   \   0000AB   6006         JZ      ??zdpProcessAddrReq_11
   \   0000AD   7401         MOV     A,#0x1
   \   0000AF   65..         XRL     A,?V4
   \   0000B1   7004         JNZ     ??zdpProcessAddrReq_12
   \                     ??zdpProcessAddrReq_11:
   \   0000B3   7C00         MOV     R4,#0x0
   \   0000B5   8018         SJMP    ??zdpProcessAddrReq_13
   \                     ??zdpProcessAddrReq_12:
   \   0000B7   7C80         MOV     R4,#-0x80
   \   0000B9   8014         SJMP    ??zdpProcessAddrReq_13
    652              }
    653              else 
    654              {
    655                // not found and the req was unicast to this device
    656                stat = ZDP_DEVICE_NOT_FOUND;
   \                     ??zdpProcessAddrReq_10:
   \   0000BB   7C81         MOV     R4,#-0x7f
    657                
    658                // Fill in the missing field with this device's address
    659                if ( inMsg->clusterID == NWK_addr_req )
   \   0000BD   E5..         MOV     A,?V2
   \   0000BF   12....       LCALL   ?Subroutine56 & 0xFFFF
   \                     ??CrossCallReturnLabel_145:
   \   0000C2   7005         JNZ     ??zdpProcessAddrReq_14
    660                {
    661                  aoi = ZDAppNwkAddr.addr.shortAddr;
   \   0000C4   12....       LCALL   ?Subroutine57 & 0xFFFF
    662                }
   \                     ??CrossCallReturnLabel_263:
   \   0000C7   8006         SJMP    ??zdpProcessAddrReq_13
    663                else
    664                {
    665                  ieee = saveExtAddr;
   \                     ??zdpProcessAddrReq_14:
   \   0000C9   75....       MOV     ?V0,#saveExtAddr & 0xff
   \   0000CC   75....       MOV     ?V1,#(saveExtAddr >> 8) & 0xff
    666                }
    667              }
    668          
    669              *pBuf++ = stat;
   \                     ??zdpProcessAddrReq_13:
   \   0000CF   EC           MOV     A,R4
   \   0000D0   12....       LCALL   ??Subroutine102_0 & 0xFFFF
    670          
    671              pBuf = osal_cpyExtAddr( pBuf, ieee );
   \                     ??CrossCallReturnLabel_148:
   \   0000D3                ; Setup parameters for call to function sAddrExtCpy
   \   0000D3   AC..         MOV     R4,?V0
   \   0000D5   AD..         MOV     R5,?V1
   \   0000D7   12....       LCALL   ??sAddrExtCpy?relay  ; Banked call to: sAddrExtCpy
    672          
    673              *pBuf++ = LO_UINT16( aoi );
   \   0000DA   EE           MOV     A,R6
   \   0000DB   8A82         MOV     DPL,R2
   \   0000DD   8B83         MOV     DPH,R3
   \   0000DF   F0           MOVX    @DPTR,A
   \   0000E0   A3           INC     DPTR
    674              *pBuf++ = HI_UINT16( aoi );
   \   0000E1   EF           MOV     A,R7
   \   0000E2   F0           MOVX    @DPTR,A
    675          
    676              if ( ZSTACK_ROUTER_BUILD )
    677              {
    678                if ( (reqType == ZDP_ADDR_REQTYPE_EXTENDED) && (aoi == ZDAppNwkAddr.addr.shortAddr)
    679                     && (stat == ZDP_SUCCESS) )
    680                {
    681                  uint8  cnt = 0;
    682                  uint16 *list = AssocMakeList( &cnt );
    683          
    684                  if ( list != NULL )
    685                  {
    686                    byte idx = inMsg->asdu[(((inMsg->clusterID == NWK_addr_req) ? Z_EXTADDR_LEN : sizeof( uint16 )) + 1)];
    687                    uint16 *pList = list + idx;
    688          
    689                    // NumAssocDev field is only present on success.
    690                    if ( cnt > idx )
    691                    {
    692                      cnt -= idx;
    693                      len += (cnt * sizeof( uint16 ));
    694                    }
    695                    else
    696                    {
    697                      cnt = 0;
    698                    }
    699                    *pBuf++ = cnt;
    700                    len++;
    701          
    702                    // StartIndex field is only present if NumAssocDev field is non-zero.
    703                    *pBuf++ = idx;
    704                    len++;
    705          
    706                    while ( cnt != 0 )
    707                    {
    708                      *pBuf++ = LO_UINT16( *pList );
    709                      *pBuf++ = HI_UINT16( *pList );
    710                      pList++;
    711                      cnt--;
    712                    }
    713          
    714                    osal_mem_free( (uint8 *)list );
    715                  }
    716                  else
    717                  {
    718                    // NumAssocDev field is only present on success.
    719                    *pBuf++ = 0;
    720                    len++;
    721                  }
    722                }
    723              }
    724          
    725              ZDP_TxOptions = AF_MSG_ACK_REQUEST;
   \   0000E3   90....       MOV     DPTR,#ZDP_TxOptions
   \   0000E6   7410         MOV     A,#0x10
   \   0000E8   F0           MOVX    @DPTR,A
    726              fillAndSend( &(inMsg->TransSeq), &(inMsg->srcAddr), (cId_t)(inMsg->clusterID | ZDO_RESPONSE_BIT), len );
   \   0000E9                ; Setup parameters for call to function fillAndSend
   \   0000E9   12....       LCALL   ?Subroutine68 & 0xFFFF
   \                     ??CrossCallReturnLabel_106:
   \   0000EC   F5..         MOV     ?V0,A
   \   0000EE   A3           INC     DPTR
   \   0000EF   E0           MOVX    A,@DPTR
   \   0000F0   4480         ORL     A,#0x80
   \   0000F2   F5..         MOV     ?V1,A
   \   0000F4   78..         MOV     R0,#?V0
   \   0000F6   12....       LCALL   ?PUSH_XSTACK_I_TWO
   \   0000F9   790B         MOV     R1,#0xb
   \   0000FB   E5..         MOV     A,?V2
   \   0000FD   2402         ADD     A,#0x2
   \   0000FF   FC           MOV     R4,A
   \   000100   E4           CLR     A
   \   000101   35..         ADDC    A,?V3
   \   000103   FD           MOV     R5,A
   \   000104   E5..         MOV     A,?V2
   \   000106   240F         ADD     A,#0xf
   \   000108   FA           MOV     R2,A
   \   000109   E4           CLR     A
   \   00010A   35..         ADDC    A,?V3
   \   00010C   FB           MOV     R3,A
   \   00010D   12....       LCALL   ??fillAndSend?relay  ; Banked call to: fillAndSend
   \   000110   7402         MOV     A,#0x2
   \   000112   12....       LCALL   ?DEALLOC_XSTACK8
    727              ZDP_TxOptions = AF_TX_OPTIONS_NONE;
   \   000115   90....       MOV     DPTR,#ZDP_TxOptions
   \   000118   E4           CLR     A
   \   000119   F0           MOVX    @DPTR,A
    728            }
    729          }
   \                     ??zdpProcessAddrReq_8:
   \   00011A   02....       LJMP    ?Subroutine0 & 0xFFFF

   \                                 In  segment BANKED_CODE, align 1, keep-with-next
   \                     ?Subroutine68:
   \   000000   E5..         MOV     A,?V2
   \   000002   12....       LCALL   ?Subroutine89 & 0xFFFF
   \                     ??CrossCallReturnLabel_136:
   \   000005   E0           MOVX    A,@DPTR
   \   000006   22           RET

   \                                 In  segment BANKED_CODE, align 1, keep-with-next
   \                     ?Subroutine66:
   \   000000   E5..         MOV     A,?V2
   \   000002                REQUIRE ??Subroutine100_0
   \   000002                ; // Fall through to label ??Subroutine100_0

   \                                 In  segment BANKED_CODE, align 1, keep-with-next
   \                     ??Subroutine100_0:
   \   000000   2413         ADD     A,#0x13
   \   000002   F582         MOV     DPL,A
   \   000004   E4           CLR     A
   \   000005   35..         ADDC    A,?V3
   \   000007   F583         MOV     DPH,A
   \   000009   22           RET

   \                                 In  segment BANKED_CODE, align 1, keep-with-next
   \                     ?Subroutine56:
   \   000000   12....       LCALL   ?Subroutine89 & 0xFFFF
   \                     ??CrossCallReturnLabel_135:
   \   000003                REQUIRE ??Subroutine101_0
   \   000003                ; // Fall through to label ??Subroutine101_0

   \                                 In  segment BANKED_CODE, align 1, keep-with-next
   \                     ??Subroutine101_0:
   \   000000   12....       LCALL   ?Subroutine81 & 0xFFFF
   \                     ??CrossCallReturnLabel_280:
   \   000003   E8           MOV     A,R0
   \   000004   49           ORL     A,R1
   \   000005   22           RET

   \                                 In  segment BANKED_CODE, align 1, keep-with-next
   \                     ?Subroutine89:
   \   000000   240C         ADD     A,#0xc
   \   000002   F582         MOV     DPL,A
   \   000004   E4           CLR     A
   \   000005   35..         ADDC    A,?V3
   \   000007   F583         MOV     DPH,A
   \   000009   22           RET

   \                                 In  segment BANKED_CODE, align 1, keep-with-next
   \                     ??Subroutine102_0:
   \   000000   8A82         MOV     DPL,R2
   \   000002   8B83         MOV     DPH,R3
   \   000004                REQUIRE ??Subroutine103_0
   \   000004                ; // Fall through to label ??Subroutine103_0

   \                                 In  segment BANKED_CODE, align 1, keep-with-next
   \                     ??Subroutine103_0:
   \   000000   12....       LCALL   ?Subroutine87 & 0xFFFF
   \                     ??CrossCallReturnLabel_153:
   \   000003   22           RET

   \                                 In  segment BANKED_CODE, align 1, keep-with-next
   \                     ?Subroutine49:
   \   000000   12....       LCALL   ?Subroutine81 & 0xFFFF
   \                     ??CrossCallReturnLabel_278:
   \   000003   8882         MOV     DPL,R0
   \   000005   8983         MOV     DPH,R1
   \   000007   22           RET

   \                                 In  segment BANKED_CODE, align 1, keep-with-next
   \                     ??Subroutine109_0:
   \   000000   90....       MOV     DPTR,#ZDP_TmpBuf
   \   000003                REQUIRE ??Subroutine110_0
   \   000003                ; // Fall through to label ??Subroutine110_0

   \                                 In  segment BANKED_CODE, align 1, keep-with-next
   \                     ??Subroutine110_0:
   \   000000   E0           MOVX    A,@DPTR
   \   000001   FA           MOV     R2,A
   \   000002   A3           INC     DPTR
   \   000003   E0           MOVX    A,@DPTR
   \   000004   FB           MOV     R3,A
   \   000005   22           RET

   \                                 In  segment BANKED_CODE, align 1, keep-with-next
   \                     ?Subroutine87:
   \   000000   F0           MOVX    @DPTR,A
   \   000001   A3           INC     DPTR
   \   000002   AA82         MOV     R2,DPL
   \   000004   AB83         MOV     R3,DPH
   \   000006   22           RET

   \                                 In  segment BANKED_CODE, align 1, keep-with-next
   \                     ?Subroutine57:
   \   000000   90....       MOV     DPTR,#ZDAppNwkAddr
   \   000003                REQUIRE ??Subroutine125_0
   \   000003                ; // Fall through to label ??Subroutine125_0
    730          
    731          /*********************************************************************
    732           * @fn          ZDP_NodeDescMsg
    733           *
    734           * @brief       Builds and sends a Node Descriptor message, unicast to the
    735           *              specified device.
    736           *
    737           * @param       inMsg - incoming message
    738           * @param       nwkAddr - 16 bit network address for device
    739           * @param       pNodeDesc - pointer to the node descriptor
    740           *
    741           * @return      afStatus_t
    742           */

   \                                 In  segment BANKED_CODE, align 1, keep-with-next
    743          afStatus_t ZDP_NodeDescMsg( zdoIncomingMsg_t *inMsg,
   \                     ZDP_NodeDescMsg:
    744                                     uint16 nwkAddr, NodeDescriptorFormat_t *pNodeDesc )
    745          {
   \   000000                REQUIRE ?V0
   \   000000                REQUIRE ?V1
   \   000000   74F6         MOV     A,#-0xa
   \   000002   12....       LCALL   ?BANKED_ENTER_XDATA
   \   000005                ; Saved register size: 10
   \   000005                ; Auto size: 0
    746            uint8 *pBuf = ZDP_TmpBuf;
   \   000005   90....       MOV     DPTR,#ZDP_TmpBuf
   \   000008   12....       LCALL   ?Subroutine49 & 0xFFFF
    747            byte len;
    748          
    749            len = 1 + 2 + 13;  // Status + nwkAddr + Node descriptor
    750          
    751            *pBuf++ = ZDP_SUCCESS;
   \                     ??CrossCallReturnLabel_70:
   \   00000B   E4           CLR     A
   \   00000C   F0           MOVX    @DPTR,A
   \   00000D   A3           INC     DPTR
    752          
    753            *pBuf++ = LO_UINT16( nwkAddr );
   \   00000E   EC           MOV     A,R4
   \   00000F   F0           MOVX    @DPTR,A
   \   000010   A3           INC     DPTR
    754            *pBuf++ = HI_UINT16( nwkAddr );
   \   000011   ED           MOV     A,R5
   \   000012   12....       LCALL   ??Subroutine113_0 & 0xFFFF
   \                     ??CrossCallReturnLabel_200:
   \   000015   740A         MOV     A,#0xa
   \   000017   12....       LCALL   ?XSTACK_DISP0_8
   \   00001A   12....       LCALL   ?Subroutine61 & 0xFFFF
    755          
    756            *pBuf++ = (byte)((pNodeDesc->ComplexDescAvail << 3) |
    757                               (pNodeDesc->UserDescAvail << 4) |
    758                               (pNodeDesc->LogicalType & 0x07));
   \                     ??CrossCallReturnLabel_91:
   \   00001D   8C82         MOV     DPL,R4
   \   00001F   8D83         MOV     DPH,R5
   \   000021   E0           MOVX    A,@DPTR
   \   000022   541F         ANL     A,#0x1f
   \   000024   12....       LCALL   ?Subroutine32 & 0xFFFF
    759          
    760            *pBuf++ = (byte)((pNodeDesc->FrequencyBand << 3) | (pNodeDesc->APSFlags & 0x07));
   \                     ??CrossCallReturnLabel_42:
   \   000027   E0           MOVX    A,@DPTR
   \   000028   12....       LCALL   ?Subroutine32 & 0xFFFF
    761            *pBuf++ = pNodeDesc->CapabilityFlags;
   \                     ??CrossCallReturnLabel_43:
   \   00002B   A3           INC     DPTR
   \   00002C   12....       LCALL   ?Subroutine24 & 0xFFFF
    762            *pBuf++ = pNodeDesc->ManufacturerCode[0];
   \                     ??CrossCallReturnLabel_28:
   \   00002F   12....       LCALL   ?Subroutine24 & 0xFFFF
    763            *pBuf++ = pNodeDesc->ManufacturerCode[1];
   \                     ??CrossCallReturnLabel_29:
   \   000032   A3           INC     DPTR
   \   000033   12....       LCALL   ?Subroutine19 & 0xFFFF
    764            *pBuf++ = pNodeDesc->MaxBufferSize;
   \                     ??CrossCallReturnLabel_18:
   \   000036   12....       LCALL   ?Subroutine19 & 0xFFFF
    765            *pBuf++ = pNodeDesc->MaxInTransferSize[0];
   \                     ??CrossCallReturnLabel_19:
   \   000039   12....       LCALL   ?Subroutine16 & 0xFFFF
    766            *pBuf++ = pNodeDesc->MaxInTransferSize[1];
   \                     ??CrossCallReturnLabel_12:
   \   00003C   12....       LCALL   ?Subroutine37 & 0xFFFF
    767          
    768            *pBuf++ = LO_UINT16( pNodeDesc->ServerMask );
   \                     ??CrossCallReturnLabel_52:
   \   00003F   2408         ADD     A,#0x8
   \   000041   FE           MOV     R6,A
   \   000042   E4           CLR     A
   \   000043   3D           ADDC    A,R5
   \   000044   FF           MOV     R7,A
   \   000045   8E82         MOV     DPL,R6
   \   000047   8F83         MOV     DPH,R7
   \   000049   12....       LCALL   ??Subroutine122_0 & 0xFFFF
    769            *pBuf++ = HI_UINT16( pNodeDesc->ServerMask );
   \                     ??CrossCallReturnLabel_240:
   \   00004C   8E82         MOV     DPL,R6
   \   00004E   8F83         MOV     DPH,R7
   \   000050   12....       LCALL   ?Subroutine16 & 0xFFFF
    770            *pBuf++ = pNodeDesc->MaxOutTransferSize[0];
   \                     ??CrossCallReturnLabel_13:
   \   000053   A3           INC     DPTR
   \   000054   A3           INC     DPTR
   \   000055   A3           INC     DPTR
   \   000056   12....       LCALL   ?Subroutine37 & 0xFFFF
    771            *pBuf++ = pNodeDesc->MaxOutTransferSize[1];
   \                     ??CrossCallReturnLabel_53:
   \   000059   240B         ADD     A,#0xb
   \   00005B   F582         MOV     DPL,A
   \   00005D   E4           CLR     A
   \   00005E   3D           ADDC    A,R5
   \   00005F   F583         MOV     DPH,A
   \   000061   12....       LCALL   ?Subroutine37 & 0xFFFF
    772            *pBuf = pNodeDesc->DescriptorCapability;
   \                     ??CrossCallReturnLabel_54:
   \   000064   240C         ADD     A,#0xc
   \   000066   F582         MOV     DPL,A
   \   000068   E4           CLR     A
   \   000069   3D           ADDC    A,R5
   \   00006A   12....       LCALL   ?Subroutine82 & 0xFFFF
    773          
    774            return fillAndSend( &(inMsg->TransSeq), &(inMsg->srcAddr), Node_Desc_rsp, len );
   \                     ??CrossCallReturnLabel_138:
   \   00006D                ; Setup parameters for call to function fillAndSend
   \   00006D   75..02       MOV     ?V0,#0x2
   \   000070   75..80       MOV     ?V1,#-0x80
   \   000073   78..         MOV     R0,#?V0
   \   000075   12....       LCALL   ?PUSH_XSTACK_I_TWO
   \   000078   7910         MOV     R1,#0x10
   \   00007A   EA           MOV     A,R2
   \   00007B   2402         ADD     A,#0x2
   \   00007D   FC           MOV     R4,A
   \   00007E   E4           CLR     A
   \   00007F   3B           ADDC    A,R3
   \   000080   FD           MOV     R5,A
   \   000081   EA           MOV     A,R2
   \   000082   240F         ADD     A,#0xf
   \   000084   FA           MOV     R2,A
   \   000085   5001         JNC     ??ZDP_NodeDescMsg_0
   \   000087   0B           INC     R3
   \                     ??ZDP_NodeDescMsg_0:
   \   000088   02....       LJMP    ??Subroutine106_0 & 0xFFFF
    775          }

   \                                 In  segment BANKED_CODE, align 1, keep-with-next
   \                     ?Subroutine37:
   \   000000   12....       LCALL   ?Subroutine74 & 0xFFFF
   \                     ??CrossCallReturnLabel_247:
   \   000003   EC           MOV     A,R4
   \   000004   22           RET

   \                                 In  segment BANKED_CODE, align 1, keep-with-next
   \                     ?Subroutine32:
   \   000000   8882         MOV     DPL,R0
   \   000002   8983         MOV     DPH,R1
   \   000004   F0           MOVX    @DPTR,A
   \   000005   A3           INC     DPTR
   \   000006   08           INC     R0
   \   000007   A983         MOV     R1,DPH
   \   000009   8C82         MOV     DPL,R4
   \   00000B   8D83         MOV     DPH,R5
   \   00000D   A3           INC     DPTR
   \   00000E   22           RET

   \                                 In  segment BANKED_CODE, align 1, keep-with-next
   \                     ?Subroutine24:
   \   000000   12....       LCALL   ?Subroutine74 & 0xFFFF
   \                     ??CrossCallReturnLabel_246:
   \   000003   8C82         MOV     DPL,R4
   \   000005   8D83         MOV     DPH,R5
   \   000007   A3           INC     DPTR
   \   000008   A3           INC     DPTR
   \   000009   A3           INC     DPTR
   \   00000A   22           RET

   \                                 In  segment BANKED_CODE, align 1, keep-with-next
   \                     ?Subroutine19:
   \   000000   12....       LCALL   ?Subroutine73 & 0xFFFF
   \                     ??CrossCallReturnLabel_117:
   \   000003   22           RET

   \                                 In  segment BANKED_CODE, align 1, keep-with-next
   \                     ?Subroutine73:
   \   000000   12....       LCALL   ?Subroutine90 & 0xFFFF
   \                     ??CrossCallReturnLabel_249:
   \   000003   8C82         MOV     DPL,R4
   \   000005   8D83         MOV     DPH,R5
   \   000007   A3           INC     DPTR
   \   000008   A3           INC     DPTR
   \   000009   A3           INC     DPTR
   \   00000A   A3           INC     DPTR
   \   00000B   A3           INC     DPTR
   \   00000C   22           RET

   \                                 In  segment BANKED_CODE, align 1, keep-with-next
   \                     ?Subroutine16:
   \   000000   A3           INC     DPTR
   \   000001   12....       LCALL   ?Subroutine73 & 0xFFFF
   \                     ??CrossCallReturnLabel_118:
   \   000004   A3           INC     DPTR
   \   000005   A3           INC     DPTR
   \   000006   22           RET

   \                                 In  segment BANKED_CODE, align 1, keep-with-next
   \                     ?Subroutine61:
   \   000000   E0           MOVX    A,@DPTR
   \   000001   FC           MOV     R4,A
   \   000002   A3           INC     DPTR
   \   000003   E0           MOVX    A,@DPTR
   \   000004   FD           MOV     R5,A
   \   000005   22           RET

   \                                 In  segment BANKED_CODE, align 1, keep-with-next
   \                     ??Subroutine122_0:
   \   000000   12....       LCALL   ?Subroutine74 & 0xFFFF
   \                     ??CrossCallReturnLabel_248:
   \   000003   22           RET
    776          
    777          /*********************************************************************
    778           * @fn          ZDP_PowerDescMsg
    779           *
    780           * @brief       Builds and sends a Power Descriptor message, unicast to the
    781           *              specified device.
    782           *
    783           * @param       inMsg - incoming message (request)
    784           * @param       nwkAddr - 16 bit network address for device
    785           * @param       pPowerDesc - pointer to the node descriptor
    786           *
    787           * @return      afStatus_t
    788           */

   \                                 In  segment BANKED_CODE, align 1, keep-with-next
    789          afStatus_t ZDP_PowerDescMsg( zdoIncomingMsg_t *inMsg,
   \                     ZDP_PowerDescMsg:
    790                               uint16 nwkAddr, NodePowerDescriptorFormat_t *pPowerDesc )
    791          {
   \   000000                REQUIRE ?V0
   \   000000                REQUIRE ?V1
   \   000000   74F6         MOV     A,#-0xa
   \   000002   12....       LCALL   ?BANKED_ENTER_XDATA
   \   000005                ; Saved register size: 10
   \   000005                ; Auto size: 0
   \   000005   EA           MOV     A,R2
   \   000006   FE           MOV     R6,A
   \   000007   EB           MOV     A,R3
   \   000008   FF           MOV     R7,A
    792            uint8 *pBuf = ZDP_TmpBuf;
   \   000009   12....       LCALL   ??Subroutine109_0 & 0xFFFF
    793            byte len = 1 + 2 + 2;  // Status + nwkAddr + Node Power descriptor.
    794          
    795            *pBuf++ = ZDP_SUCCESS;
   \                     ??CrossCallReturnLabel_175:
   \   00000C   12....       LCALL   ?Subroutine25 & 0xFFFF
    796          
    797            *pBuf++ = LO_UINT16( nwkAddr );
    798            *pBuf++ = HI_UINT16( nwkAddr );
   \                     ??CrossCallReturnLabel_30:
   \   00000F   740A         MOV     A,#0xa
   \   000011   12....       LCALL   ?XSTACK_DISP0_8
   \   000014   12....       LCALL   ?Subroutine49 & 0xFFFF
    799          
    800            *pBuf++ = (byte)((pPowerDesc->AvailablePowerSources << 4)
    801                              | (pPowerDesc->PowerMode & 0x0F));
   \                     ??CrossCallReturnLabel_71:
   \   000017   12....       LCALL   ?Subroutine28 & 0xFFFF
    802            *pBuf++ = (byte)((pPowerDesc->CurrentPowerSourceLevel << 4)
    803                              | (pPowerDesc->CurrentPowerSource & 0x0F));
   \                     ??CrossCallReturnLabel_156:
   \   00001A   8882         MOV     DPL,R0
   \   00001C   8983         MOV     DPH,R1
   \   00001E   12....       LCALL   ??Subroutine114_0 & 0xFFFF
   \                     ??CrossCallReturnLabel_210:
   \   000021   540F         ANL     A,#0xf
   \   000023   F9           MOV     R1,A
   \   000024   740C         MOV     A,#0xc
   \   000026   78..         MOV     R0,#?V0
   \   000028   12....       LCALL   ?US_SHR
   \   00002B   E5..         MOV     A,?V0
   \   00002D   C4           SWAP    A
   \   00002E   49           ORL     A,R1
   \   00002F   8A82         MOV     DPL,R2
   \   000031   8B83         MOV     DPH,R3
   \   000033   F0           MOVX    @DPTR,A
    804          
    805            return fillAndSend( &(inMsg->TransSeq), &(inMsg->srcAddr), Power_Desc_rsp, len );
   \   000034                ; Setup parameters for call to function fillAndSend
   \   000034   75..03       MOV     ?V0,#0x3
   \   000037   75..80       MOV     ?V1,#-0x80
   \   00003A   78..         MOV     R0,#?V0
   \   00003C   12....       LCALL   ?PUSH_XSTACK_I_TWO
   \   00003F   7905         MOV     R1,#0x5
   \   000041   12....       LCALL   ?Subroutine67 & 0xFFFF
   \                     ??CrossCallReturnLabel_103:
   \   000044   80..         SJMP    ??Subroutine106_0
    806          }

   \                                 In  segment BANKED_CODE, align 1, keep-with-next
   \                     ?Subroutine28:
   \   000000   E0           MOVX    A,@DPTR
   \   000001                REQUIRE ??Subroutine104_0
   \   000001                ; // Fall through to label ??Subroutine104_0

   \                                 In  segment BANKED_CODE, align 1, keep-with-next
   \                     ??Subroutine104_0:
   \   000000   8A82         MOV     DPL,R2
   \   000002   8B83         MOV     DPH,R3
   \   000004   F0           MOVX    @DPTR,A
   \   000005   A3           INC     DPTR
   \   000006   0A           INC     R2
   \   000007   AB83         MOV     R3,DPH
   \   000009   22           RET

   \                                 In  segment BANKED_CODE, align 1, keep-with-next
   \                     ?Subroutine67:
   \   000000   EE           MOV     A,R6
   \   000001   2402         ADD     A,#0x2
   \   000003   FC           MOV     R4,A
   \   000004   E4           CLR     A
   \   000005   3F           ADDC    A,R7
   \   000006   FD           MOV     R5,A
   \   000007   EE           MOV     A,R6
   \   000008   240F         ADD     A,#0xf
   \   00000A   FA           MOV     R2,A
   \   00000B   E4           CLR     A
   \   00000C   3F           ADDC    A,R7
   \   00000D   FB           MOV     R3,A
   \   00000E   22           RET

   \                                 In  segment BANKED_CODE, align 1, keep-with-next
   \                     ?Subroutine25:
   \   000000   8A82         MOV     DPL,R2
   \   000002   8B83         MOV     DPH,R3
   \   000004   E4           CLR     A
   \   000005   F0           MOVX    @DPTR,A
   \   000006   A3           INC     DPTR
   \   000007   EC           MOV     A,R4
   \   000008   F0           MOVX    @DPTR,A
   \   000009   A3           INC     DPTR
   \   00000A   ED           MOV     A,R5
   \   00000B   12....       LCALL   ?Subroutine87 & 0xFFFF
   \                     ??CrossCallReturnLabel_151:
   \   00000E   22           RET
    807          
    808          /*********************************************************************
    809           * @fn          ZDP_SimpleDescMsg
    810           *
    811           * @brief       Builds and sends a Simple Descriptor message, unicast to the
    812           *              specified device.
    813           *
    814           * @param       inMsg - incoming message (request)
    815           * @param       Status - message status (ZDP_SUCCESS or other)
    816           * @param       pSimpleDesc - pointer to the node descriptor
    817           *
    818           * @return      afStatus_t
    819           */

   \                                 In  segment BANKED_CODE, align 1, keep-with-next
   \                     ?Subroutine46:
   \   000000   E0           MOVX    A,@DPTR
   \   000001                REQUIRE ??Subroutine102_0
   \   000001                ; // Fall through to label ??Subroutine102_0

   \                                 In  segment BANKED_CODE, align 1, keep-with-next
    820          afStatus_t ZDP_SimpleDescMsg( zdoIncomingMsg_t *inMsg, byte Status,
   \                     ZDP_SimpleDescMsg:
    821                                        SimpleDescriptionFormat_t *pSimpleDesc )
    822          {
   \   000000                REQUIRE ?V0
   \   000000                REQUIRE ?V1
   \   000000                REQUIRE ?V2
   \   000000                REQUIRE ?V3
   \   000000                REQUIRE ?V4
   \   000000                REQUIRE ?V5
   \   000000                REQUIRE ?V6
   \   000000   74F1         MOV     A,#-0xf
   \   000002   12....       LCALL   ?BANKED_ENTER_XDATA
   \   000005                ; Saved register size: 15
   \   000005                ; Auto size: 0
   \   000005   EA           MOV     A,R2
   \   000006   FE           MOV     R6,A
   \   000007   EB           MOV     A,R3
   \   000008   FF           MOV     R7,A
   \   000009   89..         MOV     ?V6,R1
    823            uint8 *pBuf = ZDP_TmpBuf;
   \   00000B   12....       LCALL   ??Subroutine109_0 & 0xFFFF
    824            uint8 i, len;
    825          
    826            if ( Status == ZDP_SUCCESS && pSimpleDesc )
   \                     ??CrossCallReturnLabel_176:
   \   00000E   E9           MOV     A,R1
   \   00000F   702E         JNZ     ??ZDP_SimpleDescMsg_0
   \   000011   EC           MOV     A,R4
   \   000012   4D           ORL     A,R5
   \   000013   602A         JZ      ??ZDP_SimpleDescMsg_0
    827            {
    828              // Status + NWKAddrOfInterest + desc length + empty simple descriptor.
    829              len = 1 + 2 + 1 + 8;
    830              len += (pSimpleDesc->AppNumInClusters + pSimpleDesc->AppNumOutClusters) * sizeof ( uint16 );
   \   000015   8C82         MOV     DPL,R4
   \   000017   8D83         MOV     DPH,R5
   \   000019   A3           INC     DPTR
   \   00001A   A3           INC     DPTR
   \   00001B   A3           INC     DPTR
   \   00001C   A3           INC     DPTR
   \   00001D   A3           INC     DPTR
   \   00001E   A3           INC     DPTR
   \   00001F   A3           INC     DPTR
   \   000020   A3           INC     DPTR
   \   000021   A3           INC     DPTR
   \   000022   E0           MOVX    A,@DPTR
   \   000023   F8           MOV     R0,A
   \   000024   8C82         MOV     DPL,R4
   \   000026   8D83         MOV     DPH,R5
   \   000028   A3           INC     DPTR
   \   000029   A3           INC     DPTR
   \   00002A   A3           INC     DPTR
   \   00002B   A3           INC     DPTR
   \   00002C   A3           INC     DPTR
   \   00002D   A3           INC     DPTR
   \   00002E   E0           MOVX    A,@DPTR
   \   00002F   28           ADD     A,R0
   \   000030   C3           CLR     C
   \   000031   33           RLC     A
   \   000032   240C         ADD     A,#0xc
   \   000034   F9           MOV     R1,A
    831            }
    832            else
    833            {
    834              len = 1 + 2 + 1; // Status + desc length
    835            }
    836            if ( len >= ZDP_BUF_SZ-1 )
   \   000035   C3           CLR     C
   \   000036   944F         SUBB    A,#0x4f
   \   000038   4007         JC      ??ZDP_SimpleDescMsg_1
    837            {
    838              return afStatus_MEM_FAIL;
   \   00003A   7910         MOV     R1,#0x10
   \   00003C   02....       LJMP    ??ZDP_SimpleDescMsg_2 & 0xFFFF
    839            }
   \                     ??ZDP_SimpleDescMsg_0:
   \   00003F   7904         MOV     R1,#0x4
    840          
    841            *pBuf++ = Status;
   \                     ??ZDP_SimpleDescMsg_1:
   \   000041   8A82         MOV     DPL,R2
   \   000043   8B83         MOV     DPH,R3
   \   000045   E5..         MOV     A,?V6
   \   000047   12....       LCALL   ??Subroutine103_0 & 0xFFFF
    842          
    843            *pBuf++ = LO_UINT16( ZDAppNwkAddr.addr.shortAddr );
   \                     ??CrossCallReturnLabel_146:
   \   00004A   90....       MOV     DPTR,#ZDAppNwkAddr
   \   00004D   12....       LCALL   ?Subroutine28 & 0xFFFF
    844            *pBuf++ = HI_UINT16( ZDAppNwkAddr.addr.shortAddr );
   \                     ??CrossCallReturnLabel_157:
   \   000050   90....       MOV     DPTR,#ZDAppNwkAddr + 1
   \   000053   12....       LCALL   ?Subroutine51 & 0xFFFF
    845          
    846            if ( len > 4 )
   \                     ??CrossCallReturnLabel_77:
   \   000056   E9           MOV     A,R1
   \   000057   C3           CLR     C
   \   000058   9405         SUBB    A,#0x5
   \   00005A   5003         JNC     $+5
   \   00005C   02....       LJMP    ??ZDP_SimpleDescMsg_3 & 0xFFFF
    847            {
    848              *pBuf++ = len - 4;   // Simple descriptor length
   \   00005F   74FC         MOV     A,#-0x4
   \   000061   29           ADD     A,R1
   \   000062   12....       LCALL   ?Subroutine39 & 0xFFFF
    849          
    850              *pBuf++ = pSimpleDesc->EndPoint;
   \                     ??CrossCallReturnLabel_55:
   \   000065   8C82         MOV     DPL,R4
   \   000067   8D83         MOV     DPH,R5
   \   000069   12....       LCALL   ?Subroutine28 & 0xFFFF
    851              *pBuf++ = LO_UINT16( pSimpleDesc->AppProfId );
   \                     ??CrossCallReturnLabel_158:
   \   00006C   8C82         MOV     DPL,R4
   \   00006E   8D83         MOV     DPH,R5
   \   000070   A3           INC     DPTR
   \   000071   8582..       MOV     ?V0,DPL
   \   000074   8583..       MOV     ?V1,DPH
   \   000077   12....       LCALL   ?Subroutine11 & 0xFFFF
    852              *pBuf++ = HI_UINT16( pSimpleDesc->AppProfId );
    853              *pBuf++ = LO_UINT16( pSimpleDesc->AppDeviceId );
   \                     ??CrossCallReturnLabel_4:
   \   00007A   EC           MOV     A,R4
   \   00007B   2403         ADD     A,#0x3
   \   00007D   12....       LCALL   ?Subroutine71 & 0xFFFF
   \                     ??CrossCallReturnLabel_111:
   \   000080   12....       LCALL   ?Subroutine11 & 0xFFFF
    854              *pBuf++ = HI_UINT16( pSimpleDesc->AppDeviceId );
    855          
    856              *pBuf++ = (byte)(pSimpleDesc->AppDevVer << 4);
   \                     ??CrossCallReturnLabel_5:
   \   000083   8C82         MOV     DPL,R4
   \   000085   8D83         MOV     DPH,R5
   \   000087   A3           INC     DPTR
   \   000088   A3           INC     DPTR
   \   000089   A3           INC     DPTR
   \   00008A   A3           INC     DPTR
   \   00008B   A3           INC     DPTR
   \   00008C   E0           MOVX    A,@DPTR
   \   00008D   C4           SWAP    A
   \   00008E   54F0         ANL     A,#0xf0
   \   000090   12....       LCALL   ??Subroutine104_0 & 0xFFFF
    857          
    858              *pBuf++ = pSimpleDesc->AppNumInClusters;
   \                     ??CrossCallReturnLabel_154:
   \   000093   EC           MOV     A,R4
   \   000094   2406         ADD     A,#0x6
   \   000096   12....       LCALL   ?Subroutine71 & 0xFFFF
   \                     ??CrossCallReturnLabel_112:
   \   000099   12....       LCALL   ?Subroutine27 & 0xFFFF
    859              if ( pSimpleDesc->AppNumInClusters )
   \                     ??CrossCallReturnLabel_34:
   \   00009C   E0           MOVX    A,@DPTR
   \   00009D   601F         JZ      ??ZDP_SimpleDescMsg_4
    860              {
    861                for (i=0; i<pSimpleDesc->AppNumInClusters; ++i)
   \   00009F   7800         MOV     R0,#0x0
   \   0000A1   8008         SJMP    ??CrossCallReturnLabel_0
    862                {
    863                  *pBuf++ = LO_UINT16( pSimpleDesc->pAppInClusterList[i] );
   \                     ??ZDP_SimpleDescMsg_5:
   \   0000A3   12....       LCALL   ?Subroutine69 & 0xFFFF
    864                  *pBuf++ = HI_UINT16( pSimpleDesc->pAppInClusterList[i] );
    865                }
   \                     ??CrossCallReturnLabel_107:
   \   0000A6   2407         ADD     A,#0x7
   \   0000A8   12....       LCALL   ?Subroutine9 & 0xFFFF
   \                     ??CrossCallReturnLabel_0:
   \   0000AB   8C82         MOV     DPL,R4
   \   0000AD   8D83         MOV     DPH,R5
   \   0000AF   A3           INC     DPTR
   \   0000B0   A3           INC     DPTR
   \   0000B1   A3           INC     DPTR
   \   0000B2   A3           INC     DPTR
   \   0000B3   A3           INC     DPTR
   \   0000B4   A3           INC     DPTR
   \   0000B5   E0           MOVX    A,@DPTR
   \   0000B6   F5..         MOV     ?V0,A
   \   0000B8   E8           MOV     A,R0
   \   0000B9   C3           CLR     C
   \   0000BA   95..         SUBB    A,?V0
   \   0000BC   40E5         JC      ??ZDP_SimpleDescMsg_5
    866              }
    867          
    868              *pBuf++ = pSimpleDesc->AppNumOutClusters;
   \                     ??ZDP_SimpleDescMsg_4:
   \   0000BE   EC           MOV     A,R4
   \   0000BF   2409         ADD     A,#0x9
   \   0000C1   12....       LCALL   ?Subroutine71 & 0xFFFF
   \                     ??CrossCallReturnLabel_113:
   \   0000C4   12....       LCALL   ?Subroutine46 & 0xFFFF
    869              if ( pSimpleDesc->AppNumOutClusters )
   \                     ??CrossCallReturnLabel_149:
   \   0000C7   85..82       MOV     DPL,?V0
   \   0000CA   85..83       MOV     DPH,?V1
   \   0000CD   E0           MOVX    A,@DPTR
   \   0000CE   6024         JZ      ??ZDP_SimpleDescMsg_6
    870              {
    871                for (i=0; i<pSimpleDesc->AppNumOutClusters; ++i)
   \   0000D0   7800         MOV     R0,#0x0
   \                     ??ZDP_SimpleDescMsg_7:
   \   0000D2   8C82         MOV     DPL,R4
   \   0000D4   8D83         MOV     DPH,R5
   \   0000D6   A3           INC     DPTR
   \   0000D7   A3           INC     DPTR
   \   0000D8   A3           INC     DPTR
   \   0000D9   A3           INC     DPTR
   \   0000DA   A3           INC     DPTR
   \   0000DB   A3           INC     DPTR
   \   0000DC   A3           INC     DPTR
   \   0000DD   A3           INC     DPTR
   \   0000DE   A3           INC     DPTR
   \   0000DF   E0           MOVX    A,@DPTR
   \   0000E0   F5..         MOV     ?V0,A
   \   0000E2   E8           MOV     A,R0
   \   0000E3   C3           CLR     C
   \   0000E4   95..         SUBB    A,?V0
   \   0000E6   500C         JNC     ??ZDP_SimpleDescMsg_6
    872                {
    873                  *pBuf++ = LO_UINT16( pSimpleDesc->pAppOutClusterList[i] );
   \   0000E8   12....       LCALL   ?Subroutine69 & 0xFFFF
    874                  *pBuf++ = HI_UINT16( pSimpleDesc->pAppOutClusterList[i] );
    875                }
    876              }
    877            }
   \                     ??CrossCallReturnLabel_108:
   \   0000EB   240A         ADD     A,#0xa
   \   0000ED   12....       LCALL   ?Subroutine9 & 0xFFFF
   \                     ??CrossCallReturnLabel_1:
   \   0000F0   80E0         SJMP    ??ZDP_SimpleDescMsg_7
    878          
    879            else
    880            {
    881              *pBuf = 0; // Description Length = 0;
   \                     ??ZDP_SimpleDescMsg_3:
   \   0000F2   E4           CLR     A
   \   0000F3   F0           MOVX    @DPTR,A
    882            }
    883          
    884            return fillAndSend( &(inMsg->TransSeq), &(inMsg->srcAddr), Simple_Desc_rsp, len );
   \                     ??ZDP_SimpleDescMsg_6:
   \   0000F4                ; Setup parameters for call to function fillAndSend
   \   0000F4   75..04       MOV     ?V0,#0x4
   \   0000F7   75..80       MOV     ?V1,#-0x80
   \   0000FA   78..         MOV     R0,#?V0
   \   0000FC   12....       LCALL   ?PUSH_XSTACK_I_TWO
   \   0000FF   12....       LCALL   ?Subroutine67 & 0xFFFF
   \                     ??CrossCallReturnLabel_104:
   \   000102   12....       LCALL   ??fillAndSend?relay  ; Banked call to: fillAndSend
   \   000105   7402         MOV     A,#0x2
   \   000107   12....       LCALL   ?DEALLOC_XSTACK8
   \                     ??ZDP_SimpleDescMsg_2:
   \   00010A   02....       LJMP    ?Subroutine4 & 0xFFFF
    885          }

   \                                 In  segment BANKED_CODE, align 1, keep-with-next
   \                     ?Subroutine71:
   \   000000   F5..         MOV     ?V0,A
   \   000002   E4           CLR     A
   \   000003   3D           ADDC    A,R5
   \   000004   F5..         MOV     ?V1,A
   \   000006   85..82       MOV     DPL,?V0
   \   000009   F583         MOV     DPH,A
   \   00000B   22           RET

   \                                 In  segment BANKED_CODE, align 1, keep-with-next
   \                     ?Subroutine69:
   \   000000   E8           MOV     A,R0
   \   000001   25E0         ADD     A,0xE0 /* A   */
   \   000003   F5..         MOV     ?V0,A
   \   000005   E4           CLR     A
   \   000006   33           RLC     A
   \   000007   F5..         MOV     ?V1,A
   \   000009   EC           MOV     A,R4
   \   00000A   22           RET

   \                                 In  segment BANKED_CODE, align 1, keep-with-next
   \                     ?Subroutine11:
   \   000000   12....       LCALL   ?Subroutine75 & 0xFFFF
   \                     ??CrossCallReturnLabel_119:
   \   000003   12....       LCALL   ?Subroutine76 & 0xFFFF
   \                     ??CrossCallReturnLabel_163:
   \   000006   22           RET

   \                                 In  segment BANKED_CODE, align 1, keep-with-next
   \                     ?Subroutine76:
   \   000000   A3           INC     DPTR
   \   000001                REQUIRE ??Subroutine108_0
   \   000001                ; // Fall through to label ??Subroutine108_0

   \                                 In  segment BANKED_CODE, align 1, keep-with-next
   \                     ??Subroutine108_0:
   \   000000   12....       LCALL   ?Subroutine91 & 0xFFFF
   \                     ??CrossCallReturnLabel_165:
   \   000003   22           RET

   \                                 In  segment BANKED_CODE, align 1, keep-with-next
   \                     ?Subroutine91:
   \   000000   12....       LCALL   ?Subroutine93 & 0xFFFF
   \                     ??CrossCallReturnLabel_169:
   \   000003   F0           MOVX    @DPTR,A
   \   000004   A3           INC     DPTR
   \   000005   0A           INC     R2
   \   000006   AB83         MOV     R3,DPH
   \   000008   22           RET

   \                                 In  segment BANKED_CODE, align 1, keep-with-next
   \                     ?Subroutine9:
   \   000000   F5..         MOV     ?V4,A
   \   000002   E4           CLR     A
   \   000003   3D           ADDC    A,R5
   \   000004   F5..         MOV     ?V5,A
   \   000006   85..82       MOV     DPL,?V4
   \   000009   F583         MOV     DPH,A
   \   00000B   12....       LCALL   ?Subroutine78 & 0xFFFF
   \                     ??CrossCallReturnLabel_124:
   \   00000E   12....       LCALL   ?Subroutine79 & 0xFFFF
   \                     ??CrossCallReturnLabel_126:
   \   000011   AA82         MOV     R2,DPL
   \   000013   AB83         MOV     R3,DPH
   \   000015   85..82       MOV     DPL,?V4
   \   000018   85..83       MOV     DPH,?V5
   \   00001B   12....       LCALL   ?Subroutine78 & 0xFFFF
   \                     ??CrossCallReturnLabel_125:
   \   00001E   12....       LCALL   ?Subroutine76 & 0xFFFF
   \                     ??CrossCallReturnLabel_162:
   \   000021   08           INC     R0
   \   000022   22           RET

   \                                 In  segment BANKED_CODE, align 1, keep-with-next
   \                     ?Subroutine78:
   \   000000   E0           MOVX    A,@DPTR
   \   000001   25..         ADD     A,?V0
   \   000003   F5..         MOV     ?V2,A
   \   000005   A3           INC     DPTR
   \   000006   E0           MOVX    A,@DPTR
   \   000007   35..         ADDC    A,?V1
   \   000009   85..82       MOV     DPL,?V2
   \   00000C   F583         MOV     DPH,A
   \   00000E   22           RET

   \                                 In  segment BANKED_CODE, align 1, keep-with-next
   \                     ?Subroutine93:
   \   000000   E0           MOVX    A,@DPTR
   \   000001   8A82         MOV     DPL,R2
   \   000003   8B83         MOV     DPH,R3
   \   000005   22           RET

   \                                 In  segment BANKED_CODE, align 1, keep-with-next
   \                     ?Subroutine27:
   \   000000   12....       LCALL   ?Subroutine75 & 0xFFFF
   \                     ??CrossCallReturnLabel_120:
   \   000003   22           RET

   \                                 In  segment BANKED_CODE, align 1, keep-with-next
   \                     ?Subroutine75:
   \   000000   12....       LCALL   ?Subroutine91 & 0xFFFF
   \                     ??CrossCallReturnLabel_164:
   \   000003   85..82       MOV     DPL,?V0
   \   000006   85..83       MOV     DPH,?V1
   \   000009   22           RET

   \                                 In  segment BANKED_CODE, align 1, keep-with-next
   \                     ?Subroutine51:
   \   000000   12....       LCALL   ?Subroutine79 & 0xFFFF
   \                     ??CrossCallReturnLabel_128:
   \   000003   22           RET

   \                                 In  segment BANKED_CODE, align 1, keep-with-next
   \                     ?Subroutine79:
   \   000000   12....       LCALL   ?Subroutine93 & 0xFFFF
   \                     ??CrossCallReturnLabel_168:
   \   000003   F0           MOVX    @DPTR,A
   \   000004   A3           INC     DPTR
   \   000005   22           RET

   \                                 In  segment BANKED_CODE, align 1, keep-with-next
   \                     ?Subroutine39:
   \   000000   F0           MOVX    @DPTR,A
   \   000001   A3           INC     DPTR
   \   000002   0A           INC     R2
   \   000003   0A           INC     R2
   \   000004   AB83         MOV     R3,DPH
   \   000006   22           RET
    886          
    887          /*********************************************************************
    888           * @fn          ZDP_EPRsp
    889           *
    890           * @brief       This builds and send an endpoint list. Used in
    891           *              Active_EP_rsp and Match_Desc_Rsp
    892           *              message.  This function sends unicast message to the
    893           *              requesting device.
    894           *
    895           * @param       MsgType - either Active_EP_rsp or Match_Desc_Rsp
    896           * @param       dstAddr - destination address
    897           * @param       Status - message status (ZDP_SUCCESS or other)
    898           * @param       nwkAddr - Device's short address that this response describes
    899           * @param       Count - number of endpoint/interfaces in list
    900           * @param       pEPIntfList - Array of Endpoint/Interfaces
    901           * @param       SecurityEnable - Security Options
    902           *
    903           * @return      afStatus_t
    904           */

   \                                 In  segment BANKED_CODE, align 1, keep-with-next
    905          afStatus_t ZDP_EPRsp( uint16 MsgType, byte TransSeq, zAddrType_t *dstAddr,
   \                     ZDP_EPRsp:
    906                                  byte Status, uint16 nwkAddr, byte Count,
    907                                  uint8 *pEPList,
    908                                  byte SecurityEnable )
    909          {
   \   000000                REQUIRE ?V0
   \   000000                REQUIRE ?V1
   \   000000                REQUIRE ?V2
   \   000000                REQUIRE ?V3
   \   000000                REQUIRE ?V4
   \   000000                REQUIRE ?V6
   \   000000                REQUIRE ?V7
   \   000000   74F0         MOV     A,#-0x10
   \   000002   12....       LCALL   ?BANKED_ENTER_XDATA
   \   000005                ; Saved register size: 16
   \   000005                ; Auto size: 1
   \   000005   74FF         MOV     A,#-0x1
   \   000007   12....       LCALL   ?ALLOC_XSTACK8
   \   00000A   E9           MOV     A,R1
   \   00000B   85..82       MOV     DPL,?XSP + 0
   \   00000E   85..83       MOV     DPH,?XSP + 1
   \   000011   F0           MOVX    @DPTR,A
   \   000012   EA           MOV     A,R2
   \   000013   FE           MOV     R6,A
   \   000014   EB           MOV     A,R3
   \   000015   FF           MOV     R7,A
   \   000016   8C..         MOV     ?V6,R4
   \   000018   8D..         MOV     ?V7,R5
    910            uint8 *pBuf = ZDP_TmpBuf;
   \   00001A   12....       LCALL   ??Subroutine109_0 & 0xFFFF
    911            byte len = 1 + 2 + 1;  // Status + nwkAddr + endpoint/interface count.
   \                     ??CrossCallReturnLabel_177:
   \   00001D   75..04       MOV     ?V4,#0x4
    912            byte txOptions;
    913          
    914            (void)SecurityEnable;  // Intentionally unreferenced parameter
    915          
    916            if ( MsgType == Match_Desc_rsp )
   \   000020   7406         MOV     A,#0x6
   \   000022   6E           XRL     A,R6
   \   000023   7003         JNZ     ??ZDP_EPRsp_0
   \   000025   7480         MOV     A,#-0x80
   \   000027   6F           XRL     A,R7
   \                     ??ZDP_EPRsp_0:
   \   000028   7005         JNZ     ??ZDP_EPRsp_1
    917              txOptions = AF_MSG_ACK_REQUEST;
   \   00002A   75..10       MOV     ?V3,#0x10
   \   00002D   8003         SJMP    ??ZDP_EPRsp_2
    918            else
    919              txOptions = 0;
   \                     ??ZDP_EPRsp_1:
   \   00002F   75..00       MOV     ?V3,#0x0
    920          
    921              *pBuf++ = Status;
   \                     ??ZDP_EPRsp_2:
   \   000032   7411         MOV     A,#0x11
   \   000034   12....       LCALL   ?XSTACK_DISP0_8
   \   000037   12....       LCALL   ?Subroutine93 & 0xFFFF
   \                     ??CrossCallReturnLabel_166:
   \   00003A   12....       LCALL   ?Subroutine45 & 0xFFFF
   \                     ??CrossCallReturnLabel_64:
   \   00003D   12....       LCALL   ?XSTACK_DISP0_8
   \   000040   12....       LCALL   ?Subroutine34 & 0xFFFF
    922            *pBuf++ = LO_UINT16( nwkAddr );
    923            *pBuf++ = HI_UINT16( nwkAddr );
   \                     ??CrossCallReturnLabel_46:
   \   000043   7414         MOV     A,#0x14
   \   000045   12....       LCALL   ?XSTACK_DISP0_8
   \   000048   E0           MOVX    A,@DPTR
   \   000049   F9           MOV     R1,A
    924          
    925            *pBuf++ = Count;   // Endpoint/Interface count
   \   00004A   12....       LCALL   ??Subroutine104_0 & 0xFFFF
    926          
    927            if ( Count )
   \                     ??CrossCallReturnLabel_155:
   \   00004D   601E         JZ      ??ZDP_EPRsp_3
    928            {
    929              len += Count;
   \   00004F   7404         MOV     A,#0x4
   \   000051   29           ADD     A,R1
   \   000052   F5..         MOV     ?V4,A
    930              osal_memcpy( pBuf, pEPList, Count );
   \   000054                ; Setup parameters for call to function osal_memcpy
   \   000054   7415         MOV     A,#0x15
   \   000056   12....       LCALL   ?XSTACK_DISP0_8
   \   000059   12....       LCALL   ?Subroutine52 & 0xFFFF
    931            }
   \                     ??CrossCallReturnLabel_81:
   \   00005C   12....       LCALL   ?PUSH_XSTACK_I_THREE
   \   00005F   89..         MOV     ?V0,R1
   \   000061   AC..         MOV     R4,?V0
   \   000063   7D00         MOV     R5,#0x0
   \   000065   12....       LCALL   ??osal_memcpy?relay  ; Banked call to: osal_memcpy
   \   000068   7403         MOV     A,#0x3
   \   00006A   12....       LCALL   ?DEALLOC_XSTACK8
    932          
    933            FillAndSendTxOptions( &TransSeq, dstAddr, MsgType, len, txOptions );
   \                     ??ZDP_EPRsp_3:
   \   00006D   E5..         MOV     A,?V3
   \   00006F   90....       MOV     DPTR,#ZDP_TxOptions
   \   000072   F0           MOVX    @DPTR,A
   \   000073                ; Setup parameters for call to function fillAndSend
   \   000073   8E..         MOV     ?V0,R6
   \   000075   8F..         MOV     ?V1,R7
   \   000077   78..         MOV     R0,#?V0
   \   000079   12....       LCALL   ?PUSH_XSTACK_I_TWO
   \   00007C   A9..         MOV     R1,?V4
   \   00007E   AC..         MOV     R4,?V6
   \   000080   AD..         MOV     R5,?V7
   \   000082   7402         MOV     A,#0x2
   \   000084   12....       LCALL   ?XSTACK_DISP101_8
   \   000087   12....       LCALL   ??fillAndSend?relay  ; Banked call to: fillAndSend
   \   00008A   7402         MOV     A,#0x2
   \   00008C   12....       LCALL   ?DEALLOC_XSTACK8
   \   00008F   90....       MOV     DPTR,#ZDP_TxOptions
   \   000092   E4           CLR     A
   \   000093   F0           MOVX    @DPTR,A
   \   000094   04           INC     A
   \   000095   02....       LJMP    ??Subroutine120_0 & 0xFFFF
    934          }

   \                                 In  segment BANKED_CODE, align 1, keep-with-next
   \                     ?Subroutine45:
   \   000000   12....       LCALL   ?Subroutine87 & 0xFFFF
   \                     ??CrossCallReturnLabel_152:
   \   000003   7412         MOV     A,#0x12
   \   000005   22           RET

   \                                 In  segment BANKED_CODE, align 1, keep-with-next
   \                     ?Subroutine34:
   \   000000   12....       LCALL   ?Subroutine80 & 0xFFFF
   \                     ??CrossCallReturnLabel_129:
   \   000003   F0           MOVX    @DPTR,A
   \   000004   A3           INC     DPTR
   \   000005   E9           MOV     A,R1
   \   000006   F0           MOVX    @DPTR,A
   \   000007   A3           INC     DPTR
   \   000008   0A           INC     R2
   \   000009   0A           INC     R2
   \   00000A   AB83         MOV     R3,DPH
   \   00000C   22           RET

   \                                 In  segment BANKED_CODE, align 1, keep-with-next
   \                     ??Subroutine120_0:
   \   000000   12....       LCALL   ?DEALLOC_XSTACK8
   \   000003                REQUIRE ??Subroutine121_0
   \   000003                ; // Fall through to label ??Subroutine121_0

   \                                 In  segment BANKED_CODE, align 1, keep-with-next
   \                     ??Subroutine121_0:
   \   000000   7F08         MOV     R7,#0x8
   \   000002   02....       LJMP    ?BANKED_LEAVE_XDATA

   \                                 In  segment BANKED_CODE, align 1, keep-with-next
   \                     ?Subroutine80:
   \   000000   12....       LCALL   ??Subroutine128_0 & 0xFFFF
   \                     ??CrossCallReturnLabel_283:
   \   000003   F9           MOV     R1,A
   \   000004   E8           MOV     A,R0
   \   000005   8A82         MOV     DPL,R2
   \   000007   8B83         MOV     DPH,R3
   \   000009   22           RET

   \                                 In  segment BANKED_CODE, align 1, keep-with-next
   \                     ?Subroutine52:
   \   000000   E0           MOVX    A,@DPTR
   \   000001   F5..         MOV     ?V0,A
   \   000003   A3           INC     DPTR
   \   000004   E0           MOVX    A,@DPTR
   \   000005   F5..         MOV     ?V1,A
   \   000007   75..00       MOV     ?V2,#0x0
   \   00000A   78..         MOV     R0,#?V0
   \   00000C   22           RET
    935          
    936          /*********************************************************************
    937           * @fn          ZDP_UserDescRsp
    938           *
    939           * @brief       Build and send the User Decriptor Response.
    940           *
    941           *
    942           * @param       dstAddr - destination address
    943           * @param       nwkAddrOfInterest -
    944           * @param       userDesc -
    945           * @param       SecurityEnable - Security Options
    946           *
    947           * @return      ZStatus_t
    948           */

   \                                 In  segment BANKED_CODE, align 1, keep-with-next
    949          ZStatus_t ZDP_UserDescRsp( byte TransSeq, zAddrType_t *dstAddr,
   \                     ZDP_UserDescRsp:
    950                          uint16 nwkAddrOfInterest, UserDescriptorFormat_t *userDesc,
    951                          byte SecurityEnable )
    952          {
   \   000000                REQUIRE ?V0
   \   000000                REQUIRE ?V1
   \   000000                REQUIRE ?V2
   \   000000                REQUIRE ?V4
   \   000000                REQUIRE ?V5
   \   000000                REQUIRE ?V6
   \   000000                REQUIRE ?V7
   \   000000   74F0         MOV     A,#-0x10
   \   000002   12....       LCALL   ?BANKED_ENTER_XDATA
   \   000005                ; Saved register size: 16
   \   000005                ; Auto size: 1
   \   000005   74FF         MOV     A,#-0x1
   \   000007   12....       LCALL   ?ALLOC_XSTACK8
   \   00000A   E9           MOV     A,R1
   \   00000B   85..82       MOV     DPL,?XSP + 0
   \   00000E   85..83       MOV     DPH,?XSP + 1
   \   000011   F0           MOVX    @DPTR,A
   \   000012   8A..         MOV     ?V6,R2
   \   000014   8B..         MOV     ?V7,R3
    953            uint8 *pBuf = ZDP_TmpBuf;
   \   000016   12....       LCALL   ??Subroutine109_0 & 0xFFFF
   \                     ??CrossCallReturnLabel_178:
   \   000019   7411         MOV     A,#0x11
   \   00001B   12....       LCALL   ?XSTACK_DISP0_8
   \   00001E   E0           MOVX    A,@DPTR
   \   00001F   F5..         MOV     ?V4,A
   \   000021   A3           INC     DPTR
   \   000022   E0           MOVX    A,@DPTR
   \   000023   F5..         MOV     ?V5,A
    954            byte len = 1 + 2 + 1;  // Status + nwkAddr + descriptor length.
    955          
    956            (void)SecurityEnable;  // Intentionally unreferenced parameter
    957          
    958            len += userDesc->len;
   \   000025   85..82       MOV     DPL,?V4
   \   000028   F583         MOV     DPH,A
   \   00002A   E0           MOVX    A,@DPTR
   \   00002B   2404         ADD     A,#0x4
   \   00002D   FF           MOV     R7,A
    959          
    960            *pBuf++ = ZSUCCESS;
   \   00002E   12....       LCALL   ?Subroutine25 & 0xFFFF
    961          
    962            *pBuf++ = LO_UINT16( nwkAddrOfInterest );
    963            *pBuf++ = HI_UINT16( nwkAddrOfInterest );
    964          
    965            *pBuf++ = userDesc->len;
   \                     ??CrossCallReturnLabel_31:
   \   000031   85..82       MOV     DPL,?V4
   \   000034   85..83       MOV     DPH,?V5
   \   000037   12....       LCALL   ?Subroutine28 & 0xFFFF
    966            osal_memcpy( pBuf, userDesc->desc, userDesc->len );
   \                     ??CrossCallReturnLabel_159:
   \   00003A                ; Setup parameters for call to function osal_memcpy
   \   00003A   85..82       MOV     DPL,?V4
   \   00003D   85..83       MOV     DPH,?V5
   \   000040   A3           INC     DPTR
   \   000041   AC82         MOV     R4,DPL
   \   000043   AD83         MOV     R5,DPH
   \   000045   8C..         MOV     ?V0,R4
   \   000047   8D..         MOV     ?V1,R5
   \   000049   75..00       MOV     ?V2,#0x0
   \   00004C   78..         MOV     R0,#?V0
   \   00004E   12....       LCALL   ?PUSH_XSTACK_I_THREE
   \   000051   85..82       MOV     DPL,?V4
   \   000054   85..83       MOV     DPH,?V5
   \   000057   E0           MOVX    A,@DPTR
   \   000058   FC           MOV     R4,A
   \   000059   7D00         MOV     R5,#0x0
   \   00005B   12....       LCALL   ??osal_memcpy?relay  ; Banked call to: osal_memcpy
   \   00005E   7403         MOV     A,#0x3
   \   000060   12....       LCALL   ?DEALLOC_XSTACK8
    967          
    968            return (ZStatus_t)fillAndSend( &TransSeq, dstAddr, User_Desc_rsp, len );
   \   000063                ; Setup parameters for call to function fillAndSend
   \   000063   75..11       MOV     ?V0,#0x11
   \   000066   75..80       MOV     ?V1,#-0x80
   \   000069   78..         MOV     R0,#?V0
   \   00006B   12....       LCALL   ?PUSH_XSTACK_I_TWO
   \   00006E   EF           MOV     A,R7
   \   00006F   F9           MOV     R1,A
   \   000070   AC..         MOV     R4,?V6
   \   000072   AD..         MOV     R5,?V7
   \   000074   7402         MOV     A,#0x2
   \   000076   12....       LCALL   ?XSTACK_DISP101_8
   \   000079   12....       LCALL   ??fillAndSend?relay  ; Banked call to: fillAndSend
   \   00007C   7402         MOV     A,#0x2
   \   00007E   12....       LCALL   ?DEALLOC_XSTACK8
   \   000081   02....       LJMP    ?Subroutine5 & 0xFFFF
    969          }

   \                                 In  segment BANKED_CODE, align 1, keep-with-next
   \                     ?Subroutine5:
   \   000000   7401         MOV     A,#0x1
   \   000002                REQUIRE ??Subroutine120_0
   \   000002                ; // Fall through to label ??Subroutine120_0
    970          
    971          /*********************************************************************
    972           * @fn          ZDP_ServerDiscRsp
    973           *
    974           * @brief       Build and send the Server_Discovery_rsp response.
    975           *
    976           * @param       transID - Transaction sequence number of request.
    977           * @param       dstAddr - Network Destination Address.
    978           * @param       status - Status of response to request.
    979           * @param       aoi - Network Address of Interest of request.
    980           * @param       serverMask - Bit map of service(s) being sought.
    981           * @param       SecurityEnable - Security Options
    982           *
    983           * @return      ZStatus_t
    984           */

   \                                 In  segment BANKED_CODE, align 1, keep-with-next
    985          ZStatus_t ZDP_ServerDiscRsp( byte transID, zAddrType_t *dstAddr, byte status,
   \                     ZDP_ServerDiscRsp:
    986                                     uint16 aoi, uint16 serverMask, byte SecurityEnable )
    987          {
   \   000000                REQUIRE ?V0
   \   000000                REQUIRE ?V1
   \   000000   74F6         MOV     A,#-0xa
   \   000002   12....       LCALL   ?BANKED_ENTER_XDATA
   \   000005                ; Saved register size: 10
   \   000005                ; Auto size: 1
   \   000005   74FF         MOV     A,#-0x1
   \   000007   12....       LCALL   ?ALLOC_XSTACK8
   \   00000A   E9           MOV     A,R1
   \   00000B   85..82       MOV     DPL,?XSP + 0
   \   00000E   85..83       MOV     DPH,?XSP + 1
   \   000011   F0           MOVX    @DPTR,A
   \   000012   12....       LCALL   ?Subroutine59 & 0xFFFF
    988            const byte len = 1  + 2;  // status + aoi + mask.
    989            uint8 *pBuf = ZDP_TmpBuf;
    990            ZStatus_t stat;
    991          
    992            // Intentionally unreferenced parameters
    993            (void)aoi;
    994            (void)SecurityEnable;
    995          
    996            *pBuf++ = status;
   \                     ??CrossCallReturnLabel_265:
   \   000015   EE           MOV     A,R6
   \   000016   12....       LCALL   ?Subroutine12 & 0xFFFF
   \                     ??CrossCallReturnLabel_204:
   \   000019   740D         MOV     A,#0xd
   \   00001B   12....       LCALL   ?XSTACK_DISP0_8
   \   00001E   12....       LCALL   ?Subroutine61 & 0xFFFF
    997          
    998            *pBuf++ = LO_UINT16( serverMask );
   \                     ??CrossCallReturnLabel_92:
   \   000021   EC           MOV     A,R4
   \   000022   8882         MOV     DPL,R0
   \   000024   8983         MOV     DPH,R1
   \   000026   F0           MOVX    @DPTR,A
   \   000027   A3           INC     DPTR
    999            *pBuf++ = HI_UINT16( serverMask );
   \   000028   ED           MOV     A,R5
   \   000029   F0           MOVX    @DPTR,A
   1000          
   1001            ZDP_TxOptions = AF_MSG_ACK_REQUEST;
   \   00002A   90....       MOV     DPTR,#ZDP_TxOptions
   \   00002D   7410         MOV     A,#0x10
   \   00002F   F0           MOVX    @DPTR,A
   1002            stat = fillAndSend( &transID, dstAddr, Server_Discovery_rsp, len );
   \   000030                ; Setup parameters for call to function fillAndSend
   \   000030   75..15       MOV     ?V0,#0x15
   \   000033   75..80       MOV     ?V1,#-0x80
   \   000036   78..         MOV     R0,#?V0
   \   000038   12....       LCALL   ?PUSH_XSTACK_I_TWO
   \   00003B   7903         MOV     R1,#0x3
   \   00003D   EA           MOV     A,R2
   \   00003E   FC           MOV     R4,A
   \   00003F   EB           MOV     A,R3
   \   000040   FD           MOV     R5,A
   \   000041   7402         MOV     A,#0x2
   \   000043   12....       LCALL   ?XSTACK_DISP101_8
   \   000046   12....       LCALL   ??fillAndSend?relay  ; Banked call to: fillAndSend
   \   000049   7402         MOV     A,#0x2
   \   00004B   12....       LCALL   ?DEALLOC_XSTACK8
   1003            ZDP_TxOptions = AF_TX_OPTIONS_NONE;
   \   00004E   90....       MOV     DPTR,#ZDP_TxOptions
   \   000051   E4           CLR     A
   \   000052   F0           MOVX    @DPTR,A
   1004          
   1005            return ( stat );
   \   000053   04           INC     A
   \   000054   02....       LJMP    ??Subroutine107_0 & 0xFFFF
   1006          }
   1007          
   1008          /*********************************************************************
   1009           * @fn          ZDP_GenericRsp
   1010           *
   1011           * @brief       Sends a response message with only the parameter status
   1012           *              byte and the addr of interest for data.
   1013           *              This function sends unicast message to the
   1014           *              requesting device.
   1015           *
   1016           * @param       dstAddr - destination address
   1017           * @param       status  - generic status for response
   1018           * @param       aoi     - address of interest
   1019           * @param       dstAddr - destination address
   1020           * @param       rspId   - response cluster ID
   1021           * @param       SecurityEnable - Security Options
   1022           *
   1023           * @return      afStatus_t
   1024           */

   \                                 In  segment BANKED_CODE, align 1, keep-with-next
   1025          afStatus_t ZDP_GenericRsp( byte TransSeq, zAddrType_t *dstAddr,
   \                     ZDP_GenericRsp:
   1026                               byte status, uint16 aoi, uint16 rspID, byte SecurityEnable )
   1027          {
   \   000000   74F7         MOV     A,#-0x9
   \   000002   12....       LCALL   ?BANKED_ENTER_XDATA
   \   000005                ; Saved register size: 9
   \   000005                ; Auto size: 1
   \   000005   74FF         MOV     A,#-0x1
   \   000007   12....       LCALL   ?ALLOC_XSTACK8
   \   00000A   E9           MOV     A,R1
   \   00000B   85..82       MOV     DPL,?XSP + 0
   \   00000E   85..83       MOV     DPH,?XSP + 1
   \   000011   F0           MOVX    @DPTR,A
   1028            uint8 len;
   1029          
   1030            (void)SecurityEnable;  // Intentionally unreferenced parameter
   1031          
   1032            ZDP_TmpBuf[0] = status;
   \   000012   12....       LCALL   ?Subroutine48 & 0xFFFF
   \                     ??CrossCallReturnLabel_184:
   \   000015   EC           MOV     A,R4
   \   000016   F0           MOVX    @DPTR,A
   \   000017   740A         MOV     A,#0xa
   \   000019   12....       LCALL   ?XSTACK_DISP0_8
   \   00001C   12....       LCALL   ??Subroutine127_0 & 0xFFFF
   1033            ZDP_TmpBuf[1] = LO_UINT16( aoi );
   \                     ??CrossCallReturnLabel_270:
   \   00001F   90....       MOV     DPTR,#ZDP_TmpBuf
   \   000022   E0           MOVX    A,@DPTR
   \   000023   FC           MOV     R4,A
   \   000024   A3           INC     DPTR
   \   000025   E0           MOVX    A,@DPTR
   \   000026   F583         MOV     DPH,A
   \   000028   8C82         MOV     DPL,R4
   \   00002A   A3           INC     DPTR
   \   00002B   E8           MOV     A,R0
   \   00002C   12....       LCALL   ?Subroutine17 & 0xFFFF
   1034            ZDP_TmpBuf[2] = HI_UINT16( aoi );
   1035          
   1036            // Length byte
   1037            ZDP_TmpBuf[3] = 0;
   \                     ??CrossCallReturnLabel_15:
   \   00002F   12....       LCALL   ?Subroutine48 & 0xFFFF
   \                     ??CrossCallReturnLabel_185:
   \   000032   A3           INC     DPTR
   \   000033   A3           INC     DPTR
   \   000034   A3           INC     DPTR
   \   000035   E4           CLR     A
   \   000036   F0           MOVX    @DPTR,A
   1038            len = 4;
   1039          
   1040            return fillAndSend( &TransSeq, dstAddr, rspID, len );
   \   000037                ; Setup parameters for call to function fillAndSend
   \   000037   740C         MOV     A,#0xc
   \   000039   12....       LCALL   ?XSTACK_DISP0_8
   \   00003C   12....       LCALL   ?PUSH_XSTACK8_X_TWO
   \   00003F   7904         MOV     R1,#0x4
   \   000041   EA           MOV     A,R2
   \   000042   FC           MOV     R4,A
   \   000043   EB           MOV     A,R3
   \   000044   FD           MOV     R5,A
   \   000045   7402         MOV     A,#0x2
   \   000047   12....       LCALL   ?XSTACK_DISP101_8
   \   00004A   12....       LCALL   ??fillAndSend?relay  ; Banked call to: fillAndSend
   \   00004D   7402         MOV     A,#0x2
   \   00004F   12....       LCALL   ?DEALLOC_XSTACK8
   \   000052   7401         MOV     A,#0x1
   \   000054   12....       LCALL   ?DEALLOC_XSTACK8
   \   000057                REQUIRE ?Subroutine6
   \   000057                ; // Fall through to label ?Subroutine6
   1041          }

   \                                 In  segment BANKED_CODE, align 1, keep-with-next
   \                     ?Subroutine6:
   \   000000   7F01         MOV     R7,#0x1
   \   000002   02....       LJMP    ?BANKED_LEAVE_XDATA
   1042          
   1043          /*********************************************************************
   1044           * Binding
   1045           */
   1046          /*********************************************************************
   1047           * @fn          ZDP_EndDeviceBindReq
   1048           *
   1049           * @brief       This builds and sends a End_Device_Bind_req message.
   1050           *              This function sends a unicast message.
   1051           *
   1052           * @param       dstAddr - destination address
   1053           * @param       LocalCoordinator - short address of local coordinator
   1054           * @param       epIntf - Endpoint/Interface of Simple Desc
   1055           * @param       ProfileID - Profile ID
   1056           *
   1057           *   The Input cluster list is the opposite of what you would think.
   1058           *   This is the output cluster list of this device
   1059           * @param       NumInClusters - number of input clusters
   1060           * @param       InClusterList - input cluster ID list
   1061           *
   1062           *   The Output cluster list is the opposite of what you would think.
   1063           *   This is the input cluster list of this device
   1064           * @param       NumOutClusters - number of output clusters
   1065           * @param       OutClusterList - output cluster ID list
   1066           *
   1067           * @param       SecurityEnable - Security Options
   1068           *
   1069           * @return      afStatus_t
   1070           */

   \                                 In  segment BANKED_CODE, align 1, keep-with-next
   1071          afStatus_t ZDP_EndDeviceBindReq( zAddrType_t *dstAddr,
   \                     ZDP_EndDeviceBindReq:
   1072                                           uint16 LocalCoordinator,
   1073                                           byte endPoint,
   1074                                           uint16 ProfileID,
   1075                                           byte NumInClusters, cId_t *InClusterList,
   1076                                           byte NumOutClusters, cId_t *OutClusterList,
   1077                                           byte SecurityEnable )
   1078          {
   \   000000                REQUIRE ?V0
   \   000000                REQUIRE ?V1
   \   000000                REQUIRE ?V2
   \   000000                REQUIRE ?V3
   \   000000                REQUIRE ?V4
   \   000000                REQUIRE ?V5
   \   000000                REQUIRE ?V6
   \   000000                REQUIRE ?V7
   \   000000   74F0         MOV     A,#-0x10
   \   000002   12....       LCALL   ?BANKED_ENTER_XDATA
   \   000005                ; Saved register size: 16
   \   000005                ; Auto size: 2
   \   000005   74FE         MOV     A,#-0x2
   \   000007   12....       LCALL   ?ALLOC_XSTACK8
   \   00000A   12....       LCALL   ?Subroutine31 & 0xFFFF
   \                     ??CrossCallReturnLabel_258:
   \   00000D   EC           MOV     A,R4
   \   00000E   FE           MOV     R6,A
   \   00000F   ED           MOV     A,R5
   \   000010   FF           MOV     R7,A
   \   000011   89..         MOV     ?V7,R1
   1079            uint8 *pBuf = ZDP_TmpBuf;
   \   000013   12....       LCALL   ?Subroutine53 & 0xFFFF
   \                     ??CrossCallReturnLabel_216:
   \   000016   7414         MOV     A,#0x14
   \   000018   12....       LCALL   ?XSTACK_DISP0_8
   \   00001B   E0           MOVX    A,@DPTR
   \   00001C   F5..         MOV     ?V2,A
   \   00001E   7417         MOV     A,#0x17
   \   000020   12....       LCALL   ?XSTACK_DISP0_8
   \   000023   E0           MOVX    A,@DPTR
   \   000024   F5..         MOV     ?V3,A
   1080            uint8 i, len;
   1081            uint8 *ieeeAddr;
   1082          
   1083            (void)SecurityEnable;  // Intentionally unreferenced parameter
   1084          
   1085            // LocalCoordinator + SrcExtAddr + ep + ProfileID +  NumInClusters + NumOutClusters.
   1086            len = 2 + Z_EXTADDR_LEN + 1 + 2 + 1 + 1;
   1087            len += (NumInClusters + NumOutClusters) * sizeof ( uint16 );
   \   000026   E5..         MOV     A,?V2
   \   000028   25..         ADD     A,?V3
   \   00002A   C3           CLR     C
   \   00002B   33           RLC     A
   \   00002C   240F         ADD     A,#0xf
   \   00002E   F5..         MOV     ?V6,A
   1088          
   1089            if ( len >= ZDP_BUF_SZ-1 )
   \   000030   C3           CLR     C
   \   000031   944F         SUBB    A,#0x4f
   \   000033   4005         JC      ??ZDP_EndDeviceBindReq_0
   1090            {
   1091              return afStatus_MEM_FAIL;
   \   000035   7910         MOV     R1,#0x10
   \   000037   02....       LJMP    ??ZDP_EndDeviceBindReq_1 & 0xFFFF
   1092            }
   1093          
   1094            if ( LocalCoordinator != NLME_GetShortAddr() )
   \                     ??ZDP_EndDeviceBindReq_0:
   \   00003A                ; Setup parameters for call to function NLME_GetShortAddr
   \   00003A   12....       LCALL   ??NLME_GetShortAddr?relay; Banked call to: NLME_GetShortAddr
   \   00003D   EA           MOV     A,R2
   \   00003E   6E           XRL     A,R6
   \   00003F   7002         JNZ     ??ZDP_EndDeviceBindReq_2
   \   000041   EB           MOV     A,R3
   \   000042   6F           XRL     A,R7
   \                     ??ZDP_EndDeviceBindReq_2:
   \   000043   6005         JZ      ??ZDP_EndDeviceBindReq_3
   1095            {
   1096              return afStatus_INVALID_PARAMETER;
   \   000045   7902         MOV     R1,#0x2
   \   000047   02....       LJMP    ??ZDP_EndDeviceBindReq_1 & 0xFFFF
   1097            }
   1098          
   1099            *pBuf++ = LO_UINT16( LocalCoordinator );
   \                     ??ZDP_EndDeviceBindReq_3:
   \   00004A   EE           MOV     A,R6
   \   00004B   85..82       MOV     DPL,?V0
   \   00004E   85..83       MOV     DPH,?V1
   \   000051   F0           MOVX    @DPTR,A
   \   000052   A3           INC     DPTR
   1100            *pBuf++ = HI_UINT16( LocalCoordinator );
   \   000053   EF           MOV     A,R7
   \   000054   12....       LCALL   ??Subroutine112_0 & 0xFFFF
   1101          
   1102            ieeeAddr = NLME_GetExtAddr();
   1103            pBuf = osal_cpyExtAddr( pBuf, ieeeAddr );
   \                     ??CrossCallReturnLabel_192:
   \   000057                ; Setup parameters for call to function sAddrExtCpy
   \   000057                ; Setup parameters for call to function NLME_GetExtAddr
   \   000057   12....       LCALL   ??NLME_GetExtAddr?relay; Banked call to: NLME_GetExtAddr
   \   00005A   EA           MOV     A,R2
   \   00005B   FC           MOV     R4,A
   \   00005C   EB           MOV     A,R3
   \   00005D   FD           MOV     R5,A
   \   00005E   AA..         MOV     R2,?V0
   \   000060   AB..         MOV     R3,?V1
   \   000062   12....       LCALL   ??sAddrExtCpy?relay  ; Banked call to: sAddrExtCpy
   1104          
   1105            *pBuf++ = endPoint;
   \   000065   8A82         MOV     DPL,R2
   \   000067   8B83         MOV     DPH,R3
   \   000069   E5..         MOV     A,?V7
   \   00006B   12....       LCALL   ??Subroutine112_0 & 0xFFFF
   \                     ??CrossCallReturnLabel_193:
   \   00006E   7412         MOV     A,#0x12
   \   000070   12....       LCALL   ?XSTACK_DISP0_8
   \   000073   12....       LCALL   ??Subroutine127_0 & 0xFFFF
   1106          
   1107            *pBuf++ = LO_UINT16( ProfileID );   // Profile ID
   \                     ??CrossCallReturnLabel_271:
   \   000076   E8           MOV     A,R0
   \   000077   85..82       MOV     DPL,?V0
   \   00007A   85..83       MOV     DPH,?V1
   \   00007D   F0           MOVX    @DPTR,A
   \   00007E   A3           INC     DPTR
   1108            *pBuf++ = HI_UINT16( ProfileID );
   \   00007F   E9           MOV     A,R1
   \   000080   12....       LCALL   ?Subroutine23 & 0xFFFF
   1109          
   1110            *pBuf++ = NumInClusters; // Input cluster list
   1111            for ( i = 0; i < NumInClusters; ++i )
   \                     ??CrossCallReturnLabel_27:
   \   000083   7C00         MOV     R4,#0x0
   \   000085   7415         MOV     A,#0x15
   \   000087   12....       LCALL   ?XSTACK_DISP0_8
   \   00008A   12....       LCALL   ??Subroutine127_0 & 0xFFFF
   \                     ??CrossCallReturnLabel_272:
   \   00008D   8015         SJMP    ??CrossCallReturnLabel_58
   1112            {
   1113              *pBuf++ = LO_UINT16(InClusterList[i]);
   \                     ??ZDP_EndDeviceBindReq_4:
   \   00008F   12....       LCALL   ?Subroutine70 & 0xFFFF
   \                     ??CrossCallReturnLabel_109:
   \   000092   FE           MOV     R6,A
   \   000093   E9           MOV     A,R1
   \   000094   3B           ADDC    A,R3
   \   000095   FF           MOV     R7,A
   \   000096   8E82         MOV     DPL,R6
   \   000098   8F83         MOV     DPH,R7
   \   00009A   12....       LCALL   ?Subroutine41 & 0xFFFF
   1114              *pBuf++ = HI_UINT16(InClusterList[i]);
   \                     ??CrossCallReturnLabel_195:
   \   00009D   8E82         MOV     DPL,R6
   \   00009F   8F83         MOV     DPH,R7
   \   0000A1   12....       LCALL   ?Subroutine40 & 0xFFFF
   1115            }
   \                     ??CrossCallReturnLabel_58:
   \   0000A4   EC           MOV     A,R4
   \   0000A5   C3           CLR     C
   \   0000A6   95..         SUBB    A,?V2
   \   0000A8   40E5         JC      ??ZDP_EndDeviceBindReq_4
   1116          
   1117            *pBuf++ = NumOutClusters; // Output cluster list
   \   0000AA   85..82       MOV     DPL,?V0
   \   0000AD   85..83       MOV     DPH,?V1
   \   0000B0   E5..         MOV     A,?V3
   \   0000B2   12....       LCALL   ??Subroutine112_0 & 0xFFFF
   1118            for ( i = 0; i < NumOutClusters; ++i )
   \                     ??CrossCallReturnLabel_194:
   \   0000B5   7C00         MOV     R4,#0x0
   \   0000B7   7418         MOV     A,#0x18
   \   0000B9   12....       LCALL   ?XSTACK_DISP0_8
   \   0000BC   12....       LCALL   ??Subroutine127_0 & 0xFFFF
   \                     ??CrossCallReturnLabel_273:
   \   0000BF   8015         SJMP    ??CrossCallReturnLabel_59
   1119            {
   1120              *pBuf++ = LO_UINT16(OutClusterList[i]);
   \                     ??ZDP_EndDeviceBindReq_5:
   \   0000C1   12....       LCALL   ?Subroutine70 & 0xFFFF
   \                     ??CrossCallReturnLabel_110:
   \   0000C4   FA           MOV     R2,A
   \   0000C5   E9           MOV     A,R1
   \   0000C6   3B           ADDC    A,R3
   \   0000C7   FB           MOV     R3,A
   \   0000C8   8A82         MOV     DPL,R2
   \   0000CA   8B83         MOV     DPH,R3
   \   0000CC   12....       LCALL   ?Subroutine41 & 0xFFFF
   1121              *pBuf++ = HI_UINT16(OutClusterList[i]);
   \                     ??CrossCallReturnLabel_196:
   \   0000CF   8A82         MOV     DPL,R2
   \   0000D1   8B83         MOV     DPH,R3
   \   0000D3   12....       LCALL   ?Subroutine40 & 0xFFFF
   1122            }
   \                     ??CrossCallReturnLabel_59:
   \   0000D6   EC           MOV     A,R4
   \   0000D7   C3           CLR     C
   \   0000D8   95..         SUBB    A,?V3
   \   0000DA   40E5         JC      ??ZDP_EndDeviceBindReq_5
   1123          
   1124            return fillAndSend( &ZDP_TransID, dstAddr, End_Device_Bind_req, len );
   \   0000DC                ; Setup parameters for call to function fillAndSend
   \   0000DC   75..20       MOV     ?V0,#0x20
   \   0000DF   75..00       MOV     ?V1,#0x0
   \   0000E2   78..         MOV     R0,#?V0
   \   0000E4   12....       LCALL   ?PUSH_XSTACK_I_TWO
   \   0000E7   A9..         MOV     R1,?V6
   \   0000E9   7402         MOV     A,#0x2
   \   0000EB   12....       LCALL   ?XSTACK_DISP0_8
   \   0000EE   12....       LCALL   ?Subroutine60 & 0xFFFF
   \                     ??CrossCallReturnLabel_90:
   \   0000F1   12....       LCALL   ??fillAndSend?relay  ; Banked call to: fillAndSend
   \   0000F4   7402         MOV     A,#0x2
   \   0000F6   12....       LCALL   ?DEALLOC_XSTACK8
   \                     ??ZDP_EndDeviceBindReq_1:
   \   0000F9   7402         MOV     A,#0x2
   \   0000FB   02....       LJMP    ??Subroutine120_0 & 0xFFFF
   1125          }

   \                                 In  segment BANKED_CODE, align 1, keep-with-next
   \                     ?Subroutine70:
   \   000000   EC           MOV     A,R4
   \   000001   25E0         ADD     A,0xE0 /* A   */
   \   000003   FA           MOV     R2,A
   \   000004   E4           CLR     A
   \   000005   33           RLC     A
   \   000006   FB           MOV     R3,A
   \   000007   E8           MOV     A,R0
   \   000008   2A           ADD     A,R2
   \   000009   22           RET

   \                                 In  segment BANKED_CODE, align 1, keep-with-next
   \                     ?Subroutine41:
   \   000000   E0           MOVX    A,@DPTR
   \   000001   85..82       MOV     DPL,?V0
   \   000004   85..83       MOV     DPH,?V1
   \   000007                REQUIRE ??Subroutine112_0
   \   000007                ; // Fall through to label ??Subroutine112_0

   \                                 In  segment BANKED_CODE, align 1, keep-with-next
   \                     ??Subroutine112_0:
   \   000000   12....       LCALL   ?Subroutine88 & 0xFFFF
   \                     ??CrossCallReturnLabel_198:
   \   000003   22           RET

   \                                 In  segment BANKED_CODE, align 1, keep-with-next
   \                     ?Subroutine40:
   \   000000   A3           INC     DPTR
   \   000001   12....       LCALL   ?Subroutine84 & 0xFFFF
   \                     ??CrossCallReturnLabel_132:
   \   000004   A3           INC     DPTR
   \   000005   8582..       MOV     ?V0,DPL
   \   000008   8583..       MOV     ?V1,DPH
   \   00000B   0C           INC     R4
   \   00000C   22           RET
   1126          
   1127          /*********************************************************************
   1128           * @fn          ZDP_BindUnbindReq
   1129           *
   1130           * @brief       This builds and send a Bind_req or Unbind_req message
   1131           *              Depending on the ClusterID. This function
   1132           *              sends a unicast message to the local coordinator.
   1133           *
   1134           * @param       BindOrUnbind - either Bind_req or Unbind_req
   1135           * @param       dstAddr - destination address of the message
   1136           * @param       SourceAddr - source 64 bit address of the binding
   1137           * @param       SrcEPIntf - Source endpoint/interface
   1138           * @param       ClusterID - Binding cluster ID
   1139           * @param       DestinationAddr - destination 64 bit addr of binding
   1140           * @param       DstEPIntf - destination endpoint/interface
   1141           * @param       SecurityEnable - Security Options
   1142           *
   1143           * @return      afStatus_t
   1144           */

   \                                 In  segment BANKED_CODE, align 1, keep-with-next
   1145          afStatus_t ZDP_BindUnbindReq( uint16 BindOrUnbind, zAddrType_t *dstAddr,
   \                     ZDP_BindUnbindReq:
   1146                                        uint8 *SourceAddr, byte SrcEndPoint,
   1147                                        cId_t ClusterID,
   1148                                        zAddrType_t *destinationAddr, byte DstEndPoint,
   1149                                        byte SecurityEnable )
   1150          {
   \   000000                REQUIRE ?V0
   \   000000                REQUIRE ?V1
   \   000000                REQUIRE ?V2
   \   000000                REQUIRE ?V3
   \   000000                REQUIRE ?V4
   \   000000                REQUIRE ?V5
   \   000000                REQUIRE ?V6
   \   000000                REQUIRE ?V7
   \   000000   74F0         MOV     A,#-0x10
   \   000002   12....       LCALL   ?BANKED_ENTER_XDATA
   \   000005                ; Saved register size: 16
   \   000005                ; Auto size: 0
   \   000005   EA           MOV     A,R2
   \   000006   FE           MOV     R6,A
   \   000007   EB           MOV     A,R3
   \   000008   FF           MOV     R7,A
   \   000009   8C..         MOV     ?V6,R4
   \   00000B   8D..         MOV     ?V7,R5
   \   00000D   89..         MOV     ?V3,R1
   1151            uint8 *pBuf = ZDP_TmpBuf;
   \   00000F   12....       LCALL   ??Subroutine109_0 & 0xFFFF
   1152            byte len;
   1153          
   1154            (void)SecurityEnable;  // Intentionally unreferenced parameter
   1155          
   1156            // SourceAddr + SrcEPIntf + ClusterID +  addrMode.
   1157            len = Z_EXTADDR_LEN + 1 + sizeof( cId_t ) + sizeof( uint8 );
   \                     ??CrossCallReturnLabel_179:
   \   000012   75..0C       MOV     ?V2,#0xc
   \   000015   7414         MOV     A,#0x14
   \   000017   12....       LCALL   ?XSTACK_DISP0_8
   \   00001A   12....       LCALL   ??Subroutine114_0 & 0xFFFF
   1158            if ( destinationAddr->addrMode == Addr64Bit )
   \                     ??CrossCallReturnLabel_211:
   \   00001D   85..82       MOV     DPL,?V0
   \   000020   F583         MOV     DPH,A
   \   000022   A3           INC     DPTR
   \   000023   A3           INC     DPTR
   \   000024   A3           INC     DPTR
   \   000025   A3           INC     DPTR
   \   000026   A3           INC     DPTR
   \   000027   A3           INC     DPTR
   \   000028   A3           INC     DPTR
   \   000029   A3           INC     DPTR
   \   00002A   E0           MOVX    A,@DPTR
   \   00002B   6403         XRL     A,#0x3
   \   00002D   7005         JNZ     ??ZDP_BindUnbindReq_0
   1159              len += Z_EXTADDR_LEN + 1;     // +1 for DstEPIntf
   \   00002F   75..15       MOV     ?V2,#0x15
   \   000032   8016         SJMP    ??ZDP_BindUnbindReq_1
   1160            else if ( destinationAddr->addrMode == AddrGroup )
   \                     ??ZDP_BindUnbindReq_0:
   \   000034   85..82       MOV     DPL,?V0
   \   000037   85..83       MOV     DPH,?V1
   \   00003A   A3           INC     DPTR
   \   00003B   A3           INC     DPTR
   \   00003C   A3           INC     DPTR
   \   00003D   A3           INC     DPTR
   \   00003E   A3           INC     DPTR
   \   00003F   A3           INC     DPTR
   \   000040   A3           INC     DPTR
   \   000041   A3           INC     DPTR
   \   000042   E0           MOVX    A,@DPTR
   \   000043   6401         XRL     A,#0x1
   \   000045   7003         JNZ     ??ZDP_BindUnbindReq_1
   1161              len += sizeof ( uint16 );
   \   000047   75..0E       MOV     ?V2,#0xe
   1162          
   1163            pBuf = osal_cpyExtAddr( pBuf, SourceAddr );
   \                     ??ZDP_BindUnbindReq_1:
   \   00004A                ; Setup parameters for call to function sAddrExtCpy
   \   00004A   7410         MOV     A,#0x10
   \   00004C   12....       LCALL   ?XSTACK_DISP0_8
   \   00004F   12....       LCALL   ?Subroutine61 & 0xFFFF
   \                     ??CrossCallReturnLabel_93:
   \   000052   12....       LCALL   ??sAddrExtCpy?relay  ; Banked call to: sAddrExtCpy
   1164            *pBuf++ = SrcEndPoint;
   \   000055   8A82         MOV     DPL,R2
   \   000057   8B83         MOV     DPH,R3
   \   000059   E5..         MOV     A,?V3
   \   00005B   12....       LCALL   ?Subroutine45 & 0xFFFF
   \                     ??CrossCallReturnLabel_65:
   \   00005E   12....       LCALL   ?XSTACK_DISP0_8
   \   000061   12....       LCALL   ?Subroutine34 & 0xFFFF
   1165          
   1166            *pBuf++ = LO_UINT16( ClusterID );
   1167          
   1168            *pBuf++ = HI_UINT16( ClusterID );
   1169            *pBuf++ = destinationAddr->addrMode;
   \                     ??CrossCallReturnLabel_47:
   \   000064   E5..         MOV     A,?V0
   \   000066   2408         ADD     A,#0x8
   \   000068   F8           MOV     R0,A
   \   000069   E4           CLR     A
   \   00006A   35..         ADDC    A,?V1
   \   00006C   12....       LCALL   ?Subroutine26 & 0xFFFF
   1170            if ( destinationAddr->addrMode == Addr64Bit )
   \                     ??CrossCallReturnLabel_32:
   \   00006F   7017         JNZ     ??ZDP_BindUnbindReq_2
   1171            {
   1172              pBuf = osal_cpyExtAddr( pBuf, destinationAddr->addr.extAddr );
   1173              *pBuf = DstEndPoint;
   \   000071   7416         MOV     A,#0x16
   \   000073   12....       LCALL   ?XSTACK_DISP0_8
   \   000076   E0           MOVX    A,@DPTR
   \   000077   C0E0         PUSH    A
   \   000079                ; Setup parameters for call to function sAddrExtCpy
   \   000079   AC..         MOV     R4,?V0
   \   00007B   AD..         MOV     R5,?V1
   \   00007D   12....       LCALL   ??sAddrExtCpy?relay  ; Banked call to: sAddrExtCpy
   \   000080   8A82         MOV     DPL,R2
   \   000082   8B83         MOV     DPH,R3
   \   000084   D0E0         POP     A
   \   000086   8020         SJMP    ??CrossCallReturnLabel_167
   1174            }
   1175            else if ( destinationAddr->addrMode == AddrGroup )
   \                     ??ZDP_BindUnbindReq_2:
   \   000088   85..82       MOV     DPL,?V0
   \   00008B   85..83       MOV     DPH,?V1
   \   00008E   A3           INC     DPTR
   \   00008F   A3           INC     DPTR
   \   000090   A3           INC     DPTR
   \   000091   A3           INC     DPTR
   \   000092   A3           INC     DPTR
   \   000093   A3           INC     DPTR
   \   000094   A3           INC     DPTR
   \   000095   A3           INC     DPTR
   \   000096   E0           MOVX    A,@DPTR
   \   000097   6401         XRL     A,#0x1
   \   000099   700E         JNZ     ??ZDP_BindUnbindReq_3
   1176            {
   1177              *pBuf++ = LO_UINT16( destinationAddr->addr.shortAddr );
   \   00009B   85..82       MOV     DPL,?V0
   \   00009E   85..83       MOV     DPH,?V1
   \   0000A1   12....       LCALL   ?Subroutine27 & 0xFFFF
   1178              *pBuf++ = HI_UINT16( destinationAddr->addr.shortAddr );
   1179            }
   \                     ??CrossCallReturnLabel_35:
   \   0000A4   A3           INC     DPTR
   \   0000A5   12....       LCALL   ?Subroutine93 & 0xFFFF
   \                     ??CrossCallReturnLabel_167:
   \   0000A8   F0           MOVX    @DPTR,A
   1180          
   1181            FillAndSendTxOptions( &ZDP_TransID, dstAddr, BindOrUnbind, len, AF_MSG_ACK_REQUEST );
   \                     ??ZDP_BindUnbindReq_3:
   \   0000A9   90....       MOV     DPTR,#ZDP_TxOptions
   \   0000AC   7410         MOV     A,#0x10
   \   0000AE   F0           MOVX    @DPTR,A
   \   0000AF                ; Setup parameters for call to function fillAndSend
   \   0000AF   8E..         MOV     ?V0,R6
   \   0000B1   8F..         MOV     ?V1,R7
   \   0000B3   78..         MOV     R0,#?V0
   \   0000B5   12....       LCALL   ?PUSH_XSTACK_I_TWO
   \   0000B8   A9..         MOV     R1,?V2
   \   0000BA   AC..         MOV     R4,?V6
   \   0000BC   AD..         MOV     R5,?V7
   \   0000BE   7A..         MOV     R2,#ZDP_TransID & 0xff
   \   0000C0   7B..         MOV     R3,#(ZDP_TransID >> 8) & 0xff
   \   0000C2   12....       LCALL   ??fillAndSend?relay  ; Banked call to: fillAndSend
   \   0000C5   7402         MOV     A,#0x2
   \   0000C7   12....       LCALL   ?DEALLOC_XSTACK8
   \   0000CA   90....       MOV     DPTR,#ZDP_TxOptions
   \   0000CD   E4           CLR     A
   \   0000CE   F0           MOVX    @DPTR,A
   \   0000CF   02....       LJMP    ??Subroutine121_0 & 0xFFFF
   1182          }

   \                                 In  segment BANKED_CODE, align 1, keep-with-next
   \                     ?Subroutine26:
   \   000000   F9           MOV     R1,A
   \   000001   8882         MOV     DPL,R0
   \   000003   8983         MOV     DPH,R1
   \   000005   12....       LCALL   ??Subroutine108_0 & 0xFFFF
   \                     ??CrossCallReturnLabel_161:
   \   000008   8882         MOV     DPL,R0
   \   00000A   8983         MOV     DPH,R1
   \   00000C   E0           MOVX    A,@DPTR
   \   00000D   6403         XRL     A,#0x3
   \   00000F   22           RET
   1183          
   1184          /*********************************************************************
   1185           * Network Management
   1186           */
   1187          
   1188          /*********************************************************************
   1189           * @fn          ZDP_MgmtNwkDiscReq
   1190           *
   1191           * @brief       This builds and send a Mgmt_NWK_Disc_req message. This
   1192           *              function sends a unicast message.
   1193           *
   1194           * @param       dstAddr - destination address of the message
   1195           * @param       ScanChannels - 32 bit address bit map
   1196           * @param       StartIndex - Starting index within the reporting network
   1197           *                           list
   1198           * @param       SecurityEnable - Security Options
   1199           *
   1200           * @return      afStatus_t
   1201           */

   \                                 In  segment BANKED_CODE, align 1, keep-with-next
   \                     ??Subroutine95_0:
   \   000000   7A..         MOV     R2,#ZDP_TransID & 0xff
   \   000002   7B..         MOV     R3,#(ZDP_TransID >> 8) & 0xff
   \   000004   12....       LCALL   ??fillAndSend?relay  ; Banked call to: fillAndSend
   \   000007   7402         MOV     A,#0x2
   \   000009                REQUIRE ??Subroutine96_0
   \   000009                ; // Fall through to label ??Subroutine96_0

   \                                 In  segment BANKED_CODE, align 1, keep-with-next
   1202          afStatus_t ZDP_MgmtNwkDiscReq( zAddrType_t *dstAddr,
   \                     ZDP_MgmtNwkDiscReq:
   1203                                         uint32 ScanChannels,
   1204                                         byte ScanDuration,
   1205                                         byte StartIndex,
   1206                                         byte SecurityEnable )
   1207          {
   \   000000                REQUIRE ?V0
   \   000000                REQUIRE ?V1
   \   000000                REQUIRE ?V2
   \   000000                REQUIRE ?V3
   \   000000   74F4         MOV     A,#-0xc
   \   000002   12....       LCALL   ?BANKED_ENTER_XDATA
   \   000005                ; Saved register size: 12
   \   000005                ; Auto size: 0
   \   000005   8A..         MOV     ?V0,R2
   \   000007   8B..         MOV     ?V1,R3
   \   000009   E9           MOV     A,R1
   \   00000A   FE           MOV     R6,A
   \   00000B   EC           MOV     A,R4
   \   00000C   FF           MOV     R7,A
   1208            uint8 *pBuf = ZDP_TmpBuf;
   1209            byte len = sizeof( uint32 )+1+1;  // ScanChannels + ScanDuration + StartIndex.
   1210          
   1211            (void)SecurityEnable;  // Intentionally unreferenced parameter
   1212          
   1213            pBuf = osal_buffer_uint32( pBuf, ScanChannels );
   \   00000D                ; Setup parameters for call to function osal_buffer_uint32
   \   00000D   740C         MOV     A,#0xc
   \   00000F   12....       LCALL   ?XSTACK_DISP0_8
   \   000012   12....       LCALL   ?PUSH_XSTACK8_X_FOUR
   \   000015   12....       LCALL   ??Subroutine109_0 & 0xFFFF
   \                     ??CrossCallReturnLabel_180:
   \   000018   12....       LCALL   ??osal_buffer_uint32?relay; Banked call to: osal_buffer_uint32
   \   00001B   7404         MOV     A,#0x4
   \   00001D   12....       LCALL   ?DEALLOC_XSTACK8
   \   000020   8A82         MOV     DPL,R2
   \   000022   8B83         MOV     DPH,R3
   1214          
   1215            *pBuf++ = ScanDuration;
   \   000024   EE           MOV     A,R6
   \   000025   F0           MOVX    @DPTR,A
   \   000026   A3           INC     DPTR
   1216            *pBuf = StartIndex;
   \   000027   EF           MOV     A,R7
   \   000028   F0           MOVX    @DPTR,A
   1217          
   1218            return fillAndSend( &ZDP_TransID, dstAddr, Mgmt_NWK_Disc_req, len );
   \   000029                ; Setup parameters for call to function fillAndSend
   \   000029   75..30       MOV     ?V2,#0x30
   \   00002C   75..00       MOV     ?V3,#0x0
   \   00002F   78..         MOV     R0,#?V2
   \   000031   12....       LCALL   ?PUSH_XSTACK_I_TWO
   \   000034   7906         MOV     R1,#0x6
   \   000036   AC..         MOV     R4,?V0
   \   000038   AD..         MOV     R5,?V1
   \   00003A   02....       LJMP    ??Subroutine95_0 & 0xFFFF
   1219          }
   1220          
   1221          /*********************************************************************
   1222           * @fn          ZDP_MgmtDirectJoinReq
   1223           *
   1224           * @brief       This builds and send a Mgmt_Direct_Join_req message. This
   1225           *              function sends a unicast message.
   1226           *
   1227           * @param       dstAddr - destination address of the message
   1228           * @param       deviceAddr - 64 bit IEEE Address
   1229           * @param       SecurityEnable - Security Options
   1230           *
   1231           * @return      afStatus_t
   1232           */

   \                                 In  segment BANKED_CODE, align 1, keep-with-next
   \                     ?Subroutine1:
   \   000000   75..00       MOV     ?V3,#0x0
   \   000003   78..         MOV     R0,#?V2
   \   000005   12....       LCALL   ?PUSH_XSTACK_I_TWO
   \   000008   7909         MOV     R1,#0x9
   \   00000A   EE           MOV     A,R6
   \   00000B   FC           MOV     R4,A
   \   00000C   EF           MOV     A,R7
   \   00000D   FD           MOV     R5,A
   \   00000E                REQUIRE ??Subroutine95_0
   \   00000E                ; // Fall through to label ??Subroutine95_0

   \                                 In  segment BANKED_CODE, align 1, keep-with-next
   \                     ?Subroutine63:
   \   000000   EA           MOV     A,R2
   \   000001   FE           MOV     R6,A
   \   000002   EB           MOV     A,R3
   \   000003   FF           MOV     R7,A
   \   000004   89..         MOV     ?V0,R1
   \   000006                ; Setup parameters for call to function sAddrExtCpy
   \   000006                ; Setup parameters for call to function sAddrExtCpy
   \   000006                REQUIRE ??Subroutine109_0
   \   000006                ; // Fall through to label ??Subroutine109_0

   \                                 In  segment BANKED_CODE, align 1, keep-with-next
   1233          afStatus_t ZDP_MgmtDirectJoinReq( zAddrType_t *dstAddr,
   \                     ZDP_MgmtDirectJoinReq:
   1234                                         uint8 *deviceAddr,
   1235                                         byte capInfo,
   1236                                         byte SecurityEnable )
   1237          {
   \   000000                REQUIRE ?V0
   \   000000                REQUIRE ?V2
   \   000000                REQUIRE ?V3
   \   000000   74F4         MOV     A,#-0xc
   \   000002   12....       LCALL   ?BANKED_ENTER_XDATA
   \   000005                ; Saved register size: 12
   \   000005                ; Auto size: 0
   \   000005   12....       LCALL   ?Subroutine63 & 0xFFFF
   1238            (void)SecurityEnable;  // Intentionally unreferenced parameter
   1239          
   1240            osal_cpyExtAddr( ZDP_TmpBuf, deviceAddr );
   \                     ??CrossCallReturnLabel_170:
   \   000008   12....       LCALL   ??sAddrExtCpy?relay  ; Banked call to: sAddrExtCpy
   1241            ZDP_TmpBuf[Z_EXTADDR_LEN] = capInfo;
   \   00000B   12....       LCALL   ?Subroutine47 & 0xFFFF
   \                     ??CrossCallReturnLabel_66:
   \   00000E   E5..         MOV     A,?V0
   \   000010   F0           MOVX    @DPTR,A
   1242          
   1243            return fillAndSend( &ZDP_TransID, dstAddr, Mgmt_Direct_Join_req, (Z_EXTADDR_LEN + 1) );
   \   000011                ; Setup parameters for call to function fillAndSend
   \   000011   75..35       MOV     ?V2,#0x35
   \   000014   02....       LJMP    ?Subroutine1 & 0xFFFF
   1244          }

   \                                 In  segment BANKED_CODE, align 1, keep-with-next
   \                     ?Subroutine47:
   \   000000   12....       LCALL   ?Subroutine94 & 0xFFFF
   \                     ??CrossCallReturnLabel_285:
   \   000003   C8           XCH     A,R0
   \   000004   2408         ADD     A,#0x8
   \   000006   F582         MOV     DPL,A
   \   000008   E4           CLR     A
   \   000009   38           ADDC    A,R0
   \   00000A   F583         MOV     DPH,A
   \   00000C   22           RET
   1245          
   1246          /*********************************************************************
   1247           * @fn          ZDP_MgmtPermitJoinReq
   1248           *
   1249           * @brief       This builds and send a Mgmt_Permit_Join_req message.
   1250           *
   1251           * @param       dstAddr - destination address of the message
   1252           * @param       duration - Permit duration
   1253           * @param       TcSignificance - Trust Center Significance
   1254           *
   1255           * @return      afStatus_t
   1256           */

   \                                 In  segment BANKED_CODE, align 1, keep-with-next
   1257          afStatus_t ZDP_MgmtPermitJoinReq( zAddrType_t *dstAddr, byte duration,
   \                     ZDP_MgmtPermitJoinReq:
   1258                                            byte TcSignificance, byte SecurityEnable )
   1259          {
   \   000000                REQUIRE ?V0
   \   000000                REQUIRE ?V1
   \   000000   74F6         MOV     A,#-0xa
   \   000002   12....       LCALL   ?BANKED_ENTER_XDATA
   \   000005                ; Saved register size: 10
   \   000005                ; Auto size: 0
   1260            (void)SecurityEnable;  // Intentionally unreferenced parameter
   1261          
   1262            // Build buffer
   1263            ZDP_TmpBuf[ZDP_MGMT_PERMIT_JOIN_REQ_DURATION] = duration;
   \   000005   12....       LCALL   ?Subroutine48 & 0xFFFF
   \                     ??CrossCallReturnLabel_186:
   \   000008   E9           MOV     A,R1
   \   000009   12....       LCALL   ?Subroutine22 & 0xFFFF
   1264            ZDP_TmpBuf[ZDP_MGMT_PERMIT_JOIN_REQ_TC_SIG]   = TcSignificance;
   \                     ??CrossCallReturnLabel_25:
   \   00000C   EC           MOV     A,R4
   \   00000D   F0           MOVX    @DPTR,A
   1265          
   1266            // Send the message
   1267            return fillAndSend( &ZDP_TransID, dstAddr, Mgmt_Permit_Join_req,
   1268                                ZDP_MGMT_PERMIT_JOIN_REQ_SIZE );
   \   00000E                ; Setup parameters for call to function fillAndSend
   \   00000E   75..36       MOV     ?V0,#0x36
   \   000011   02....       LJMP    ?Subroutine2 & 0xFFFF
   1269          }
   1270          
   1271          /*********************************************************************
   1272           * @fn          ZDP_MgmtLeaveReq
   1273           *
   1274           * @brief       This builds and send a Mgmt_Leave_req message.
   1275           *
   1276           * @param       dstAddr - destination address of the message
   1277           *              IEEEAddr - IEEE adddress of device that is removed
   1278           *              RemoveChildren - set to 1 to remove the children of the
   1279           *                                device as well. 0 otherwise.
   1280           *              Rejoin - set to 1 if the removed device should rejoin
   1281                                   afterwards. 0 otherwise.
   1282           *
   1283           * @return      afStatus_t
   1284           */

   \                                 In  segment BANKED_CODE, align 1, keep-with-next
   1285          afStatus_t ZDP_MgmtLeaveReq( zAddrType_t *dstAddr, uint8 *IEEEAddr, uint8 RemoveChildren,
   \                     ZDP_MgmtLeaveReq:
   1286                           uint8 Rejoin, uint8 SecurityEnable )
   1287          
   1288          {
   \   000000                REQUIRE ?V0
   \   000000                REQUIRE ?V2
   \   000000                REQUIRE ?V3
   \   000000   74F4         MOV     A,#-0xc
   \   000002   12....       LCALL   ?BANKED_ENTER_XDATA
   \   000005                ; Saved register size: 12
   \   000005                ; Auto size: 0
   \   000005   12....       LCALL   ?Subroutine63 & 0xFFFF
   1289            (void)SecurityEnable;  // Intentionally unreferenced parameter
   1290          
   1291            osal_cpyExtAddr( ZDP_TmpBuf, IEEEAddr );
   \                     ??CrossCallReturnLabel_171:
   \   000008   12....       LCALL   ??sAddrExtCpy?relay  ; Banked call to: sAddrExtCpy
   1292            ZDP_TmpBuf[Z_EXTADDR_LEN] = 0;
   \   00000B   12....       LCALL   ?Subroutine47 & 0xFFFF
   \                     ??CrossCallReturnLabel_67:
   \   00000E   E4           CLR     A
   \   00000F   F0           MOVX    @DPTR,A
   1293          
   1294            if ( RemoveChildren == TRUE )
   \   000010   04           INC     A
   \   000011   65..         XRL     A,?V0
   \   000013   7006         JNZ     ??ZDP_MgmtLeaveReq_0
   1295            {
   1296              ZDP_TmpBuf[Z_EXTADDR_LEN] |= ZDP_MGMT_LEAVE_REQ_RC;
   \   000015   12....       LCALL   ?Subroutine47 & 0xFFFF
   1297            }
   \                     ??CrossCallReturnLabel_68:
   \   000018   7440         MOV     A,#0x40
   \   00001A   F0           MOVX    @DPTR,A
   1298            if ( Rejoin == TRUE )
   \                     ??ZDP_MgmtLeaveReq_0:
   \   00001B   740C         MOV     A,#0xc
   \   00001D   12....       LCALL   ?XSTACK_DISP0_8
   \   000020   E0           MOVX    A,@DPTR
   \   000021   6401         XRL     A,#0x1
   \   000023   7007         JNZ     ??ZDP_MgmtLeaveReq_1
   1299            {
   1300              ZDP_TmpBuf[Z_EXTADDR_LEN] |= ZDP_MGMT_LEAVE_REQ_REJOIN;
   \   000025   12....       LCALL   ?Subroutine47 & 0xFFFF
   1301            }
   \                     ??CrossCallReturnLabel_69:
   \   000028   E0           MOVX    A,@DPTR
   \   000029   D2E7         SETB    0xE0 /* A   */.7
   \   00002B   F0           MOVX    @DPTR,A
   1302          
   1303            return fillAndSend( &ZDP_TransID, dstAddr, Mgmt_Leave_req, (Z_EXTADDR_LEN + 1) );
   \                     ??ZDP_MgmtLeaveReq_1:
   \   00002C                ; Setup parameters for call to function fillAndSend
   \   00002C   75..34       MOV     ?V2,#0x34
   \   00002F   02....       LJMP    ?Subroutine1 & 0xFFFF
   1304          }
   1305          
   1306          /*********************************************************************
   1307           * @fn          ZDP_MgmtNwkUpdateReq
   1308           *
   1309           * @brief       This builds and send a Mgmt_NWK_Update_req message. This
   1310           *              function sends a unicast or broadcast message.
   1311           *
   1312           * @param       dstAddr - destination address of the message
   1313           * @param       ChannelMask - 32 bit address bit map
   1314           * @param       ScanDuration - length of time to spend scanning each channel
   1315           * @param       ScanCount - number of energy scans to be conducted
   1316           * @param       NwkUpdateId - NWk Update Id value
   1317           * @param       NwkManagerAddr - NWK address for device with Network Manager
   1318           *                               bit set in its Node Descriptor
   1319           *
   1320           * @return      afStatus_t
   1321           */

   \                                 In  segment BANKED_CODE, align 1, keep-with-next
   1322          afStatus_t ZDP_MgmtNwkUpdateReq( zAddrType_t *dstAddr,
   \                     ZDP_MgmtNwkUpdateReq:
   1323                                           uint32 ChannelMask,
   1324                                           uint8 ScanDuration,
   1325                                           uint8 ScanCount,
   1326                                           uint8 NwkUpdateId,
   1327                                           uint16 NwkManagerAddr )
   1328          {
   \   000000                REQUIRE ?V0
   \   000000                REQUIRE ?V1
   \   000000                REQUIRE ?V2
   \   000000                REQUIRE ?V3
   \   000000                REQUIRE ?V4
   \   000000                REQUIRE ?V5
   \   000000   74F2         MOV     A,#-0xe
   \   000002   12....       LCALL   ?BANKED_ENTER_XDATA
   \   000005                ; Saved register size: 14
   \   000005                ; Auto size: 0
   \   000005   8A..         MOV     ?V4,R2
   \   000007   8B..         MOV     ?V5,R3
   \   000009   E9           MOV     A,R1
   \   00000A   FE           MOV     R6,A
   \   00000B   8C..         MOV     ?V1,R4
   \   00000D   ED           MOV     A,R5
   \   00000E   FF           MOV     R7,A
   1329            uint8 *pBuf = ZDP_TmpBuf;
   1330            byte len = sizeof( uint32 ) + 1;  // ChannelMask + ScanDuration
   \   00000F   75..05       MOV     ?V0,#0x5
   1331          
   1332            pBuf = osal_buffer_uint32( pBuf, ChannelMask );
   \   000012                ; Setup parameters for call to function osal_buffer_uint32
   \   000012   740E         MOV     A,#0xe
   \   000014   12....       LCALL   ?XSTACK_DISP0_8
   \   000017   12....       LCALL   ?PUSH_XSTACK8_X_FOUR
   \   00001A   12....       LCALL   ??Subroutine109_0 & 0xFFFF
   \                     ??CrossCallReturnLabel_181:
   \   00001D   12....       LCALL   ??osal_buffer_uint32?relay; Banked call to: osal_buffer_uint32
   \   000020   7404         MOV     A,#0x4
   \   000022   12....       LCALL   ?DEALLOC_XSTACK8
   \   000025   8A..         MOV     ?V2,R2
   \   000027   8B..         MOV     ?V3,R3
   \   000029   A8..         MOV     R0,?V2
   \   00002B   A9..         MOV     R1,?V3
   1333          
   1334            *pBuf++ = ScanDuration;
   \   00002D   EE           MOV     A,R6
   \   00002E   8882         MOV     DPL,R0
   \   000030   8983         MOV     DPH,R1
   \   000032   F0           MOVX    @DPTR,A
   \   000033   A3           INC     DPTR
   1335          
   1336            if ( ScanDuration <= 0x05 )
   \   000034   C3           CLR     C
   \   000035   9406         SUBB    A,#0x6
   \   000037   5007         JNC     ??ZDP_MgmtNwkUpdateReq_0
   1337            {
   1338              // Request is to scan over channelMask
   1339              len += sizeof( uint8 );
   \   000039   75..06       MOV     ?V0,#0x6
   1340          
   1341              *pBuf++ = ScanCount;
   \   00003C   E5..         MOV     A,?V1
   \   00003E   8028         SJMP    ??ZDP_MgmtNwkUpdateReq_1
   1342            }
   1343            else if ( ( ScanDuration == 0xFE ) || ( ScanDuration == 0xFF ) )
   \                     ??ZDP_MgmtNwkUpdateReq_0:
   \   000040   74FE         MOV     A,#-0x2
   \   000042   6E           XRL     A,R6
   \   000043   6005         JZ      ??ZDP_MgmtNwkUpdateReq_2
   \   000045   74FF         MOV     A,#-0x1
   \   000047   6E           XRL     A,R6
   \   000048   701F         JNZ     ??ZDP_MgmtNwkUpdateReq_3
   1344            {
   1345              // Request is to change Channel (0xFE) or apsChannelMask and NwkManagerAddr (0xFF)
   1346              len += sizeof( uint8 );
   \                     ??ZDP_MgmtNwkUpdateReq_2:
   \   00004A   75..06       MOV     ?V0,#0x6
   1347          
   1348              *pBuf++ = NwkUpdateId;
   \   00004D   EF           MOV     A,R7
   \   00004E   12....       LCALL   ??Subroutine113_0 & 0xFFFF
   1349          
   1350              if ( ScanDuration == 0xFF )
   \                     ??CrossCallReturnLabel_201:
   \   000051   74FF         MOV     A,#-0x1
   \   000053   6E           XRL     A,R6
   \   000054   7013         JNZ     ??ZDP_MgmtNwkUpdateReq_3
   1351              {
   1352                len += sizeof( uint16 );
   \   000056   75..08       MOV     ?V0,#0x8
   \   000059   7412         MOV     A,#0x12
   \   00005B   12....       LCALL   ?XSTACK_DISP0_8
   \   00005E   12....       LCALL   ?Subroutine62 & 0xFFFF
   1353          
   1354                *pBuf++  = LO_UINT16( NwkManagerAddr );
   \                     ??CrossCallReturnLabel_95:
   \   000061   8882         MOV     DPL,R0
   \   000063   8983         MOV     DPH,R1
   \   000065   F0           MOVX    @DPTR,A
   \   000066   A3           INC     DPTR
   1355                *pBuf++  = HI_UINT16( NwkManagerAddr );
   \   000067   EB           MOV     A,R3
   \                     ??ZDP_MgmtNwkUpdateReq_1:
   \   000068   F0           MOVX    @DPTR,A
   1356              }
   1357            }
   1358          
   1359            return fillAndSend( &ZDP_TransID, dstAddr, Mgmt_NWK_Update_req, len );
   \                     ??ZDP_MgmtNwkUpdateReq_3:
   \   000069                ; Setup parameters for call to function fillAndSend
   \   000069   75..38       MOV     ?V2,#0x38
   \   00006C   75..00       MOV     ?V3,#0x0
   \   00006F   78..         MOV     R0,#?V2
   \   000071   12....       LCALL   ?PUSH_XSTACK_I_TWO
   \   000074   A9..         MOV     R1,?V0
   \   000076   AC..         MOV     R4,?V4
   \   000078   AD..         MOV     R5,?V5
   \   00007A   7A..         MOV     R2,#ZDP_TransID & 0xff
   \   00007C   7B..         MOV     R3,#(ZDP_TransID >> 8) & 0xff
   \   00007E   12....       LCALL   ??fillAndSend?relay  ; Banked call to: fillAndSend
   \   000081   7402         MOV     A,#0x2
   \   000083   12....       LCALL   ?DEALLOC_XSTACK8
   \   000086   02....       LJMP    ?Subroutine3 & 0xFFFF
   1360          }

   \                                 In  segment BANKED_CODE, align 1, keep-with-next
   \                     ?Subroutine62:
   \   000000   E0           MOVX    A,@DPTR
   \   000001   FA           MOV     R2,A
   \   000002   A3           INC     DPTR
   \   000003   E0           MOVX    A,@DPTR
   \   000004   FB           MOV     R3,A
   \   000005   EA           MOV     A,R2
   \   000006   22           RET
   1361          
   1362          
   1363          /*********************************************************************
   1364           * Network Management Responses
   1365           */
   1366          
   1367          /*********************************************************************
   1368           * @fn          ZDP_MgmtNwkDiscRsp
   1369           *
   1370           * @brief       This builds and send a Mgmt_NWK_Disc_rsp message. This
   1371           *              function sends a unicast message.
   1372           *
   1373           * @param       dstAddr - destination address of the message
   1374           * @param       Status - message status (ZDP_SUCCESS or other)
   1375           * @param       NetworkCount - Total number of networks found
   1376           * @param       StartIndex - Starting index within the reporting network
   1377           *                           list
   1378           * @param       NetworkListCount - number of network lists included
   1379           *                                 in this message
   1380           * @param       NetworkList - List of network descriptors
   1381           * @param       SecurityEnable - Security Options
   1382           *
   1383           * @return      afStatus_t
   1384           */

   \                                 In  segment BANKED_CODE, align 1, keep-with-next
   1385          afStatus_t ZDP_MgmtNwkDiscRsp( byte TransSeq, zAddrType_t *dstAddr,
   \                     ZDP_MgmtNwkDiscRsp:
   1386                                      byte Status,
   1387                                      byte NetworkCount,
   1388                                      byte StartIndex,
   1389                                      byte NetworkListCount,
   1390                                      networkDesc_t *NetworkList,
   1391                                      byte SecurityEnable )
   1392          {
   \   000000                REQUIRE ?V0
   \   000000                REQUIRE ?V1
   \   000000                REQUIRE ?V2
   \   000000                REQUIRE ?V3
   \   000000                REQUIRE ?V4
   \   000000                REQUIRE ?V5
   \   000000                REQUIRE ?V6
   \   000000                REQUIRE ?V7
   \   000000   74F0         MOV     A,#-0x10
   \   000002   12....       LCALL   ?BANKED_ENTER_XDATA
   \   000005                ; Saved register size: 16
   \   000005                ; Auto size: 4
   \   000005   74FC         MOV     A,#-0x4
   \   000007   12....       LCALL   ?ALLOC_XSTACK8
   \   00000A   7401         MOV     A,#0x1
   \   00000C   12....       LCALL   ?XSTACK_DISP0_8
   \   00000F   E9           MOV     A,R1
   \   000010   F0           MOVX    @DPTR,A
   \   000011   7402         MOV     A,#0x2
   \   000013   12....       LCALL   ?XSTACK_DISP0_8
   \   000016   12....       LCALL   ?Subroutine15 & 0xFFFF
   \                     ??CrossCallReturnLabel_10:
   \   000019   12....       LCALL   ?XSTACK_DISP0_8
   \   00001C   E0           MOVX    A,@DPTR
   \   00001D   F5..         MOV     ?V3,A
   1393            uint8 *buf;
   1394            uint8 *pBuf;
   1395            byte len = 1+1+1+1;  // Status + NetworkCount + StartIndex + NetworkCountList.
   1396            byte idx;
   1397          
   1398            (void)SecurityEnable;  // Intentionally unreferenced parameter
   1399          
   1400            len += (NetworkListCount * ( ZDP_NETWORK_EXTENDED_DISCRIPTOR_SIZE - 2 ));
   \   00001F   75F00C       MOV     B,#0xc
   \   000022   A4           MUL     AB
   \   000023   2404         ADD     A,#0x4
   \   000025   F5..         MOV     ?V6,A
   1401          
   1402            buf = osal_mem_alloc( len+1 );
   \   000027                ; Setup parameters for call to function osal_mem_alloc
   \   000027   12....       LCALL   ?Subroutine65 & 0xFFFF
   \                     ??CrossCallReturnLabel_98:
   \   00002A   12....       LCALL   ??osal_mem_alloc?relay; Banked call to: osal_mem_alloc
   \   00002D   8A..         MOV     ?V4,R2
   \   00002F   8B..         MOV     ?V5,R3
   1403            if ( buf == NULL )
   \   000031   EA           MOV     A,R2
   \   000032   45..         ORL     A,?V5
   \   000034   7005         JNZ     ??ZDP_MgmtNwkDiscRsp_0
   1404            {
   1405              return afStatus_MEM_FAIL;
   \   000036   7910         MOV     R1,#0x10
   \   000038   02....       LJMP    ??CrossCallReturnLabel_39 & 0xFFFF
   1406            }
   1407          
   1408            pBuf = buf+1;
   \                     ??ZDP_MgmtNwkDiscRsp_0:
   \   00003B   8A82         MOV     DPL,R2
   \   00003D   8B83         MOV     DPH,R3
   \   00003F   A3           INC     DPTR
   \   000040   AE82         MOV     R6,DPL
   \   000042   AF83         MOV     R7,DPH
   1409          
   1410            *pBuf++ = Status;
   \   000044   85..82       MOV     DPL,?XSP + 0
   \   000047   85..83       MOV     DPH,?XSP + 1
   \   00004A   12....       LCALL   ?Subroutine33 & 0xFFFF
   1411            *pBuf++ = NetworkCount;
   1412            *pBuf++ = StartIndex;
   \                     ??CrossCallReturnLabel_44:
   \   00004D   7414         MOV     A,#0x14
   \   00004F   12....       LCALL   ?XSTACK_DISP0_8
   \   000052   12....       LCALL   ??Subroutine119_0 & 0xFFFF
   \                     ??CrossCallReturnLabel_232:
   \   000055   F0           MOVX    @DPTR,A
   \   000056   A3           INC     DPTR
   1413            *pBuf++ = NetworkListCount;
   \   000057   E5..         MOV     A,?V3
   \   000059   F0           MOVX    @DPTR,A
   \   00005A   A3           INC     DPTR
   \   00005B   0E           INC     R6
   \   00005C   0E           INC     R6
   \   00005D   AF83         MOV     R7,DPH
   1414          
   1415            for ( idx = 0; idx < NetworkListCount; idx++ )
   \   00005F   75..00       MOV     ?V2,#0x0
   \   000062   7416         MOV     A,#0x16
   \   000064   12....       LCALL   ?XSTACK_DISP0_8
   \   000067   12....       LCALL   ??Subroutine114_0 & 0xFFFF
   \                     ??CrossCallReturnLabel_212:
   \   00006A   800C         SJMP    ??ZDP_MgmtNwkDiscRsp_1
   1416            {
   1417              osal_cpyExtAddr( pBuf, NetworkList->extendedPANID);
   1418              pBuf += Z_EXTADDR_LEN;
   1419          
   1420              *pBuf++  = NetworkList->logicalChannel;                // LogicalChannel
   1421              *pBuf    = NetworkList->stackProfile;                  // Stack profile
   1422              *pBuf++ |= (byte)(NetworkList->version << 4);          // ZigBee Version
   1423              *pBuf    = BEACON_ORDER_NO_BEACONS;                    // Beacon Order
   1424              *pBuf++ |= (uint8)(BEACON_ORDER_NO_BEACONS << 4);      // Superframe Order
   1425          
   1426              if ( NetworkList->chosenRouter != INVALID_NODE_ADDR )
   1427              {
   1428                *pBuf++ = TRUE;                         // Permit Joining
   1429              }
   1430              else
   1431              {
   1432                *pBuf++ = FALSE;
   \                     ??ZDP_MgmtNwkDiscRsp_2:
   \   00006C   E4           CLR     A
   1433              }
   \                     ??ZDP_MgmtNwkDiscRsp_3:
   \   00006D   12....       LCALL   ?Subroutine14 & 0xFFFF
   1434          
   1435              NetworkList = NetworkList->nextDesc;    // Move to next list entry
   \                     ??CrossCallReturnLabel_8:
   \   000070   F5..         MOV     ?V0,A
   \   000072   A3           INC     DPTR
   \   000073   E0           MOVX    A,@DPTR
   \   000074   F5..         MOV     ?V1,A
   \   000076   05..         INC     ?V2
   \                     ??ZDP_MgmtNwkDiscRsp_1:
   \   000078   E5..         MOV     A,?V2
   \   00007A   C3           CLR     C
   \   00007B   95..         SUBB    A,?V3
   \   00007D   506C         JNC     ??ZDP_MgmtNwkDiscRsp_4
   \   00007F                ; Setup parameters for call to function sAddrExtCpy
   \   00007F   E5..         MOV     A,?V0
   \   000081   240B         ADD     A,#0xb
   \   000083   FC           MOV     R4,A
   \   000084   E4           CLR     A
   \   000085   35..         ADDC    A,?V1
   \   000087   FD           MOV     R5,A
   \   000088   EE           MOV     A,R6
   \   000089   FA           MOV     R2,A
   \   00008A   EF           MOV     A,R7
   \   00008B   FB           MOV     R3,A
   \   00008C   12....       LCALL   ??sAddrExtCpy?relay  ; Banked call to: sAddrExtCpy
   \   00008F   EE           MOV     A,R6
   \   000090   2408         ADD     A,#0x8
   \   000092   FE           MOV     R6,A
   \   000093   5001         JNC     ??ZDP_MgmtNwkDiscRsp_5
   \   000095   0F           INC     R7
   \                     ??ZDP_MgmtNwkDiscRsp_5:
   \   000096   85..82       MOV     DPL,?V0
   \   000099   85..83       MOV     DPH,?V1
   \   00009C   A3           INC     DPTR
   \   00009D   A3           INC     DPTR
   \   00009E   12....       LCALL   ?Subroutine42 & 0xFFFF
   \                     ??CrossCallReturnLabel_218:
   \   0000A1   85..82       MOV     DPL,?V0
   \   0000A4   85..83       MOV     DPH,?V1
   \   0000A7   A3           INC     DPTR
   \   0000A8   A3           INC     DPTR
   \   0000A9   A3           INC     DPTR
   \   0000AA   A3           INC     DPTR
   \   0000AB   A3           INC     DPTR
   \   0000AC   12....       LCALL   ?Subroutine64 & 0xFFFF
   \                     ??CrossCallReturnLabel_234:
   \   0000AF   12....       LCALL   ?Subroutine43 & 0xFFFF
   \                     ??CrossCallReturnLabel_60:
   \   0000B2   85..82       MOV     DPL,?V0
   \   0000B5   85..83       MOV     DPH,?V1
   \   0000B8   A3           INC     DPTR
   \   0000B9   A3           INC     DPTR
   \   0000BA   A3           INC     DPTR
   \   0000BB   A3           INC     DPTR
   \   0000BC   A3           INC     DPTR
   \   0000BD   12....       LCALL   ?Subroutine54 & 0xFFFF
   \                     ??CrossCallReturnLabel_83:
   \   0000C0   8E82         MOV     DPL,R6
   \   0000C2   8F83         MOV     DPH,R7
   \   0000C4   740F         MOV     A,#0xf
   \   0000C6   F0           MOVX    @DPTR,A
   \   0000C7   08           INC     R0
   \   0000C8   EF           MOV     A,R7
   \   0000C9   F9           MOV     R1,A
   \   0000CA   A3           INC     DPTR
   \   0000CB   0E           INC     R6
   \   0000CC   AF83         MOV     R7,DPH
   \   0000CE   8882         MOV     DPL,R0
   \   0000D0   8983         MOV     DPH,R1
   \   0000D2   740F         MOV     A,#0xf
   \   0000D4   44F0         ORL     A,#0xf0
   \   0000D6   12....       LCALL   ?Subroutine18 & 0xFFFF
   \                     ??CrossCallReturnLabel_17:
   \   0000D9   E0           MOVX    A,@DPTR
   \   0000DA   64FE         XRL     A,#0xfe
   \   0000DC   7003         JNZ     ??ZDP_MgmtNwkDiscRsp_6
   \   0000DE   A3           INC     DPTR
   \   0000DF   E0           MOVX    A,@DPTR
   \   0000E0   F4           CPL     A
   \                     ??ZDP_MgmtNwkDiscRsp_6:
   \   0000E1   8E82         MOV     DPL,R6
   \   0000E3   8F83         MOV     DPH,R7
   \   0000E5   6085         JZ      ??ZDP_MgmtNwkDiscRsp_2
   \   0000E7   7401         MOV     A,#0x1
   \   0000E9   8082         SJMP    ??ZDP_MgmtNwkDiscRsp_3
   1436            }
   1437          
   1438            FillAndSendBuffer( &TransSeq, dstAddr, Mgmt_NWK_Disc_rsp, len, buf );
   \                     ??ZDP_MgmtNwkDiscRsp_4:
   \   0000EB   85..82       MOV     DPL,?V4
   \   0000EE   85..83       MOV     DPH,?V5
   \   0000F1   12....       LCALL   ??Subroutine116_0 & 0xFFFF
   \                     ??CrossCallReturnLabel_227:
   \   0000F4                ; Setup parameters for call to function fillAndSend
   \   0000F4   75..30       MOV     ?V0,#0x30
   \   0000F7   75..80       MOV     ?V1,#-0x80
   \   0000FA   78..         MOV     R0,#?V0
   \   0000FC   12....       LCALL   ?PUSH_XSTACK_I_TWO
   \   0000FF   A9..         MOV     R1,?V6
   \   000101   7404         MOV     A,#0x4
   \   000103   12....       LCALL   ?XSTACK_DISP0_8
   \   000106   12....       LCALL   ?Subroutine50 & 0xFFFF
   \                     ??CrossCallReturnLabel_73:
   \   000109   12....       LCALL   ?XSTACK_DISP101_8
   \   00010C   12....       LCALL   ??fillAndSend?relay  ; Banked call to: fillAndSend
   \   00010F   7402         MOV     A,#0x2
   \   000111   12....       LCALL   ?DEALLOC_XSTACK8
   \   000114   E9           MOV     A,R1
   \   000115   FE           MOV     R6,A
   \   000116                ; Setup parameters for call to function osal_mem_free
   \   000116   AA..         MOV     R2,?V4
   \   000118   AB..         MOV     R3,?V5
   \   00011A   12....       LCALL   ??osal_mem_free?relay; Banked call to: osal_mem_free
   \   00011D   12....       LCALL   ?Subroutine30 & 0xFFFF
   \                     ??CrossCallReturnLabel_39:
   \   000120                REQUIRE ?Subroutine8
   \   000120                ; // Fall through to label ?Subroutine8
   1439          }

   \                                 In  segment BANKED_CODE, align 1, keep-with-next
   \                     ?Subroutine8:
   \   000000   7404         MOV     A,#0x4
   \   000002   02....       LJMP    ??Subroutine120_0 & 0xFFFF

   \                                 In  segment BANKED_CODE, align 1, keep-with-next
   \                     ?Subroutine42:
   \   000000   12....       LCALL   ?Subroutine83 & 0xFFFF
   \                     ??CrossCallReturnLabel_238:
   \   000003                REQUIRE ??Subroutine115_0
   \   000003                ; // Fall through to label ??Subroutine115_0

   \                                 In  segment BANKED_CODE, align 1, keep-with-next
   \                     ??Subroutine115_0:
   \   000000   F0           MOVX    @DPTR,A
   \   000001   A3           INC     DPTR
   \   000002   AE82         MOV     R6,DPL
   \   000004   AF83         MOV     R7,DPH
   \   000006   22           RET

   \                                 In  segment BANKED_CODE, align 1, keep-with-next
   \                     ??Subroutine116_0:
   \   000000   A3           INC     DPTR
   \   000001   A882         MOV     R0,DPL
   \   000003   A983         MOV     R1,DPH
   \   000005   90....       MOV     DPTR,#ZDP_TmpBuf
   \   000008                REQUIRE ??Subroutine117_0
   \   000008                ; // Fall through to label ??Subroutine117_0

   \                                 In  segment BANKED_CODE, align 1, keep-with-next
   \                     ?Subroutine64:
   \   000000   A3           INC     DPTR
   \   000001                REQUIRE ??Subroutine119_0
   \   000001                ; // Fall through to label ??Subroutine119_0

   \                                 In  segment BANKED_CODE, align 1, keep-with-next
   \                     ??Subroutine119_0:
   \   000000   12....       LCALL   ?Subroutine83 & 0xFFFF
   \                     ??CrossCallReturnLabel_239:
   \   000003   22           RET

   \                                 In  segment BANKED_CODE, align 1, keep-with-next
   \                     ?Subroutine83:
   \   000000   E0           MOVX    A,@DPTR
   \   000001   8E82         MOV     DPL,R6
   \   000003   8F83         MOV     DPH,R7
   \   000005   22           RET

   \                                 In  segment BANKED_CODE, align 1, keep-with-next
   \                     ?Subroutine54:
   \   000000   E0           MOVX    A,@DPTR
   \   000001   C4           SWAP    A
   \   000002   54F0         ANL     A,#0xf0
   \   000004   FA           MOV     R2,A
   \   000005   8882         MOV     DPL,R0
   \   000007   8983         MOV     DPH,R1
   \   000009   E0           MOVX    A,@DPTR
   \   00000A   4A           ORL     A,R2
   \   00000B   F0           MOVX    @DPTR,A
   \   00000C   22           RET

   \                                 In  segment BANKED_CODE, align 1, keep-with-next
   \                     ?Subroutine50:
   \   000000   E0           MOVX    A,@DPTR
   \   000001   FC           MOV     R4,A
   \   000002   A3           INC     DPTR
   \   000003   E0           MOVX    A,@DPTR
   \   000004   FD           MOV     R5,A
   \   000005   7403         MOV     A,#0x3
   \   000007   22           RET

   \                                 In  segment BANKED_CODE, align 1, keep-with-next
   \                     ?Subroutine43:
   \   000000   F0           MOVX    @DPTR,A
   \   000001   EE           MOV     A,R6
   \   000002   F8           MOV     R0,A
   \   000003   EF           MOV     A,R7
   \   000004   F9           MOV     R1,A
   \   000005   A3           INC     DPTR
   \   000006   0E           INC     R6
   \   000007   AF83         MOV     R7,DPH
   \   000009   22           RET

   \                                 In  segment BANKED_CODE, align 1, keep-with-next
   \                     ?Subroutine33:
   \   000000   12....       LCALL   ?Subroutine83 & 0xFFFF
   \                     ??CrossCallReturnLabel_237:
   \   000003   F0           MOVX    @DPTR,A
   \   000004   A3           INC     DPTR
   \   000005   E5..         MOV     A,?V7
   \   000007   F0           MOVX    @DPTR,A
   \   000008   A3           INC     DPTR
   \   000009   0E           INC     R6
   \   00000A   0E           INC     R6
   \   00000B   AF83         MOV     R7,DPH
   \   00000D   22           RET

   \                                 In  segment BANKED_CODE, align 1, keep-with-next
   \                     ?Subroutine30:
   \   000000   90....       MOV     DPTR,#ZDP_TmpBuf
   \   000003   74..         MOV     A,#(ZDP_Buf + 1) & 0xff
   \   000005   F0           MOVX    @DPTR,A
   \   000006   A3           INC     DPTR
   \   000007   74..         MOV     A,#((ZDP_Buf + 1) >> 8) & 0xff
   \   000009   F0           MOVX    @DPTR,A
   \   00000A   EE           MOV     A,R6
   \   00000B   F9           MOV     R1,A
   \   00000C   22           RET

   \                                 In  segment BANKED_CODE, align 1, keep-with-next
   \                     ?Subroutine14:
   \   000000   F0           MOVX    @DPTR,A
   \   000001   A3           INC     DPTR
   \   000002   0E           INC     R6
   \   000003   AF83         MOV     R7,DPH
   \   000005   E5..         MOV     A,?V0
   \   000007   2414         ADD     A,#0x14
   \   000009   F582         MOV     DPL,A
   \   00000B   E4           CLR     A
   \   00000C   35..         ADDC    A,?V1
   \   00000E   F583         MOV     DPH,A
   \   000010   E0           MOVX    A,@DPTR
   \   000011   22           RET

   \                                 In  segment BANKED_CODE, align 1, keep-with-next
   \                     ?Subroutine65:
   \   000000   2401         ADD     A,#0x1
   \   000002   FA           MOV     R2,A
   \   000003   E4           CLR     A
   \   000004   3400         ADDC    A,#0x0
   \   000006   FB           MOV     R3,A
   \   000007   22           RET

   \                                 In  segment BANKED_CODE, align 1, keep-with-next
   \                     ?Subroutine15:
   \   000000   EA           MOV     A,R2
   \   000001   F0           MOVX    @DPTR,A
   \   000002   A3           INC     DPTR
   \   000003   EB           MOV     A,R3
   \   000004   F0           MOVX    @DPTR,A
   \   000005   EC           MOV     A,R4
   \   000006   85..82       MOV     DPL,?XSP + 0
   \   000009   85..83       MOV     DPH,?XSP + 1
   \   00000C   F0           MOVX    @DPTR,A
   \   00000D   8D..         MOV     ?V7,R5
   \   00000F   7415         MOV     A,#0x15
   \   000011   22           RET
   1440          
   1441          /*********************************************************************
   1442           * @fn          ZDP_MgmtLqiRsp
   1443           *
   1444           * @brief       This builds and send a Mgmt_Lqi_rsp message. This
   1445           *              function sends a unicast message.
   1446           *
   1447           * @param       dstAddr - destination address of the message
   1448           * @param       Status - message status (ZDP_SUCCESS or other)
   1449           * @param       NeighborLqiEntries - Total number of entries found
   1450           * @param       StartIndex - Starting index within the reporting list
   1451           * @param       NeighborLqiCount - number of lists included
   1452           *                                 in this message
   1453           * @param       NeighborLqiList - List of NeighborLqiItems.  This list
   1454           *                is the list to be sent, not the entire list
   1455           * @param       SecurityEnable - true if secure
   1456           *
   1457           * @return      ZStatus_t
   1458           */

   \                                 In  segment BANKED_CODE, align 1, keep-with-next
   \                     ?Subroutine35:
   \   000000   85..82       MOV     DPL,?V2
   \   000003   85..83       MOV     DPH,?V3
   \   000006                REQUIRE ??Subroutine116_0
   \   000006                ; // Fall through to label ??Subroutine116_0

   \                                 In  segment BANKED_CODE, align 1, keep-with-next
   1459          ZStatus_t ZDP_MgmtLqiRsp( byte TransSeq, zAddrType_t *dstAddr,
   \                     ZDP_MgmtLqiRsp:
   1460                                    byte Status,
   1461                                    byte NeighborLqiEntries,
   1462                                    byte StartIndex,
   1463                                    byte NeighborLqiCount,
   1464                                    ZDP_MgmtLqiItem_t* NeighborList,
   1465                                    byte SecurityEnable )
   1466          {
   \   000000                REQUIRE ?V0
   \   000000                REQUIRE ?V1
   \   000000                REQUIRE ?V2
   \   000000                REQUIRE ?V3
   \   000000                REQUIRE ?V4
   \   000000                REQUIRE ?V5
   \   000000                REQUIRE ?V6
   \   000000                REQUIRE ?V7
   \   000000   74F0         MOV     A,#-0x10
   \   000002   12....       LCALL   ?BANKED_ENTER_XDATA
   \   000005                ; Saved register size: 16
   \   000005                ; Auto size: 5
   \   000005   74FB         MOV     A,#-0x5
   \   000007   12....       LCALL   ?ALLOC_XSTACK8
   \   00000A   7401         MOV     A,#0x1
   \   00000C   12....       LCALL   ?XSTACK_DISP0_8
   \   00000F   E9           MOV     A,R1
   \   000010   F0           MOVX    @DPTR,A
   \   000011   7403         MOV     A,#0x3
   \   000013   12....       LCALL   ?XSTACK_DISP0_8
   \   000016   12....       LCALL   ??Subroutine123_0 & 0xFFFF
   \                     ??CrossCallReturnLabel_253:
   \   000019   EC           MOV     A,R4
   \   00001A   85..82       MOV     DPL,?XSP + 0
   \   00001D   85..83       MOV     DPH,?XSP + 1
   \   000020   F0           MOVX    @DPTR,A
   \   000021   7402         MOV     A,#0x2
   \   000023   12....       LCALL   ?XSTACK_DISP0_8
   \   000026   ED           MOV     A,R5
   \   000027   F0           MOVX    @DPTR,A
   1467            ZDP_MgmtLqiItem_t* list = NeighborList;
   \   000028   7417         MOV     A,#0x17
   \   00002A   12....       LCALL   ?XSTACK_DISP0_8
   \   00002D   12....       LCALL   ??Subroutine114_0 & 0xFFFF
   1468            uint8 *buf, *pBuf;
   1469            byte len, x;
   1470          
   1471            (void)SecurityEnable;  // Intentionally unreferenced parameter
   1472          
   1473            if ( ZSuccess != Status )
   \                     ??CrossCallReturnLabel_213:
   \   000030   85..82       MOV     DPL,?XSP + 0
   \   000033   85..83       MOV     DPH,?XSP + 1
   \   000036   E0           MOVX    A,@DPTR
   \   000037   602B         JZ      ??ZDP_MgmtLqiRsp_0
   1474            {
   1475              ZDP_TmpBuf[0] = Status;
   \   000039   C0E0         PUSH    A
   \   00003B   12....       LCALL   ?Subroutine48 & 0xFFFF
   \                     ??CrossCallReturnLabel_187:
   \   00003E   D0E0         POP     A
   \   000040   F0           MOVX    @DPTR,A
   1476              return fillAndSend( &TransSeq, dstAddr, Mgmt_Lqi_rsp, 1 );
   \   000041                ; Setup parameters for call to function fillAndSend
   \   000041   75..31       MOV     ?V0,#0x31
   \   000044   75..80       MOV     ?V1,#-0x80
   \   000047   78..         MOV     R0,#?V0
   \   000049   12....       LCALL   ?PUSH_XSTACK_I_TWO
   \   00004C   7901         MOV     R1,#0x1
   \   00004E   7405         MOV     A,#0x5
   \   000050   12....       LCALL   ?XSTACK_DISP0_8
   \   000053   12....       LCALL   ?Subroutine50 & 0xFFFF
   1477            }
   \                     ??CrossCallReturnLabel_74:
   \   000056   12....       LCALL   ?XSTACK_DISP101_8
   \   000059   12....       LCALL   ??fillAndSend?relay  ; Banked call to: fillAndSend
   \   00005C   7402         MOV     A,#0x2
   \   00005E   12....       LCALL   ?DEALLOC_XSTACK8
   \   000061   02....       LJMP    ??CrossCallReturnLabel_40 & 0xFFFF
   \                     ??ZDP_MgmtLqiRsp_0:
   \   000064   7416         MOV     A,#0x16
   \   000066   12....       LCALL   ?XSTACK_DISP0_8
   \   000069   E0           MOVX    A,@DPTR
   \   00006A   F5..         MOV     ?V7,A
   1478          
   1479            // (Status + NeighborLqiEntries + StartIndex + NeighborLqiCount) +
   1480            //  neighbor LQI data.
   1481            len = (1 + 1 + 1 + 1) + (NeighborLqiCount * ZDP_MGMTLQI_EXTENDED_SIZE);
   \   00006C   75F016       MOV     B,#0x16
   \   00006F   A4           MUL     AB
   \   000070   2404         ADD     A,#0x4
   \   000072   85..82       MOV     DPL,?XSP + 0
   \   000075   85..83       MOV     DPH,?XSP + 1
   \   000078   F0           MOVX    @DPTR,A
   1482          
   1483            buf = osal_mem_alloc( len+1 );
   \   000079                ; Setup parameters for call to function osal_mem_alloc
   \   000079   12....       LCALL   ?Subroutine65 & 0xFFFF
   \                     ??CrossCallReturnLabel_99:
   \   00007C   12....       LCALL   ??osal_mem_alloc?relay; Banked call to: osal_mem_alloc
   \   00007F   8A..         MOV     ?V2,R2
   \   000081   8B..         MOV     ?V3,R3
   1484            if ( buf == NULL )
   \   000083   EA           MOV     A,R2
   \   000084   45..         ORL     A,?V3
   \   000086   7005         JNZ     ??ZDP_MgmtLqiRsp_1
   1485            {
   1486              return afStatus_MEM_FAIL;
   \   000088   7910         MOV     R1,#0x10
   \   00008A   02....       LJMP    ??CrossCallReturnLabel_40 & 0xFFFF
   1487            }
   1488          
   1489            pBuf = buf+1;
   \                     ??ZDP_MgmtLqiRsp_1:
   \   00008D   8A82         MOV     DPL,R2
   \   00008F   8B83         MOV     DPH,R3
   \   000091   A3           INC     DPTR
   1490          
   1491            *pBuf++ = Status;
   \   000092   E4           CLR     A
   \   000093   12....       LCALL   ??Subroutine115_0 & 0xFFFF
   1492            *pBuf++ = NeighborLqiEntries;
   \                     ??CrossCallReturnLabel_217:
   \   000096   7402         MOV     A,#0x2
   \   000098   12....       LCALL   ?XSTACK_DISP0_8
   \   00009B   12....       LCALL   ??Subroutine119_0 & 0xFFFF
   \                     ??CrossCallReturnLabel_233:
   \   00009E   F0           MOVX    @DPTR,A
   \   00009F   A3           INC     DPTR
   \   0000A0   0E           INC     R6
   \   0000A1   AF83         MOV     R7,DPH
   1493            *pBuf++ = StartIndex;
   \   0000A3   7415         MOV     A,#0x15
   \   0000A5   12....       LCALL   ?XSTACK_DISP0_8
   \   0000A8   12....       LCALL   ?Subroutine33 & 0xFFFF
   1494            *pBuf++ = NeighborLqiCount;
   1495          
   1496            for ( x = 0; x < NeighborLqiCount; x++ )
   \                     ??CrossCallReturnLabel_45:
   \   0000AB   75..00       MOV     ?V6,#0x0
   \   0000AE   02....       LJMP    ??ZDP_MgmtLqiRsp_2 & 0xFFFF
   1497            {
   1498              osal_cpyExtAddr( pBuf, list->extPanID);         // Extended PanID
   \                     ??ZDP_MgmtLqiRsp_3:
   \   0000B1                ; Setup parameters for call to function sAddrExtCpy
   \   0000B1   E5..         MOV     A,?V0
   \   0000B3   2402         ADD     A,#0x2
   \   0000B5   FC           MOV     R4,A
   \   0000B6   E4           CLR     A
   \   0000B7   35..         ADDC    A,?V1
   \   0000B9   FD           MOV     R5,A
   \   0000BA   EE           MOV     A,R6
   \   0000BB   FA           MOV     R2,A
   \   0000BC   EF           MOV     A,R7
   \   0000BD   FB           MOV     R3,A
   \   0000BE   12....       LCALL   ??sAddrExtCpy?relay  ; Banked call to: sAddrExtCpy
   1499              pBuf += Z_EXTADDR_LEN;
   1500          
   1501              // EXTADDR
   1502              pBuf = osal_cpyExtAddr( pBuf, list->extAddr );
   \   0000C1                ; Setup parameters for call to function sAddrExtCpy
   \   0000C1   E5..         MOV     A,?V0
   \   0000C3   240A         ADD     A,#0xa
   \   0000C5   FC           MOV     R4,A
   \   0000C6   E4           CLR     A
   \   0000C7   35..         ADDC    A,?V1
   \   0000C9   FD           MOV     R5,A
   \   0000CA   EE           MOV     A,R6
   \   0000CB   2408         ADD     A,#0x8
   \   0000CD   FA           MOV     R2,A
   \   0000CE   E4           CLR     A
   \   0000CF   3F           ADDC    A,R7
   \   0000D0   FB           MOV     R3,A
   \   0000D1   12....       LCALL   ??sAddrExtCpy?relay  ; Banked call to: sAddrExtCpy
   \   0000D4   8A..         MOV     ?V4,R2
   \   0000D6   8B..         MOV     ?V5,R3
   \   0000D8   AE..         MOV     R6,?V4
   \   0000DA   AF..         MOV     R7,?V5
   1503          
   1504              // NWKADDR
   1505              *pBuf++ = LO_UINT16( list->nwkAddr );
   \   0000DC   E5..         MOV     A,?V0
   \   0000DE   2412         ADD     A,#0x12
   \   0000E0   F8           MOV     R0,A
   \   0000E1   E4           CLR     A
   \   0000E2   35..         ADDC    A,?V1
   \   0000E4   F9           MOV     R1,A
   \   0000E5   8882         MOV     DPL,R0
   \   0000E7   8983         MOV     DPH,R1
   \   0000E9   12....       LCALL   ?Subroutine42 & 0xFFFF
   1506              *pBuf++ = HI_UINT16( list->nwkAddr );
   \                     ??CrossCallReturnLabel_219:
   \   0000EC   8882         MOV     DPL,R0
   \   0000EE   8983         MOV     DPH,R1
   \   0000F0   12....       LCALL   ?Subroutine64 & 0xFFFF
   \                     ??CrossCallReturnLabel_235:
   \   0000F3   12....       LCALL   ?Subroutine14 & 0xFFFF
   1507          
   1508              // DEVICETYPE
   1509              *pBuf = list->devType;
   \                     ??CrossCallReturnLabel_9:
   \   0000F6   8E82         MOV     DPL,R6
   \   0000F8   8F83         MOV     DPH,R7
   \   0000FA   F0           MOVX    @DPTR,A
   1510          
   1511              // RXONIDLE
   1512              *pBuf |= (uint8)(list->rxOnIdle << 2);
   \   0000FB   E5..         MOV     A,?V0
   \   0000FD   2415         ADD     A,#0x15
   \   0000FF   F582         MOV     DPL,A
   \   000101   E4           CLR     A
   \   000102   35..         ADDC    A,?V1
   \   000104   F583         MOV     DPH,A
   \   000106   E0           MOVX    A,@DPTR
   \   000107   33           RLC     A
   \   000108   33           RLC     A
   \   000109   54FC         ANL     A,#0xfc
   \   00010B   F8           MOV     R0,A
   \   00010C   8E82         MOV     DPL,R6
   \   00010E   8F83         MOV     DPH,R7
   \   000110   E0           MOVX    A,@DPTR
   \   000111   48           ORL     A,R0
   \   000112   12....       LCALL   ?Subroutine43 & 0xFFFF
   1513          
   1514              // RELATIONSHIP
   1515              *pBuf++ |= (uint8)(list->relation << 4);
   \                     ??CrossCallReturnLabel_61:
   \   000115   E5..         MOV     A,?V0
   \   000117   2416         ADD     A,#0x16
   \   000119   F582         MOV     DPL,A
   \   00011B   E4           CLR     A
   \   00011C   35..         ADDC    A,?V1
   \   00011E   F583         MOV     DPH,A
   \   000120   12....       LCALL   ?Subroutine54 & 0xFFFF
   1516          
   1517              // PERMITJOINING
   1518              *pBuf++ = (uint8)(list->permit);
   \                     ??CrossCallReturnLabel_84:
   \   000123   E5..         MOV     A,?V0
   \   000125   2417         ADD     A,#0x17
   \   000127   12....       LCALL   ?Subroutine29 & 0xFFFF
   1519          
   1520              // DEPTH
   1521              *pBuf++ = list->depth;
   1522          
   1523              // LQI
   1524              *pBuf++ = list->lqi;
   1525          
   1526              list++; // next list entry
   1527            }
   \                     ??CrossCallReturnLabel_36:
   \   00012A   2418         ADD     A,#0x18
   \   00012C   12....       LCALL   ?Subroutine29 & 0xFFFF
   \                     ??CrossCallReturnLabel_37:
   \   00012F   2419         ADD     A,#0x19
   \   000131   12....       LCALL   ?Subroutine29 & 0xFFFF
   \                     ??CrossCallReturnLabel_38:
   \   000134   241A         ADD     A,#0x1a
   \   000136   F5..         MOV     ?V0,A
   \   000138   5002         JNC     ??ZDP_MgmtLqiRsp_4
   \   00013A   05..         INC     ?V1
   \                     ??ZDP_MgmtLqiRsp_4:
   \   00013C   05..         INC     ?V6
   \                     ??ZDP_MgmtLqiRsp_2:
   \   00013E   E5..         MOV     A,?V6
   \   000140   C3           CLR     C
   \   000141   95..         SUBB    A,?V7
   \   000143   5003         JNC     $+5
   \   000145   02....       LJMP    ??ZDP_MgmtLqiRsp_3 & 0xFFFF
   1528          
   1529            FillAndSendBuffer( &TransSeq, dstAddr, Mgmt_Lqi_rsp, len, buf );
   \   000148   12....       LCALL   ?Subroutine35 & 0xFFFF
   \                     ??CrossCallReturnLabel_230:
   \   00014B                ; Setup parameters for call to function fillAndSend
   \   00014B   75..31       MOV     ?V0,#0x31
   \   00014E   75..80       MOV     ?V1,#-0x80
   \   000151   78..         MOV     R0,#?V0
   \   000153   12....       LCALL   ?PUSH_XSTACK_I_TWO
   \   000156   7402         MOV     A,#0x2
   \   000158   12....       LCALL   ?XSTACK_DISP0_8
   \   00015B   E0           MOVX    A,@DPTR
   \   00015C   F9           MOV     R1,A
   \   00015D   7405         MOV     A,#0x5
   \   00015F   12....       LCALL   ?XSTACK_DISP0_8
   \   000162   12....       LCALL   ?Subroutine50 & 0xFFFF
   \                     ??CrossCallReturnLabel_75:
   \   000165   12....       LCALL   ?XSTACK_DISP101_8
   \   000168   12....       LCALL   ??fillAndSend?relay  ; Banked call to: fillAndSend
   \   00016B   7402         MOV     A,#0x2
   \   00016D   12....       LCALL   ?DEALLOC_XSTACK8
   \   000170   E9           MOV     A,R1
   \   000171   FE           MOV     R6,A
   \   000172                ; Setup parameters for call to function osal_mem_free
   \   000172   AA..         MOV     R2,?V2
   \   000174   AB..         MOV     R3,?V3
   \   000176   12....       LCALL   ??osal_mem_free?relay; Banked call to: osal_mem_free
   \   000179   12....       LCALL   ?Subroutine30 & 0xFFFF
   \                     ??CrossCallReturnLabel_40:
   \   00017C   7405         MOV     A,#0x5
   \   00017E   80..         SJMP    ??Subroutine120_0
   1530          }

   \                                 In  segment BANKED_CODE, align 1, keep-with-next
   \                     ?Subroutine29:
   \   000000   F582         MOV     DPL,A
   \   000002   E4           CLR     A
   \   000003   35..         ADDC    A,?V1
   \   000005   F583         MOV     DPH,A
   \   000007   12....       LCALL   ?Subroutine83 & 0xFFFF
   \                     ??CrossCallReturnLabel_236:
   \   00000A   F0           MOVX    @DPTR,A
   \   00000B   A3           INC     DPTR
   \   00000C   0E           INC     R6
   \   00000D   AF83         MOV     R7,DPH
   \   00000F   E5..         MOV     A,?V0
   \   000011   22           RET
   1531          
   1532          /*********************************************************************
   1533           * @fn          ZDP_MgmtRtgRsp
   1534           *
   1535           * @brief       This builds and send a Mgmt_Rtg_rsp message. This
   1536           *              function sends a unicast message.
   1537           *
   1538           * @param       dstAddr - destination address of the message
   1539           * @param       Status - message status (ZDP_SUCCESS or other)
   1540           * @param       RoutingTableEntries - Total number of entries
   1541           * @param       StartIndex - Starting index within the reporting list
   1542           * @param       RoutingTableListCount - number of entries included
   1543           *                                      in this message
   1544           * @param       RoutingTableList - List of Routing Table entries
   1545           * @param       SecurityEnable - true to enable security for this message
   1546           *
   1547           * @return      ZStatus_t
   1548           */

   \                                 In  segment BANKED_CODE, align 1, keep-with-next
   1549          ZStatus_t ZDP_MgmtRtgRsp( byte TransSeq, zAddrType_t *dstAddr,
   \                     ZDP_MgmtRtgRsp:
   1550                                      byte Status,
   1551                                      byte RoutingTableEntries,
   1552                                      byte StartIndex,
   1553                                      byte RoutingListCount,
   1554                                      rtgItem_t *RoutingTableList,
   1555                                      byte SecurityEnable )
   1556          {
   \   000000                REQUIRE ?V0
   \   000000                REQUIRE ?V1
   \   000000                REQUIRE ?V2
   \   000000                REQUIRE ?V3
   \   000000                REQUIRE ?V4
   \   000000                REQUIRE ?V5
   \   000000                REQUIRE ?V6
   \   000000                REQUIRE ?V7
   \   000000   74F0         MOV     A,#-0x10
   \   000002   12....       LCALL   ?BANKED_ENTER_XDATA
   \   000005                ; Saved register size: 16
   \   000005                ; Auto size: 3
   \   000005   74FD         MOV     A,#-0x3
   \   000007   12....       LCALL   ?ALLOC_XSTACK8
   \   00000A   E9           MOV     A,R1
   \   00000B   85..82       MOV     DPL,?XSP + 0
   \   00000E   85..83       MOV     DPH,?XSP + 1
   \   000011   F0           MOVX    @DPTR,A
   \   000012   7401         MOV     A,#0x1
   \   000014   12....       LCALL   ?XSTACK_DISP0_8
   \   000017   12....       LCALL   ??Subroutine123_0 & 0xFFFF
   \                     ??CrossCallReturnLabel_254:
   \   00001A   8C..         MOV     ?V7,R4
   \   00001C   8D..         MOV     ?V6,R5
   \   00001E   7414         MOV     A,#0x14
   \   000020   12....       LCALL   ?XSTACK_DISP0_8
   \   000023   E0           MOVX    A,@DPTR
   \   000024   F5..         MOV     ?V0,A
   1557            uint8 *buf;
   1558            uint8 *pBuf;
   1559            // Status + RoutingTableEntries + StartIndex + RoutingListCount.
   1560            byte len = 1 + 1 + 1 + 1;
   1561            byte x;
   1562          
   1563            (void)SecurityEnable;  // Intentionally unreferenced parameter
   1564          
   1565            // Add an array for Routing List data
   1566            len += (RoutingListCount * ZDP_ROUTINGENTRY_SIZE);
   \   000026   75F005       MOV     B,#0x5
   \   000029   A4           MUL     AB
   \   00002A   2404         ADD     A,#0x4
   \   00002C   F5..         MOV     ?V1,A
   1567          
   1568            buf = osal_mem_alloc( (short)(len+1) );
   \   00002E                ; Setup parameters for call to function osal_mem_alloc
   \   00002E   12....       LCALL   ?Subroutine65 & 0xFFFF
   \                     ??CrossCallReturnLabel_100:
   \   000031   12....       LCALL   ??osal_mem_alloc?relay; Banked call to: osal_mem_alloc
   \   000034   8A..         MOV     ?V2,R2
   \   000036   8B..         MOV     ?V3,R3
   \   000038   AE..         MOV     R6,?V2
   \   00003A   AF..         MOV     R7,?V3
   1569            if ( buf == NULL )
   \   00003C   EE           MOV     A,R6
   \   00003D   4F           ORL     A,R7
   \   00003E   7005         JNZ     ??ZDP_MgmtRtgRsp_0
   1570            {
   1571              return afStatus_MEM_FAIL;
   \   000040   7910         MOV     R1,#0x10
   \   000042   02....       LJMP    ??ZDP_MgmtRtgRsp_1 & 0xFFFF
   1572            }
   1573          
   1574            pBuf = buf+1;
   \                     ??ZDP_MgmtRtgRsp_0:
   \   000045   8E82         MOV     DPL,R6
   \   000047   8F83         MOV     DPH,R7
   \   000049   A3           INC     DPTR
   1575          
   1576            *pBuf++ = Status;
   \   00004A   E5..         MOV     A,?V7
   \   00004C   F0           MOVX    @DPTR,A
   \   00004D   A3           INC     DPTR
   1577            *pBuf++ = RoutingTableEntries;
   \   00004E   E5..         MOV     A,?V6
   \   000050   12....       LCALL   ??Subroutine113_0 & 0xFFFF
   1578            *pBuf++ = StartIndex;
   \                     ??CrossCallReturnLabel_202:
   \   000053   7413         MOV     A,#0x13
   \   000055   12....       LCALL   ?XSTACK_DISP0_8
   \   000058   12....       LCALL   ??Subroutine99_0 & 0xFFFF
   \                     ??CrossCallReturnLabel_137:
   \   00005B   A3           INC     DPTR
   1579            *pBuf++ = RoutingListCount;
   \   00005C   E5..         MOV     A,?V0
   \   00005E   F0           MOVX    @DPTR,A
   \   00005F   A3           INC     DPTR
   \   000060   08           INC     R0
   \   000061   08           INC     R0
   \   000062   A983         MOV     R1,DPH
   1580          
   1581            for ( x = 0; x < RoutingListCount; x++ )
   \   000064   75..00       MOV     ?V2,#0x0
   \   000067   7415         MOV     A,#0x15
   \   000069   12....       LCALL   ?XSTACK_DISP0_8
   \   00006C   12....       LCALL   ??Subroutine110_0 & 0xFFFF
   \                     ??CrossCallReturnLabel_172:
   \   00006F   803D         SJMP    ??ZDP_MgmtRtgRsp_2
   1582            {
   1583              *pBuf++ = LO_UINT16( RoutingTableList->dstAddress );  // Destination Address
   \                     ??ZDP_MgmtRtgRsp_3:
   \   000071   8A82         MOV     DPL,R2
   \   000073   8B83         MOV     DPH,R3
   \   000075   E0           MOVX    A,@DPTR
   \   000076   12....       LCALL   ?Subroutine12 & 0xFFFF
   1584              *pBuf++ = HI_UINT16( RoutingTableList->dstAddress );
   \                     ??CrossCallReturnLabel_205:
   \   000079   8A82         MOV     DPL,R2
   \   00007B   8B83         MOV     DPH,R3
   \   00007D   12....       LCALL   ?Subroutine38 & 0xFFFF
   1585              *pBuf++ = RoutingTableList->status;
   \                     ??CrossCallReturnLabel_242:
   \   000080   8A82         MOV     DPL,R2
   \   000082   8B83         MOV     DPH,R3
   \   000084   A3           INC     DPTR
   \   000085   A3           INC     DPTR
   \   000086   A3           INC     DPTR
   \   000087   A3           INC     DPTR
   \   000088   12....       LCALL   ?Subroutine38 & 0xFFFF
   1586              *pBuf++ = LO_UINT16( RoutingTableList->nextHopAddress );  // Next hop
   \                     ??CrossCallReturnLabel_243:
   \   00008B   EA           MOV     A,R2
   \   00008C   2402         ADD     A,#0x2
   \   00008E   F5..         MOV     ?V4,A
   \   000090   E4           CLR     A
   \   000091   3B           ADDC    A,R3
   \   000092   F5..         MOV     ?V5,A
   \   000094   85..82       MOV     DPL,?V4
   \   000097   F583         MOV     DPH,A
   \   000099   12....       LCALL   ??Subroutine122_0 & 0xFFFF
   1587              *pBuf++ = HI_UINT16( RoutingTableList->nextHopAddress );
   \                     ??CrossCallReturnLabel_241:
   \   00009C   85..82       MOV     DPL,?V4
   \   00009F   85..83       MOV     DPH,?V5
   \   0000A2   12....       LCALL   ?Subroutine38 & 0xFFFF
   1588              RoutingTableList++;    // Move to next list entry
   \                     ??CrossCallReturnLabel_244:
   \   0000A5   EA           MOV     A,R2
   \   0000A6   2407         ADD     A,#0x7
   \   0000A8   FA           MOV     R2,A
   \   0000A9   5001         JNC     ??ZDP_MgmtRtgRsp_4
   \   0000AB   0B           INC     R3
   1589            }
   \                     ??ZDP_MgmtRtgRsp_4:
   \   0000AC   05..         INC     ?V2
   \                     ??ZDP_MgmtRtgRsp_2:
   \   0000AE   E5..         MOV     A,?V2
   \   0000B0   C3           CLR     C
   \   0000B1   95..         SUBB    A,?V0
   \   0000B3   40BC         JC      ??ZDP_MgmtRtgRsp_3
   1590          
   1591            FillAndSendBuffer( &TransSeq, dstAddr, Mgmt_Rtg_rsp, len, buf );
   \   0000B5   8E82         MOV     DPL,R6
   \   0000B7   8F83         MOV     DPH,R7
   \   0000B9   12....       LCALL   ??Subroutine116_0 & 0xFFFF
   \                     ??CrossCallReturnLabel_228:
   \   0000BC                ; Setup parameters for call to function fillAndSend
   \   0000BC   75..32       MOV     ?V2,#0x32
   \   0000BF   75..80       MOV     ?V3,#-0x80
   \   0000C2   78..         MOV     R0,#?V2
   \   0000C4   12....       LCALL   ?PUSH_XSTACK_I_TWO
   \   0000C7   A9..         MOV     R1,?V1
   \   0000C9   7403         MOV     A,#0x3
   \   0000CB   12....       LCALL   ?XSTACK_DISP0_8
   \   0000CE   12....       LCALL   ?Subroutine61 & 0xFFFF
   \                     ??CrossCallReturnLabel_94:
   \   0000D1   7402         MOV     A,#0x2
   \   0000D3   12....       LCALL   ?XSTACK_DISP101_8
   \   0000D6   12....       LCALL   ??fillAndSend?relay  ; Banked call to: fillAndSend
   \   0000D9   7402         MOV     A,#0x2
   \   0000DB   12....       LCALL   ?DEALLOC_XSTACK8
   \   0000DE   E9           MOV     A,R1
   \   0000DF   F5..         MOV     ?V0,A
   \   0000E1                ; Setup parameters for call to function osal_mem_free
   \   0000E1   EE           MOV     A,R6
   \   0000E2   FA           MOV     R2,A
   \   0000E3   EF           MOV     A,R7
   \   0000E4   FB           MOV     R3,A
   \   0000E5   12....       LCALL   ??osal_mem_free?relay; Banked call to: osal_mem_free
   \   0000E8   90....       MOV     DPTR,#ZDP_TmpBuf
   \   0000EB   74..         MOV     A,#(ZDP_Buf + 1) & 0xff
   \   0000ED   F0           MOVX    @DPTR,A
   \   0000EE   A3           INC     DPTR
   \   0000EF   74..         MOV     A,#((ZDP_Buf + 1) >> 8) & 0xff
   \   0000F1   F0           MOVX    @DPTR,A
   \   0000F2   A9..         MOV     R1,?V0
   \                     ??ZDP_MgmtRtgRsp_1:
   \   0000F4   7403         MOV     A,#0x3
   \   0000F6   02....       LJMP    ??Subroutine120_0 & 0xFFFF
   1592          }

   \                                 In  segment BANKED_CODE, align 1, keep-with-next
   \                     ?Subroutine38:
   \   000000   A3           INC     DPTR
   \   000001                REQUIRE ??Subroutine122_0
   \   000001                ; // Fall through to label ??Subroutine122_0
   1593          
   1594          /*********************************************************************
   1595           * @fn          ZDP_MgmtBindRsp
   1596           *
   1597           * @brief       This builds and send a Mgmt_Bind_rsp message. This
   1598           *              function sends a unicast message.
   1599           *
   1600           * @param       dstAddr - destination address of the message
   1601           * @param       Status - message status (ZDP_SUCCESS or other)
   1602           * @param       BindingTableEntries - Total number of entries
   1603           * @param       StartIndex - Starting index within the reporting list
   1604           * @param       BindingTableListCount - number of entries included
   1605           *                                 in this message
   1606           * @param       BindingTableList - List of Binding Table entries
   1607           * @param       SecurityEnable - Security Options
   1608           *
   1609           * @return      ZStatus_t
   1610           */

   \                                 In  segment BANKED_CODE, align 1, keep-with-next
   1611          ZStatus_t ZDP_MgmtBindRsp( byte TransSeq, zAddrType_t *dstAddr,
   \                     ZDP_MgmtBindRsp:
   1612                                      byte Status,
   1613                                      byte BindingTableEntries,
   1614                                      byte StartIndex,
   1615                                      byte BindingTableListCount,
   1616                                      apsBindingItem_t *BindingTableList,
   1617                                      byte SecurityEnable )
   1618          {
   \   000000                REQUIRE ?V0
   \   000000                REQUIRE ?V1
   \   000000                REQUIRE ?V2
   \   000000                REQUIRE ?V3
   \   000000                REQUIRE ?V4
   \   000000                REQUIRE ?V5
   \   000000                REQUIRE ?V6
   \   000000                REQUIRE ?V7
   \   000000   74F0         MOV     A,#-0x10
   \   000002   12....       LCALL   ?BANKED_ENTER_XDATA
   \   000005                ; Saved register size: 16
   \   000005                ; Auto size: 4
   \   000005   74FC         MOV     A,#-0x4
   \   000007   12....       LCALL   ?ALLOC_XSTACK8
   \   00000A   7401         MOV     A,#0x1
   \   00000C   12....       LCALL   ?XSTACK_DISP0_8
   \   00000F   E9           MOV     A,R1
   \   000010   F0           MOVX    @DPTR,A
   \   000011   7402         MOV     A,#0x2
   \   000013   12....       LCALL   ?XSTACK_DISP0_8
   \   000016   12....       LCALL   ?Subroutine15 & 0xFFFF
   \                     ??CrossCallReturnLabel_11:
   \   000019   12....       LCALL   ?XSTACK_DISP0_8
   \   00001C   E0           MOVX    A,@DPTR
   \   00001D   F5..         MOV     ?V6,A
   1619            uint8 *buf;
   1620            uint8 *pBuf;
   1621            uint8 maxLen; // maxLen is the maximum packet length to allocate enough memory space
   1622            uint8 len;    // Actual length varies due to different addrMode
   1623            uint8 x;
   1624            byte extZdpBindEntrySize = ZDP_BINDINGENTRY_SIZE + 1 + 1; // One more byte for cluserID and DstAddrMode
   1625            byte shortZdpBindEntrySize = ZDP_BINDINGENTRY_SIZE + 1 + 1 + 2 - 8 - 1; // clusterID + DstAddrMode + shortAddr - ExtAddr - DstEndpoint
   1626          
   1627            (void)SecurityEnable;  // Intentionally unreferenced parameter
   1628          
   1629            // Status + BindingTableEntries + StartIndex + BindingTableListCount.
   1630            maxLen = 1 + 1 + 1 + 1;
   1631            maxLen += (BindingTableListCount * extZdpBindEntrySize );  //max length
   1632            buf = osal_mem_alloc( maxLen + 1 );  // +1 for transaction ID
   \   00001F                ; Setup parameters for call to function osal_mem_alloc
   \   00001F   75F015       MOV     B,#0x15
   \   000022   A4           MUL     AB
   \   000023   2404         ADD     A,#0x4
   \   000025   12....       LCALL   ?Subroutine65 & 0xFFFF
   \                     ??CrossCallReturnLabel_101:
   \   000028   12....       LCALL   ??osal_mem_alloc?relay; Banked call to: osal_mem_alloc
   \   00002B   8A..         MOV     ?V2,R2
   \   00002D   8B..         MOV     ?V3,R3
   1633          
   1634            if ( buf == NULL )
   \   00002F   EA           MOV     A,R2
   \   000030   45..         ORL     A,?V3
   \   000032   7005         JNZ     ??ZDP_MgmtBindRsp_0
   1635            {
   1636              return afStatus_MEM_FAIL;
   \   000034   7910         MOV     R1,#0x10
   \   000036   02....       LJMP    ??CrossCallReturnLabel_41 & 0xFFFF
   1637            }
   1638          
   1639            pBuf = buf+1;
   \                     ??ZDP_MgmtBindRsp_0:
   \   000039   8A82         MOV     DPL,R2
   \   00003B   8B83         MOV     DPH,R3
   \   00003D   A3           INC     DPTR
   \   00003E   AA82         MOV     R2,DPL
   \   000040   AB83         MOV     R3,DPH
   1640          
   1641            *pBuf++ = Status;
   \   000042   85..82       MOV     DPL,?XSP + 0
   \   000045   85..83       MOV     DPH,?XSP + 1
   \   000048   12....       LCALL   ?Subroutine51 & 0xFFFF
   1642            *pBuf++ = BindingTableEntries;
   \                     ??CrossCallReturnLabel_78:
   \   00004B   E5..         MOV     A,?V7
   \   00004D   12....       LCALL   ?Subroutine39 & 0xFFFF
   1643            *pBuf++ = StartIndex;
   \                     ??CrossCallReturnLabel_56:
   \   000050   7414         MOV     A,#0x14
   \   000052   12....       LCALL   ?XSTACK_DISP0_8
   \   000055   12....       LCALL   ?Subroutine51 & 0xFFFF
   1644            *pBuf++ = BindingTableListCount;
   \                     ??CrossCallReturnLabel_79:
   \   000058   E5..         MOV     A,?V6
   \   00005A   12....       LCALL   ?Subroutine39 & 0xFFFF
   1645          
   1646            // Initial length = Status + BindingTableEntries + StartIndex + BindingTableListCount.
   1647            // length += ZDP_BINDINGENTRY_SIZE   -- Version 1.0
   1648            //           extZdpBindEntrySize     -- Version 1.1 extended address mode
   1649            //           shortZdpBindEntrySize   -- Version 1.1 group address mode
   1650          
   1651            len = 1 + 1 + 1 + 1;
   \                     ??CrossCallReturnLabel_57:
   \   00005D   75..04       MOV     ?V0,#0x4
   1652            for ( x = 0; x < BindingTableListCount; x++ )
   \   000060   75..00       MOV     ?V1,#0x0
   \   000063   7416         MOV     A,#0x16
   \   000065   12....       LCALL   ?XSTACK_DISP0_8
   \   000068   12....       LCALL   ??Subroutine125_0 & 0xFFFF
   \                     ??CrossCallReturnLabel_260:
   \   00006B   8017         SJMP    ??ZDP_MgmtBindRsp_1
   1653            {
   1654              pBuf = osal_cpyExtAddr( pBuf, BindingTableList->srcAddr );
   1655              *pBuf++ = BindingTableList->srcEP;
   1656          
   1657              // Cluster ID
   1658              *pBuf++ = LO_UINT16( BindingTableList->clusterID );
   1659              *pBuf++ = HI_UINT16( BindingTableList->clusterID );
   1660          
   1661              *pBuf++ = BindingTableList->dstAddr.addrMode;
   1662              if ( BindingTableList->dstAddr.addrMode == Addr64Bit )
   1663              {
   1664                len += extZdpBindEntrySize;
   1665                pBuf = osal_cpyExtAddr( pBuf, BindingTableList->dstAddr.addr.extAddr );
   1666                *pBuf++ = BindingTableList->dstEP;
   1667              }
   1668              else
   1669              {
   1670                len += shortZdpBindEntrySize;
   \                     ??ZDP_MgmtBindRsp_2:
   \   00006D   740E         MOV     A,#0xe
   \   00006F   25..         ADD     A,?V0
   \   000071   F5..         MOV     ?V0,A
   1671                *pBuf++ = LO_UINT16( BindingTableList->dstAddr.addr.shortAddr );
   \   000073   EE           MOV     A,R6
   \   000074   240B         ADD     A,#0xb
   \   000076   12....       LCALL   ?Subroutine13 & 0xFFFF
   1672                *pBuf++ = HI_UINT16( BindingTableList->dstAddr.addr.shortAddr );
   1673              }
   \                     ??CrossCallReturnLabel_6:
   \   000079   AB83         MOV     R3,DPH
   1674              BindingTableList++;    // Move to next list entry
   \   00007B   EE           MOV     A,R6
   \   00007C   2415         ADD     A,#0x15
   \   00007E   FE           MOV     R6,A
   \   00007F   5001         JNC     ??ZDP_MgmtBindRsp_3
   \   000081   0F           INC     R7
   \                     ??ZDP_MgmtBindRsp_3:
   \   000082   05..         INC     ?V1
   \                     ??ZDP_MgmtBindRsp_1:
   \   000084   E5..         MOV     A,?V1
   \   000086   C3           CLR     C
   \   000087   95..         SUBB    A,?V6
   \   000089   5049         JNC     ??ZDP_MgmtBindRsp_4
   \   00008B                ; Setup parameters for call to function sAddrExtCpy
   \   00008B   EE           MOV     A,R6
   \   00008C   FC           MOV     R4,A
   \   00008D   EF           MOV     A,R7
   \   00008E   FD           MOV     R5,A
   \   00008F   12....       LCALL   ??sAddrExtCpy?relay  ; Banked call to: sAddrExtCpy
   \   000092   8E82         MOV     DPL,R6
   \   000094   8F83         MOV     DPH,R7
   \   000096   A3           INC     DPTR
   \   000097   A3           INC     DPTR
   \   000098   A3           INC     DPTR
   \   000099   A3           INC     DPTR
   \   00009A   A3           INC     DPTR
   \   00009B   A3           INC     DPTR
   \   00009C   A3           INC     DPTR
   \   00009D   A3           INC     DPTR
   \   00009E   12....       LCALL   ?Subroutine46 & 0xFFFF
   \                     ??CrossCallReturnLabel_150:
   \   0000A1   EE           MOV     A,R6
   \   0000A2   2409         ADD     A,#0x9
   \   0000A4   12....       LCALL   ?Subroutine13 & 0xFFFF
   \                     ??CrossCallReturnLabel_7:
   \   0000A7   AB83         MOV     R3,DPH
   \   0000A9   EE           MOV     A,R6
   \   0000AA   2413         ADD     A,#0x13
   \   0000AC   F8           MOV     R0,A
   \   0000AD   E4           CLR     A
   \   0000AE   3F           ADDC    A,R7
   \   0000AF   12....       LCALL   ?Subroutine26 & 0xFFFF
   \                     ??CrossCallReturnLabel_33:
   \   0000B2   70B9         JNZ     ??ZDP_MgmtBindRsp_2
   \   0000B4   7415         MOV     A,#0x15
   \   0000B6   25..         ADD     A,?V0
   \   0000B8   F5..         MOV     ?V0,A
   \   0000BA                ; Setup parameters for call to function sAddrExtCpy
   \   0000BA   EE           MOV     A,R6
   \   0000BB   240B         ADD     A,#0xb
   \   0000BD   FC           MOV     R4,A
   \   0000BE   E4           CLR     A
   \   0000BF   3F           ADDC    A,R7
   \   0000C0   FD           MOV     R5,A
   \   0000C1   12....       LCALL   ??sAddrExtCpy?relay  ; Banked call to: sAddrExtCpy
   \   0000C4   EE           MOV     A,R6
   \   0000C5   2414         ADD     A,#0x14
   \   0000C7   F582         MOV     DPL,A
   \   0000C9   E4           CLR     A
   \   0000CA   3F           ADDC    A,R7
   \   0000CB   F583         MOV     DPH,A
   \   0000CD   12....       LCALL   ?Subroutine51 & 0xFFFF
   1675            }
   \                     ??CrossCallReturnLabel_80:
   \   0000D0   AA82         MOV     R2,DPL
   \   0000D2   80A5         SJMP    ??CrossCallReturnLabel_6
   1676          
   1677            FillAndSendBuffer( &TransSeq, dstAddr, Mgmt_Bind_rsp, len, buf );
   \                     ??ZDP_MgmtBindRsp_4:
   \   0000D4   12....       LCALL   ?Subroutine35 & 0xFFFF
   \                     ??CrossCallReturnLabel_231:
   \   0000D7                ; Setup parameters for call to function fillAndSend
   \   0000D7   75..33       MOV     ?V4,#0x33
   \   0000DA   75..80       MOV     ?V5,#-0x80
   \   0000DD   78..         MOV     R0,#?V4
   \   0000DF   12....       LCALL   ?PUSH_XSTACK_I_TWO
   \   0000E2   A9..         MOV     R1,?V0
   \   0000E4   7404         MOV     A,#0x4
   \   0000E6   12....       LCALL   ?XSTACK_DISP0_8
   \   0000E9   12....       LCALL   ?Subroutine50 & 0xFFFF
   \                     ??CrossCallReturnLabel_76:
   \   0000EC   12....       LCALL   ?XSTACK_DISP101_8
   \   0000EF   12....       LCALL   ??fillAndSend?relay  ; Banked call to: fillAndSend
   \   0000F2   7402         MOV     A,#0x2
   \   0000F4   12....       LCALL   ?DEALLOC_XSTACK8
   \   0000F7   E9           MOV     A,R1
   \   0000F8   FE           MOV     R6,A
   \   0000F9                ; Setup parameters for call to function osal_mem_free
   \   0000F9   AA..         MOV     R2,?V2
   \   0000FB   AB..         MOV     R3,?V3
   \   0000FD   12....       LCALL   ??osal_mem_free?relay; Banked call to: osal_mem_free
   \   000100   12....       LCALL   ?Subroutine30 & 0xFFFF
   \                     ??CrossCallReturnLabel_41:
   \   000103   02....       LJMP    ?Subroutine8 & 0xFFFF
   1678          }

   \                                 In  segment BANKED_CODE, align 1, keep-with-next
   \                     ?Subroutine13:
   \   000000   FC           MOV     R4,A
   \   000001   E4           CLR     A
   \   000002   3F           ADDC    A,R7
   \   000003   FD           MOV     R5,A
   \   000004   8C82         MOV     DPL,R4
   \   000006   8D83         MOV     DPH,R5
   \   000008   12....       LCALL   ??Subroutine108_0 & 0xFFFF
   \                     ??CrossCallReturnLabel_160:
   \   00000B   8C82         MOV     DPL,R4
   \   00000D   8D83         MOV     DPH,R5
   \   00000F   A3           INC     DPTR
   \   000010   12....       LCALL   ?Subroutine79 & 0xFFFF
   \                     ??CrossCallReturnLabel_127:
   \   000013   0A           INC     R2
   \   000014   22           RET
   1679          
   1680          /*********************************************************************
   1681           * @fn          ZDP_MgmtNwkUpdateNotify
   1682           *
   1683           * @brief       This builds and send a Mgmt_NWK_Update_notify message. This
   1684           *              function sends a unicast message.
   1685           *
   1686           * @param       dstAddr - destination address of the message
   1687           * @param       status - message status (ZDP_SUCCESS or other)
   1688           * @param       scannedChannels - List of channels scanned by the request
   1689           * @param       totalTransmissions - Total transmissions
   1690           * @param       transmissionFailures - Sum of transmission failures
   1691           * @param       listCount - Number of records contained in the energyValues list
   1692           * @param       energyValues - List of descriptors, one for each of ListCount,
   1693           *                             of the enegry detect descriptors
   1694           * @param       txOptions - Transmit options
   1695           * @param       securityEnable - Security options
   1696           *
   1697           * @return      afStatus_t
   1698           */

   \                                 In  segment BANKED_CODE, align 1, keep-with-next
   1699          afStatus_t ZDP_MgmtNwkUpdateNotify( uint8 TransSeq, zAddrType_t *dstAddr,
   \                     ZDP_MgmtNwkUpdateNotify:
   1700                                              uint8 status, uint32 scannedChannels,
   1701                                              uint16 totalTransmissions, uint16 transmissionFailures,
   1702                                              uint8 listCount, uint8 *energyValues, uint8 txOptions,
   1703                                              uint8 securityEnable )
   1704          {
   \   000000                REQUIRE ?V0
   \   000000                REQUIRE ?V1
   \   000000                REQUIRE ?V2
   \   000000                REQUIRE ?V3
   \   000000                REQUIRE ?V4
   \   000000                REQUIRE ?V5
   \   000000                REQUIRE ?V6
   \   000000                REQUIRE ?V7
   \   000000   74F0         MOV     A,#-0x10
   \   000002   12....       LCALL   ?BANKED_ENTER_XDATA
   \   000005                ; Saved register size: 16
   \   000005                ; Auto size: 1
   \   000005   74FF         MOV     A,#-0x1
   \   000007   12....       LCALL   ?ALLOC_XSTACK8
   \   00000A   E9           MOV     A,R1
   \   00000B   85..82       MOV     DPL,?XSP + 0
   \   00000E   85..83       MOV     DPH,?XSP + 1
   \   000011   F0           MOVX    @DPTR,A
   \   000012   8A..         MOV     ?V6,R2
   \   000014   8B..         MOV     ?V7,R3
   \   000016   8C..         MOV     ?V5,R4
   \   000018   8D..         MOV     ?V3,R5
   1705            uint8 *buf;
   1706            uint8 *pBuf;
   1707            uint8 len;
   1708          
   1709            (void)securityEnable;  // Intentionally unreferenced parameter
   1710          
   1711            // Status + ScannedChannels + totalTransmissions + transmissionFailures + ListCount + energyValues
   1712            len = 1 + 4 + 2 + 2 + 1 + listCount;
   \   00001A   740A         MOV     A,#0xa
   \   00001C   2D           ADD     A,R5
   \   00001D   F5..         MOV     ?V4,A
   1713          
   1714            buf = osal_mem_alloc( len+1 ); // +1 for transaction ID
   \   00001F                ; Setup parameters for call to function osal_mem_alloc
   \   00001F   12....       LCALL   ?Subroutine65 & 0xFFFF
   \                     ??CrossCallReturnLabel_102:
   \   000022   12....       LCALL   ??osal_mem_alloc?relay; Banked call to: osal_mem_alloc
   \   000025   8A..         MOV     ?V0,R2
   \   000027   8B..         MOV     ?V1,R3
   \   000029   AE..         MOV     R6,?V0
   \   00002B   AF..         MOV     R7,?V1
   1715            if ( buf == NULL )
   \   00002D   EE           MOV     A,R6
   \   00002E   4F           ORL     A,R7
   \   00002F   7005         JNZ     ??ZDP_MgmtNwkUpdateNotify_0
   1716            {
   1717              return afStatus_MEM_FAIL;
   \   000031   7910         MOV     R1,#0x10
   \   000033   02....       LJMP    ??ZDP_MgmtNwkUpdateNotify_1 & 0xFFFF
   1718            }
   1719          
   1720            pBuf = buf+1;
   \                     ??ZDP_MgmtNwkUpdateNotify_0:
   \   000036   8E82         MOV     DPL,R6
   \   000038   8F83         MOV     DPH,R7
   \   00003A   A3           INC     DPTR
   1721          
   1722            *pBuf++ = status;
   \   00003B   E5..         MOV     A,?V5
   \   00003D   12....       LCALL   ??Subroutine103_0 & 0xFFFF
   1723          
   1724            pBuf = osal_buffer_uint32( pBuf, scannedChannels );
   \                     ??CrossCallReturnLabel_147:
   \   000040                ; Setup parameters for call to function osal_buffer_uint32
   \   000040   7411         MOV     A,#0x11
   \   000042   12....       LCALL   ?XSTACK_DISP0_8
   \   000045   12....       LCALL   ?PUSH_XSTACK8_X_FOUR
   \   000048   12....       LCALL   ??osal_buffer_uint32?relay; Banked call to: osal_buffer_uint32
   \   00004B   7404         MOV     A,#0x4
   \   00004D   12....       LCALL   ?DEALLOC_XSTACK8
   \   000050   7415         MOV     A,#0x15
   \   000052   12....       LCALL   ?XSTACK_DISP0_8
   \   000055   12....       LCALL   ?Subroutine58 & 0xFFFF
   1725          
   1726            *pBuf++ = LO_UINT16( totalTransmissions );
   \                     ??CrossCallReturnLabel_87:
   \   000058   12....       LCALL   ??Subroutine118_0 & 0xFFFF
   1727            *pBuf++ = HI_UINT16( totalTransmissions );
   \                     ??CrossCallReturnLabel_220:
   \   00005B   A3           INC     DPTR
   \   00005C   AA82         MOV     R2,DPL
   \   00005E   AB83         MOV     R3,DPH
   \   000060   7417         MOV     A,#0x17
   \   000062   12....       LCALL   ?XSTACK_DISP0_8
   \   000065   12....       LCALL   ?Subroutine58 & 0xFFFF
   1728          
   1729            *pBuf++ = LO_UINT16( transmissionFailures );
   \                     ??CrossCallReturnLabel_88:
   \   000068   12....       LCALL   ??Subroutine118_0 & 0xFFFF
   1730            *pBuf++ = HI_UINT16( transmissionFailures );
   \                     ??CrossCallReturnLabel_221:
   \   00006B   A3           INC     DPTR
   1731          
   1732            *pBuf++ = listCount;
   \   00006C   E5..         MOV     A,?V3
   \   00006E   F0           MOVX    @DPTR,A
   \   00006F   A3           INC     DPTR
   \   000070   0A           INC     R2
   \   000071   0A           INC     R2
   \   000072   0A           INC     R2
   \   000073   AB83         MOV     R3,DPH
   1733          
   1734            if ( listCount > 0 )
   \   000075   601A         JZ      ??ZDP_MgmtNwkUpdateNotify_2
   1735              osal_memcpy( pBuf, energyValues, listCount );
   \   000077                ; Setup parameters for call to function osal_memcpy
   \   000077   7419         MOV     A,#0x19
   \   000079   12....       LCALL   ?XSTACK_DISP0_8
   \   00007C   12....       LCALL   ?Subroutine52 & 0xFFFF
   \                     ??CrossCallReturnLabel_82:
   \   00007F   12....       LCALL   ?PUSH_XSTACK_I_THREE
   \   000082   85....       MOV     ?V0,?V3
   \   000085   AC..         MOV     R4,?V0
   \   000087   7D00         MOV     R5,#0x0
   \   000089   12....       LCALL   ??osal_memcpy?relay  ; Banked call to: osal_memcpy
   \   00008C   7403         MOV     A,#0x3
   \   00008E   12....       LCALL   ?DEALLOC_XSTACK8
   1736          
   1737            FillAndSendBufferTxOptions( &TransSeq, dstAddr, Mgmt_NWK_Update_notify, len, buf, txOptions );
   \                     ??ZDP_MgmtNwkUpdateNotify_2:
   \   000091   8E82         MOV     DPL,R6
   \   000093   8F83         MOV     DPH,R7
   \   000095   12....       LCALL   ??Subroutine116_0 & 0xFFFF
   \                     ??CrossCallReturnLabel_229:
   \   000098   741B         MOV     A,#0x1b
   \   00009A   12....       LCALL   ?XSTACK_DISP0_8
   \   00009D   E0           MOVX    A,@DPTR
   \   00009E   90....       MOV     DPTR,#ZDP_TxOptions
   \   0000A1   F0           MOVX    @DPTR,A
   \   0000A2                ; Setup parameters for call to function fillAndSend
   \   0000A2   75..38       MOV     ?V0,#0x38
   \   0000A5   75..80       MOV     ?V1,#-0x80
   \   0000A8   78..         MOV     R0,#?V0
   \   0000AA   12....       LCALL   ?PUSH_XSTACK_I_TWO
   \   0000AD   A9..         MOV     R1,?V4
   \   0000AF   AC..         MOV     R4,?V6
   \   0000B1   AD..         MOV     R5,?V7
   \   0000B3   7402         MOV     A,#0x2
   \   0000B5   12....       LCALL   ?XSTACK_DISP101_8
   \   0000B8   12....       LCALL   ??fillAndSend?relay  ; Banked call to: fillAndSend
   \   0000BB   7402         MOV     A,#0x2
   \   0000BD   12....       LCALL   ?DEALLOC_XSTACK8
   \   0000C0   E9           MOV     A,R1
   \   0000C1   F5..         MOV     ?V0,A
   \   0000C3                ; Setup parameters for call to function osal_mem_free
   \   0000C3   EE           MOV     A,R6
   \   0000C4   FA           MOV     R2,A
   \   0000C5   EF           MOV     A,R7
   \   0000C6   FB           MOV     R3,A
   \   0000C7   12....       LCALL   ??osal_mem_free?relay; Banked call to: osal_mem_free
   \   0000CA   90....       MOV     DPTR,#ZDP_TmpBuf
   \   0000CD   74..         MOV     A,#(ZDP_Buf + 1) & 0xff
   \   0000CF   F0           MOVX    @DPTR,A
   \   0000D0   A3           INC     DPTR
   \   0000D1   74..         MOV     A,#((ZDP_Buf + 1) >> 8) & 0xff
   \   0000D3   F0           MOVX    @DPTR,A
   \   0000D4   90....       MOV     DPTR,#ZDP_TxOptions
   \   0000D7   E4           CLR     A
   \   0000D8   F0           MOVX    @DPTR,A
   \   0000D9   A9..         MOV     R1,?V0
   \                     ??ZDP_MgmtNwkUpdateNotify_1:
   \   0000DB   02....       LJMP    ?Subroutine5 & 0xFFFF
   1738          }

   \                                 In  segment BANKED_CODE, align 1, keep-with-next
   \                     ?Subroutine58:
   \   000000   12....       LCALL   ?Subroutine80 & 0xFFFF
   \                     ??CrossCallReturnLabel_130:
   \   000003   22           RET
   1739          
   1740          /*********************************************************************
   1741           * Functions to register for ZDO Over-the-air messages
   1742           */
   1743          
   1744          /*********************************************************************
   1745           * @fn          ZDO_RegisterForZDOMsg
   1746           *
   1747           * @brief       Call this function to register of an incoming over
   1748           *              the air ZDO message - probably a response message
   1749           *              but requests can also be received.
   1750           *              Messages are delivered to the task with ZDO_CB_MSG
   1751           *              as the message ID.
   1752           *
   1753           * @param       taskID - Where you would like the message delivered
   1754           * @param       clusterID - What message?
   1755           *
   1756           * @return      ZSuccess - successful, ZMemError if not
   1757           */

   \                                 In  segment BANKED_CODE, align 1, keep-with-next
   1758          ZStatus_t ZDO_RegisterForZDOMsg( uint8 taskID, uint16 clusterID )
   \                     ZDO_RegisterForZDOMsg:
   1759          {
   \   000000                REQUIRE ?V0
   \   000000                REQUIRE ?V1
   \   000000                REQUIRE ?V2
   \   000000                REQUIRE ?V4
   \   000000                REQUIRE ?V5
   \   000000   74F2         MOV     A,#-0xe
   \   000002   12....       LCALL   ?BANKED_ENTER_XDATA
   \   000005                ; Saved register size: 14
   \   000005                ; Auto size: 0
   \   000005   89..         MOV     ?V2,R1
   \   000007   8A..         MOV     ?V0,R2
   \   000009   8B..         MOV     ?V1,R3
   1760            ZDO_MsgCB_t *pList;
   1761            ZDO_MsgCB_t *pLast;
   1762            ZDO_MsgCB_t *pNew;
   1763          
   1764            // Look for duplicate
   1765            pList = pLast = zdoMsgCBs;
   \   00000B   90....       MOV     DPTR,#zdoMsgCBs
   \   00000E   12....       LCALL   ??Subroutine125_0 & 0xFFFF
   \                     ??CrossCallReturnLabel_261:
   \   000011   EE           MOV     A,R6
   \   000012   F8           MOV     R0,A
   \   000013   EF           MOV     A,R7
   \   000014   8028         SJMP    ??CrossCallReturnLabel_282
   1766            while ( pList )
   1767            {
   1768              if ( pList->taskID == taskID && pList->clusterID == clusterID )
   \                     ??ZDO_RegisterForZDOMsg_0:
   \   000016   8882         MOV     DPL,R0
   \   000018   8983         MOV     DPH,R1
   \   00001A   A3           INC     DPTR
   \   00001B   A3           INC     DPTR
   \   00001C   E0           MOVX    A,@DPTR
   \   00001D   65..         XRL     A,?V2
   \   00001F   7012         JNZ     ??ZDO_RegisterForZDOMsg_1
   \   000021   8882         MOV     DPL,R0
   \   000023   8983         MOV     DPH,R1
   \   000025   A3           INC     DPTR
   \   000026   A3           INC     DPTR
   \   000027   A3           INC     DPTR
   \   000028   E0           MOVX    A,@DPTR
   \   000029   65..         XRL     A,?V0
   \   00002B   7004         JNZ     ??ZDO_RegisterForZDOMsg_2
   \   00002D   A3           INC     DPTR
   \   00002E   E0           MOVX    A,@DPTR
   \   00002F   65..         XRL     A,?V1
   \                     ??ZDO_RegisterForZDOMsg_2:
   \   000031   6053         JZ      ??CrossCallReturnLabel_223
   1769                return ( ZSuccess );
   1770              pLast = pList;
   \                     ??ZDO_RegisterForZDOMsg_1:
   \   000033   E8           MOV     A,R0
   \   000034   FE           MOV     R6,A
   \   000035   E9           MOV     A,R1
   \   000036   FF           MOV     R7,A
   1771              pList = (ZDO_MsgCB_t *)pList->next;
   \   000037   8882         MOV     DPL,R0
   \   000039   8983         MOV     DPH,R1
   \   00003B   12....       LCALL   ??Subroutine128_0 & 0xFFFF
   1772            }
   \                     ??CrossCallReturnLabel_282:
   \   00003E   F9           MOV     R1,A
   \   00003F   E8           MOV     A,R0
   \   000040   49           ORL     A,R1
   \   000041   70D3         JNZ     ??ZDO_RegisterForZDOMsg_0
   1773          
   1774            // Add to the list
   1775            pNew = (ZDO_MsgCB_t *)osal_mem_alloc( sizeof ( ZDO_MsgCB_t ) );
   \   000043                ; Setup parameters for call to function osal_mem_alloc
   \   000043   7A05         MOV     R2,#0x5
   \   000045   7B00         MOV     R3,#0x0
   \   000047   12....       LCALL   ??osal_mem_alloc?relay; Banked call to: osal_mem_alloc
   \   00004A   8A..         MOV     ?V4,R2
   \   00004C   8B..         MOV     ?V5,R3
   \   00004E   A8..         MOV     R0,?V4
   \   000050   A9..         MOV     R1,?V5
   1776            if ( pNew )
   \   000052   E8           MOV     A,R0
   \   000053   49           ORL     A,R1
   \   000054   6034         JZ      ??ZDO_RegisterForZDOMsg_3
   1777            {
   1778              pNew->taskID = taskID;
   \   000056   8882         MOV     DPL,R0
   \   000058   8983         MOV     DPH,R1
   \   00005A   A3           INC     DPTR
   \   00005B   A3           INC     DPTR
   \   00005C   E5..         MOV     A,?V2
   \   00005E   12....       LCALL   ?Subroutine36 & 0xFFFF
   1779              pNew->clusterID = clusterID;
   \                     ??CrossCallReturnLabel_48:
   \   000061   A3           INC     DPTR
   \   000062   A3           INC     DPTR
   \   000063   A3           INC     DPTR
   \   000064   E5..         MOV     A,?V0
   \   000066   F0           MOVX    @DPTR,A
   \   000067   A3           INC     DPTR
   \   000068   E5..         MOV     A,?V1
   \   00006A   12....       LCALL   ?Subroutine36 & 0xFFFF
   1780              pNew->next = NULL;
   \                     ??CrossCallReturnLabel_49:
   \   00006D   E4           CLR     A
   \   00006E   F0           MOVX    @DPTR,A
   \   00006F   A3           INC     DPTR
   \   000070   F0           MOVX    @DPTR,A
   1781              if ( zdoMsgCBs )
   \   000071   90....       MOV     DPTR,#zdoMsgCBs
   \   000074   12....       LCALL   ?Subroutine62 & 0xFFFF
   \                     ??CrossCallReturnLabel_96:
   \   000077   4B           ORL     A,R3
   \   000078   6006         JZ      ??ZDO_RegisterForZDOMsg_4
   1782              {
   1783                pLast->next = pNew;
   \   00007A   8E82         MOV     DPL,R6
   \   00007C   8F83         MOV     DPH,R7
   \   00007E   8003         SJMP    ??ZDO_RegisterForZDOMsg_5
   1784              }
   1785              else
   1786                zdoMsgCBs = pNew;
   \                     ??ZDO_RegisterForZDOMsg_4:
   \   000080   90....       MOV     DPTR,#zdoMsgCBs
   \                     ??ZDO_RegisterForZDOMsg_5:
   \   000083   12....       LCALL   ??Subroutine117_0 & 0xFFFF
   1787              return ( ZSuccess );
   \                     ??CrossCallReturnLabel_223:
   \   000086   7900         MOV     R1,#0x0
   \   000088   8002         SJMP    ??ZDO_RegisterForZDOMsg_6
   1788            }
   1789            else
   1790              return ( ZMemError );
   \                     ??ZDO_RegisterForZDOMsg_3:
   \   00008A   7910         MOV     R1,#0x10
   \                     ??ZDO_RegisterForZDOMsg_6:
   \   00008C   02....       LJMP    ?Subroutine3 & 0xFFFF
   1791          }
   1792          
   1793          /*********************************************************************
   1794           * @fn          ZDO_RemoveRegisteredCB
   1795           *
   1796           * @brief       Call this function if you don't want to receive the
   1797           *              incoming message.
   1798           *
   1799           * @param       taskID - Where the messages are being delivered.
   1800           * @param       clusterID - What message?
   1801           *
   1802           * @return      ZSuccess - successful, ZFailure if not found
   1803           */

   \                                 In  segment BANKED_CODE, align 1, keep-with-next
   1804          ZStatus_t ZDO_RemoveRegisteredCB( uint8 taskID, uint16 clusterID )
   \                     ZDO_RemoveRegisteredCB:
   1805          {
   \   000000   74F7         MOV     A,#-0x9
   \   000002   12....       LCALL   ?BANKED_ENTER_XDATA
   \   000005                ; Saved register size: 9
   \   000005                ; Auto size: 0
   \   000005   E9           MOV     A,R1
   \   000006   FE           MOV     R6,A
   1806            ZDO_MsgCB_t *pList;
   1807            ZDO_MsgCB_t *pLast = NULL;
   \   000007   7C00         MOV     R4,#0x0
   \   000009   7D00         MOV     R5,#0x0
   1808          
   1809            pList = zdoMsgCBs;
   \   00000B   90....       MOV     DPTR,#zdoMsgCBs
   \   00000E   8008         SJMP    ??ZDO_RemoveRegisteredCB_0
   1810            while ( pList )
   1811            {
   1812              if ( pList->taskID == taskID && pList->clusterID == clusterID )
   1813              {
   1814                if ( pLast )
   1815                {
   1816                  // remove this one from the linked list
   1817                  pLast->next = pList->next;
   1818                }
   1819                else if ( pList->next )
   1820                {
   1821                  // remove the first one from the linked list
   1822                  zdoMsgCBs = pList->next;
   1823                }
   1824                else
   1825                {
   1826                  // remove the only item from the list
   1827                  zdoMsgCBs = (ZDO_MsgCB_t *)NULL;
   1828                }
   1829                osal_mem_free( pList );
   1830                return ( ZSuccess );
   1831              }
   1832              pLast = pList;
   \                     ??ZDO_RemoveRegisteredCB_1:
   \   000010   E8           MOV     A,R0
   \   000011   FC           MOV     R4,A
   \   000012   E9           MOV     A,R1
   \   000013   FD           MOV     R5,A
   1833              pList = pList->next;
   \   000014   8882         MOV     DPL,R0
   \   000016   8983         MOV     DPH,R1
   \                     ??ZDO_RemoveRegisteredCB_0:
   \   000018   12....       LCALL   ??Subroutine101_0 & 0xFFFF
   \                     ??CrossCallReturnLabel_143:
   \   00001B   6049         JZ      ??ZDO_RemoveRegisteredCB_2
   \   00001D   8882         MOV     DPL,R0
   \   00001F   8983         MOV     DPH,R1
   \   000021   A3           INC     DPTR
   \   000022   A3           INC     DPTR
   \   000023   E0           MOVX    A,@DPTR
   \   000024   6E           XRL     A,R6
   \   000025   70E9         JNZ     ??ZDO_RemoveRegisteredCB_1
   \   000027   8882         MOV     DPL,R0
   \   000029   8983         MOV     DPH,R1
   \   00002B   A3           INC     DPTR
   \   00002C   A3           INC     DPTR
   \   00002D   A3           INC     DPTR
   \   00002E   E0           MOVX    A,@DPTR
   \   00002F   6A           XRL     A,R2
   \   000030   7003         JNZ     ??ZDO_RemoveRegisteredCB_3
   \   000032   A3           INC     DPTR
   \   000033   E0           MOVX    A,@DPTR
   \   000034   6B           XRL     A,R3
   \                     ??ZDO_RemoveRegisteredCB_3:
   \   000035   70D9         JNZ     ??ZDO_RemoveRegisteredCB_1
   \   000037   EC           MOV     A,R4
   \   000038   4D           ORL     A,R5
   \   000039   8882         MOV     DPL,R0
   \   00003B   8983         MOV     DPH,R1
   \   00003D   6009         JZ      ??ZDO_RemoveRegisteredCB_4
   \   00003F   12....       LCALL   ??Subroutine110_0 & 0xFFFF
   \                     ??CrossCallReturnLabel_173:
   \   000042   8C82         MOV     DPL,R4
   \   000044   8D83         MOV     DPH,R5
   \   000046   8009         SJMP    ??ZDO_RemoveRegisteredCB_5
   \                     ??ZDO_RemoveRegisteredCB_4:
   \   000048   12....       LCALL   ?Subroutine62 & 0xFFFF
   \                     ??CrossCallReturnLabel_97:
   \   00004B   4B           ORL     A,R3
   \   00004C   90....       MOV     DPTR,#zdoMsgCBs
   \   00004F   6006         JZ      ??ZDO_RemoveRegisteredCB_6
   \                     ??ZDO_RemoveRegisteredCB_5:
   \   000051   EA           MOV     A,R2
   \   000052   F0           MOVX    @DPTR,A
   \   000053   A3           INC     DPTR
   \   000054   EB           MOV     A,R3
   \   000055   8003         SJMP    ??ZDO_RemoveRegisteredCB_7
   \                     ??ZDO_RemoveRegisteredCB_6:
   \   000057   E4           CLR     A
   \   000058   F0           MOVX    @DPTR,A
   \   000059   A3           INC     DPTR
   \                     ??ZDO_RemoveRegisteredCB_7:
   \   00005A   F0           MOVX    @DPTR,A
   \   00005B                ; Setup parameters for call to function osal_mem_free
   \   00005B   E8           MOV     A,R0
   \   00005C   FA           MOV     R2,A
   \   00005D   E9           MOV     A,R1
   \   00005E   FB           MOV     R3,A
   \   00005F   12....       LCALL   ??osal_mem_free?relay; Banked call to: osal_mem_free
   \   000062   7900         MOV     R1,#0x0
   \   000064   8002         SJMP    ??ZDO_RemoveRegisteredCB_8
   1834            }
   1835          
   1836            return ( ZFailure );
   \                     ??ZDO_RemoveRegisteredCB_2:
   \   000066   7901         MOV     R1,#0x1
   \                     ??ZDO_RemoveRegisteredCB_8:
   \   000068   02....       LJMP    ?Subroutine6 & 0xFFFF
   1837          }
   1838          
   1839          /*********************************************************************
   1840           * @fn          ZDO_SendMsgCBs
   1841           *
   1842           * @brief       This function sends messages to registered tasks.
   1843           *              Local to ZDO and shouldn't be called outside of ZDO.
   1844           *
   1845           * @param       inMsg - incoming message
   1846           *
   1847           * @return      TRUE if sent to at least 1 task, FALSE if not
   1848           */

   \                                 In  segment BANKED_CODE, align 1, keep-with-next
   1849          uint8 ZDO_SendMsgCBs( zdoIncomingMsg_t *inMsg )
   \                     ZDO_SendMsgCBs:
   1850          {
   \   000000                REQUIRE ?V0
   \   000000                REQUIRE ?V1
   \   000000                REQUIRE ?V2
   \   000000                REQUIRE ?V3
   \   000000                REQUIRE ?V4
   \   000000                REQUIRE ?V5
   \   000000                REQUIRE ?V6
   \   000000                REQUIRE ?V7
   \   000000   74F0         MOV     A,#-0x10
   \   000002   12....       LCALL   ?BANKED_ENTER_XDATA
   \   000005                ; Saved register size: 16
   \   000005                ; Auto size: 0
   \   000005   8A..         MOV     ?V6,R2
   \   000007   8B..         MOV     ?V7,R3
   1851            uint8 ret = FALSE;
   \   000009   75..00       MOV     ?V0,#0x0
   1852            ZDO_MsgCB_t *pList = zdoMsgCBs;
   \   00000C   90....       MOV     DPTR,#zdoMsgCBs
   \   00000F   02....       LJMP    ??ZDO_SendMsgCBs_0 & 0xFFFF
   1853            while ( pList )
   1854            {
   1855              if ( pList->clusterID == inMsg->clusterID )
   \                     ??ZDO_SendMsgCBs_1:
   \   000012   85..82       MOV     DPL,?V4
   \   000015   85..83       MOV     DPH,?V5
   \   000018   A3           INC     DPTR
   \   000019   A3           INC     DPTR
   \   00001A   A3           INC     DPTR
   \   00001B   12....       LCALL   ??Subroutine127_0 & 0xFFFF
   \                     ??CrossCallReturnLabel_274:
   \   00001E   E5..         MOV     A,?V6
   \   000020   240C         ADD     A,#0xc
   \   000022   F582         MOV     DPL,A
   \   000024   E4           CLR     A
   \   000025   35..         ADDC    A,?V7
   \   000027   F583         MOV     DPH,A
   \   000029   E0           MOVX    A,@DPTR
   \   00002A   68           XRL     A,R0
   \   00002B   7003         JNZ     ??ZDO_SendMsgCBs_2
   \   00002D   A3           INC     DPTR
   \   00002E   E0           MOVX    A,@DPTR
   \   00002F   69           XRL     A,R1
   \                     ??ZDO_SendMsgCBs_2:
   \   000030   6003         JZ      $+5
   \   000032   02....       LJMP    ??ZDO_SendMsgCBs_3 & 0xFFFF
   1856              {
   1857                zdoIncomingMsg_t *msgPtr;
   1858          
   1859                // Send the address to the task
   1860                msgPtr = (zdoIncomingMsg_t *)osal_msg_allocate( sizeof( zdoIncomingMsg_t ) + inMsg->asduLen );
   \   000035                ; Setup parameters for call to function osal_msg_allocate
   \   000035   12....       LCALL   ?Subroutine72 & 0xFFFF
   \                     ??CrossCallReturnLabel_114:
   \   000038   2415         ADD     A,#0x15
   \   00003A   FA           MOV     R2,A
   \   00003B   E4           CLR     A
   \   00003C   3400         ADDC    A,#0x0
   \   00003E   FB           MOV     R3,A
   \   00003F   12....       LCALL   ??osal_msg_allocate?relay; Banked call to: osal_msg_allocate
   \   000042   8A..         MOV     ?V2,R2
   \   000044   8B..         MOV     ?V3,R3
   \   000046   AE..         MOV     R6,?V2
   \   000048   AF..         MOV     R7,?V3
   1861                if ( msgPtr )
   \   00004A   EE           MOV     A,R6
   \   00004B   4F           ORL     A,R7
   \   00004C   606E         JZ      ??ZDO_SendMsgCBs_3
   1862                {
   1863                  // copy struct
   1864                  osal_memcpy( msgPtr, inMsg, sizeof( zdoIncomingMsg_t ));
   \   00004E                ; Setup parameters for call to function osal_memcpy
   \   00004E   85....       MOV     ?V0,?V6
   \   000051   85....       MOV     ?V1,?V7
   \   000054   75..00       MOV     ?V2,#0x0
   \   000057   78..         MOV     R0,#?V0
   \   000059   12....       LCALL   ?PUSH_XSTACK_I_THREE
   \   00005C   7C15         MOV     R4,#0x15
   \   00005E   7D00         MOV     R5,#0x0
   \   000060   12....       LCALL   ??osal_memcpy?relay  ; Banked call to: osal_memcpy
   \   000063   7403         MOV     A,#0x3
   \   000065   12....       LCALL   ?DEALLOC_XSTACK8
   1865          
   1866                  if ( inMsg->asduLen )
   \   000068   12....       LCALL   ?Subroutine72 & 0xFFFF
   \                     ??CrossCallReturnLabel_115:
   \   00006B   6034         JZ      ??ZDO_SendMsgCBs_4
   1867                  {
   1868                    msgPtr->asdu = (byte*)(((byte*)msgPtr) + sizeof( zdoIncomingMsg_t ));
   \   00006D   EE           MOV     A,R6
   \   00006E   2415         ADD     A,#0x15
   \   000070   FA           MOV     R2,A
   \   000071   E4           CLR     A
   \   000072   3F           ADDC    A,R7
   \   000073   FB           MOV     R3,A
   \   000074   EE           MOV     A,R6
   \   000075   2413         ADD     A,#0x13
   \   000077   F582         MOV     DPL,A
   \   000079   E4           CLR     A
   \   00007A   3F           ADDC    A,R7
   \   00007B   F583         MOV     DPH,A
   \   00007D   12....       LCALL   ??Subroutine123_0 & 0xFFFF
   1869                    osal_memcpy( msgPtr->asdu, inMsg->asdu, inMsg->asduLen );
   \                     ??CrossCallReturnLabel_255:
   \   000080                ; Setup parameters for call to function osal_memcpy
   \   000080   E5..         MOV     A,?V6
   \   000082   2413         ADD     A,#0x13
   \   000084   F582         MOV     DPL,A
   \   000086   E4           CLR     A
   \   000087   35..         ADDC    A,?V7
   \   000089   F583         MOV     DPH,A
   \   00008B   12....       LCALL   ??Subroutine114_0 & 0xFFFF
   1870                  }
   \                     ??CrossCallReturnLabel_214:
   \   00008E   78..         MOV     R0,#?V0
   \   000090   12....       LCALL   ?PUSH_XSTACK_I_THREE
   \   000093   12....       LCALL   ?Subroutine72 & 0xFFFF
   \                     ??CrossCallReturnLabel_116:
   \   000096   FC           MOV     R4,A
   \   000097   7D00         MOV     R5,#0x0
   \   000099   12....       LCALL   ??osal_memcpy?relay  ; Banked call to: osal_memcpy
   \   00009C   7403         MOV     A,#0x3
   \   00009E   12....       LCALL   ?DEALLOC_XSTACK8
   1871          
   1872                  msgPtr->hdr.event = ZDO_CB_MSG;
   \                     ??ZDO_SendMsgCBs_4:
   \   0000A1   8E82         MOV     DPL,R6
   \   0000A3   8F83         MOV     DPH,R7
   \   0000A5   74D3         MOV     A,#-0x2d
   \   0000A7   F0           MOVX    @DPTR,A
   1873                  osal_msg_send( pList->taskID, (uint8 *)msgPtr );
   \   0000A8                ; Setup parameters for call to function osal_msg_send
   \   0000A8   EE           MOV     A,R6
   \   0000A9   FA           MOV     R2,A
   \   0000AA   EF           MOV     A,R7
   \   0000AB   FB           MOV     R3,A
   \   0000AC   85..82       MOV     DPL,?V4
   \   0000AF   85..83       MOV     DPH,?V5
   \   0000B2   A3           INC     DPTR
   \   0000B3   A3           INC     DPTR
   \   0000B4   E0           MOVX    A,@DPTR
   \   0000B5   F9           MOV     R1,A
   \   0000B6   12....       LCALL   ??osal_msg_send?relay; Banked call to: osal_msg_send
   1874                  ret = TRUE;
   \   0000B9   75..01       MOV     ?V0,#0x1
   1875                }
   1876              }
   1877              pList = (ZDO_MsgCB_t *)pList->next;
   \                     ??ZDO_SendMsgCBs_3:
   \   0000BC   85..82       MOV     DPL,?V4
   \   0000BF   85..83       MOV     DPH,?V5
   \                     ??ZDO_SendMsgCBs_0:
   \   0000C2   E0           MOVX    A,@DPTR
   \   0000C3   F5..         MOV     ?V4,A
   \   0000C5   A3           INC     DPTR
   \   0000C6   E0           MOVX    A,@DPTR
   \   0000C7   F5..         MOV     ?V5,A
   1878            }
   \   0000C9   E5..         MOV     A,?V4
   \   0000CB   45..         ORL     A,?V5
   \   0000CD   6003         JZ      $+5
   \   0000CF   02....       LJMP    ??ZDO_SendMsgCBs_1 & 0xFFFF
   1879            return ( ret );
   \   0000D2   A9..         MOV     R1,?V0
   \   0000D4   02....       LJMP    ??Subroutine121_0 & 0xFFFF
   1880          }

   \                                 In  segment BANKED_CODE, align 1, keep-with-next
   \                     ?Subroutine72:
   \   000000   E5..         MOV     A,?V6
   \   000002   2410         ADD     A,#0x10
   \   000004   F582         MOV     DPL,A
   \   000006   E4           CLR     A
   \   000007   35..         ADDC    A,?V7
   \   000009   F583         MOV     DPH,A
   \   00000B   E0           MOVX    A,@DPTR
   \   00000C   22           RET
   1881          
   1882          /*********************************************************************
   1883           * Incoming message processor
   1884           */
   1885          
   1886          /*********************************************************************
   1887           * @fn          ZDP_IncomingData
   1888           *
   1889           * @brief       This function indicates the transfer of a data PDU (ASDU)
   1890           *              from the APS sub-layer to the ZDO.
   1891           *
   1892           * @param       pData - Incoming Message
   1893           *
   1894           * @return      none
   1895           */

   \                                 In  segment BANKED_CODE, align 1, keep-with-next
   1896          void ZDP_IncomingData( afIncomingMSGPacket_t *pData )
   \                     ZDP_IncomingData:
   1897          {
   \   000000                REQUIRE ?V0
   \   000000                REQUIRE ?V1
   \   000000                REQUIRE ?V2
   \   000000                REQUIRE ?V3
   \   000000   74F4         MOV     A,#-0xc
   \   000002   12....       LCALL   ?BANKED_ENTER_XDATA
   \   000005                ; Saved register size: 12
   \   000005                ; Auto size: 21
   \   000005   74EB         MOV     A,#-0x15
   \   000007   12....       LCALL   ?ALLOC_XSTACK8
   1898            uint8 x = 0;
   \   00000A   75..00       MOV     ?V0,#0x0
   1899            uint8 handled;
   1900            zdoIncomingMsg_t inMsg;
   1901          
   1902            inMsg.srcAddr.addrMode = Addr16Bit;
   \   00000D   740A         MOV     A,#0xa
   \   00000F   12....       LCALL   ?XSTACK_DISP0_8
   \   000012   7402         MOV     A,#0x2
   \   000014   12....       LCALL   ?Subroutine44 & 0xFFFF
   1903            inMsg.srcAddr.addr.shortAddr = pData->srcAddr.addr.shortAddr;
   \                     ??CrossCallReturnLabel_62:
   \   000017   A3           INC     DPTR
   \   000018   A3           INC     DPTR
   \   000019   12....       LCALL   ??Subroutine127_0 & 0xFFFF
   \                     ??CrossCallReturnLabel_275:
   \   00001C   7402         MOV     A,#0x2
   \   00001E   12....       LCALL   ?XSTACK_DISP0_8
   \   000021   12....       LCALL   ??Subroutine117_0 & 0xFFFF
   1904            inMsg.wasBroadcast = pData->wasBroadcast;
   \                     ??CrossCallReturnLabel_224:
   \   000024   EA           MOV     A,R2
   \   000025   2415         ADD     A,#0x15
   \   000027   F582         MOV     DPL,A
   \   000029   E4           CLR     A
   \   00002A   3B           ADDC    A,R3
   \   00002B   F583         MOV     DPH,A
   \   00002D   E0           MOVX    A,@DPTR
   \   00002E   C0E0         PUSH    A
   \   000030   740B         MOV     A,#0xb
   \   000032   12....       LCALL   ?XSTACK_DISP0_8
   \   000035   D0E0         POP     A
   \   000037   12....       LCALL   ?Subroutine44 & 0xFFFF
   1905            inMsg.clusterID = pData->clusterId;
   \                     ??CrossCallReturnLabel_63:
   \   00003A   12....       LCALL   ??Subroutine127_0 & 0xFFFF
   \                     ??CrossCallReturnLabel_276:
   \   00003D   740C         MOV     A,#0xc
   \   00003F   12....       LCALL   ?XSTACK_DISP0_8
   \   000042   12....       LCALL   ??Subroutine117_0 & 0xFFFF
   1906            inMsg.SecurityUse = pData->SecurityUse;
   \                     ??CrossCallReturnLabel_225:
   \   000045   EA           MOV     A,R2
   \   000046   2419         ADD     A,#0x19
   \   000048   F582         MOV     DPL,A
   \   00004A   E4           CLR     A
   \   00004B   3B           ADDC    A,R3
   \   00004C   F583         MOV     DPH,A
   \   00004E   E0           MOVX    A,@DPTR
   \   00004F   C0E0         PUSH    A
   \   000051   740E         MOV     A,#0xe
   \   000053   12....       LCALL   ?XSTACK_DISP0_8
   \   000056   D0E0         POP     A
   \   000058   F0           MOVX    @DPTR,A
   1907          
   1908            inMsg.asduLen = pData->cmd.DataLength-1;
   \   000059   EA           MOV     A,R2
   \   00005A   2420         ADD     A,#0x20
   \   00005C   F582         MOV     DPL,A
   \   00005E   E4           CLR     A
   \   00005F   3B           ADDC    A,R3
   \   000060   F583         MOV     DPH,A
   \   000062   E0           MOVX    A,@DPTR
   \   000063   14           DEC     A
   \   000064   C0E0         PUSH    A
   \   000066   7410         MOV     A,#0x10
   \   000068   12....       LCALL   ?XSTACK_DISP0_8
   \   00006B   D0E0         POP     A
   \   00006D   F0           MOVX    @DPTR,A
   1909            inMsg.asdu = pData->cmd.Data+1;
   \   00006E   EA           MOV     A,R2
   \   00006F   2422         ADD     A,#0x22
   \   000071   F8           MOV     R0,A
   \   000072   E4           CLR     A
   \   000073   3B           ADDC    A,R3
   \   000074   F9           MOV     R1,A
   \   000075   8882         MOV     DPL,R0
   \   000077   8983         MOV     DPH,R1
   \   000079   E0           MOVX    A,@DPTR
   \   00007A   2401         ADD     A,#0x1
   \   00007C   FC           MOV     R4,A
   \   00007D   A3           INC     DPTR
   \   00007E   E0           MOVX    A,@DPTR
   \   00007F   3400         ADDC    A,#0x0
   \   000081   FD           MOV     R5,A
   \   000082   7413         MOV     A,#0x13
   \   000084   12....       LCALL   ?XSTACK_DISP0_8
   \   000087   EC           MOV     A,R4
   \   000088   F0           MOVX    @DPTR,A
   \   000089   A3           INC     DPTR
   \   00008A   ED           MOV     A,R5
   \   00008B   12....       LCALL   ?Subroutine36 & 0xFFFF
   1910            inMsg.TransSeq = pData->cmd.Data[0];
   \                     ??CrossCallReturnLabel_50:
   \   00008E   12....       LCALL   ??Subroutine111_0 & 0xFFFF
   \                     ??CrossCallReturnLabel_182:
   \   000091   E0           MOVX    A,@DPTR
   \   000092   C0E0         PUSH    A
   \   000094   740F         MOV     A,#0xf
   \   000096   12....       LCALL   ?XSTACK_DISP0_8
   \   000099   D0E0         POP     A
   \   00009B   F0           MOVX    @DPTR,A
   1911            inMsg.macDestAddr = pData->macDestAddr;
   \   00009C   EA           MOV     A,R2
   \   00009D   2412         ADD     A,#0x12
   \   00009F   F582         MOV     DPL,A
   \   0000A1   E4           CLR     A
   \   0000A2   3B           ADDC    A,R3
   \   0000A3   F583         MOV     DPH,A
   \   0000A5   12....       LCALL   ??Subroutine127_0 & 0xFFFF
   \                     ??CrossCallReturnLabel_277:
   \   0000A8   7411         MOV     A,#0x11
   \   0000AA   12....       LCALL   ?XSTACK_DISP0_8
   \   0000AD   12....       LCALL   ??Subroutine117_0 & 0xFFFF
   1912          
   1913            handled = ZDO_SendMsgCBs( &inMsg );
   \                     ??CrossCallReturnLabel_226:
   \   0000B0                ; Setup parameters for call to function ZDO_SendMsgCBs
   \   0000B0   AA..         MOV     R2,?XSP + 0
   \   0000B2   AB..         MOV     R3,?XSP + 1
   \   0000B4   12....       LCALL   ??ZDO_SendMsgCBs?relay; Banked call to: ZDO_SendMsgCBs
   \   0000B7   E9           MOV     A,R1
   \   0000B8   FA           MOV     R2,A
   \   0000B9   8002         SJMP    ??ZDP_IncomingData_0
   1914          
   1915          #if (defined MT_ZDO_CB_FUNC)
   1916          #if !defined MT_TASK
   1917            if (zgZdoDirectCB)
   1918          #endif
   1919            {
   1920              MT_ZdoDirectCB( pData, &inMsg );
   1921            }
   1922          #endif
   1923          
   1924            while ( zdpMsgProcs[x].clusterID != 0xFFFF )
   1925            {
   1926              if ( zdpMsgProcs[x].clusterID == inMsg.clusterID )
   1927              {
   1928                zdpMsgProcs[x].pFn( &inMsg );
   1929                return;
   1930              }
   1931              x++;
   \                     ??ZDP_IncomingData_1:
   \   0000BB   05..         INC     ?V0
   \                     ??ZDP_IncomingData_0:
   \   0000BD   85....       MOV     ?V2,?V0
   \   0000C0   75..00       MOV     ?V3,#0x0
   \   0000C3   7402         MOV     A,#0x2
   \   0000C5   78..         MOV     R0,#?V2
   \   0000C7   12....       LCALL   ?S_SHL
   \   0000CA   74..         MOV     A,#zdpMsgProcs & 0xff
   \   0000CC   25..         ADD     A,?V2
   \   0000CE   F582         MOV     DPL,A
   \   0000D0   74..         MOV     A,#(zdpMsgProcs >> 8) & 0xff
   \   0000D2   35..         ADDC    A,?V3
   \   0000D4   F583         MOV     DPH,A
   \   0000D6   E4           CLR     A
   \   0000D7   93           MOVC    A,@A+DPTR
   \   0000D8   F8           MOV     R0,A
   \   0000D9   7401         MOV     A,#0x1
   \   0000DB   93           MOVC    A,@A+DPTR
   \   0000DC   F9           MOV     R1,A
   \   0000DD   74FF         MOV     A,#-0x1
   \   0000DF   68           XRL     A,R0
   \   0000E0   7003         JNZ     ??ZDP_IncomingData_2
   \   0000E2   74FF         MOV     A,#-0x1
   \   0000E4   69           XRL     A,R1
   \                     ??ZDP_IncomingData_2:
   \   0000E5   603F         JZ      ??ZDP_IncomingData_3
   \   0000E7   E4           CLR     A
   \   0000E8   93           MOVC    A,@A+DPTR
   \   0000E9   F8           MOV     R0,A
   \   0000EA   7401         MOV     A,#0x1
   \   0000EC   93           MOVC    A,@A+DPTR
   \   0000ED   F9           MOV     R1,A
   \   0000EE   740C         MOV     A,#0xc
   \   0000F0   12....       LCALL   ?XSTACK_DISP0_8
   \   0000F3   E0           MOVX    A,@DPTR
   \   0000F4   68           XRL     A,R0
   \   0000F5   7003         JNZ     ??ZDP_IncomingData_4
   \   0000F7   A3           INC     DPTR
   \   0000F8   E0           MOVX    A,@DPTR
   \   0000F9   69           XRL     A,R1
   \                     ??ZDP_IncomingData_4:
   \   0000FA   70BF         JNZ     ??ZDP_IncomingData_1
   \   0000FC                ; Setup parameters for indirect call
   \   0000FC   AA..         MOV     R2,?XSP + 0
   \   0000FE   AB..         MOV     R3,?XSP + 1
   \   000100   75..00       MOV     ?V1,#0x0
   \   000103   7402         MOV     A,#0x2
   \   000105   78..         MOV     R0,#?V0
   \   000107   12....       LCALL   ?S_SHL
   \   00010A   74..         MOV     A,#(zdpMsgProcs + 2) & 0xff
   \   00010C   25..         ADD     A,?V0
   \   00010E   F582         MOV     DPL,A
   \   000110   74..         MOV     A,#((zdpMsgProcs + 2) >> 8) & 0xff
   \   000112   35..         ADDC    A,?V1
   \   000114   F583         MOV     DPH,A
   \   000116   E4           CLR     A
   \   000117   93           MOVC    A,@A+DPTR
   \   000118   C0E0         PUSH    A
   \   00011A   7401         MOV     A,#0x1
   \   00011C   93           MOVC    A,@A+DPTR
   \   00011D   F583         MOV     DPH,A
   \   00011F   D082         POP     DPL
   \   000121   12....       LCALL   ?CALL_IND
   \   000124   800A         SJMP    ??ZDP_IncomingData_5
   1932            }
   1933          
   1934            // Handle unhandled messages
   1935            if ( !handled )
   \                     ??ZDP_IncomingData_3:
   \   000126   EA           MOV     A,R2
   \   000127   7007         JNZ     ??ZDP_IncomingData_5
   1936              ZDApp_InMsgCB( &inMsg );
   \   000129                ; Setup parameters for call to function ZDApp_InMsgCB
   \   000129   AA..         MOV     R2,?XSP + 0
   \   00012B   AB..         MOV     R3,?XSP + 1
   \   00012D   12....       LCALL   ??ZDApp_InMsgCB?relay; Banked call to: ZDApp_InMsgCB
   1937          }
   \                     ??ZDP_IncomingData_5:
   \   000130   7415         MOV     A,#0x15
   \   000132   02....       LJMP    ??Subroutine96_0 & 0xFFFF

   \                                 In  segment BANKED_CODE, align 1, keep-with-next
   \                     ?Subroutine44:
   \   000000   F0           MOVX    @DPTR,A
   \   000001   8A82         MOV     DPL,R2
   \   000003   8B83         MOV     DPH,R3
   \   000005   A3           INC     DPTR
   \   000006   A3           INC     DPTR
   \   000007   A3           INC     DPTR
   \   000008   A3           INC     DPTR
   \   000009   22           RET

   \                                 In  segment XDATA_ID, align 1, keep-with-next
   \                     `?<Initializer for ZDP_TmpBuf>`:
   \   000000   ....         DW ZDP_Buf + 1H

   \                                 In  segment BANK_RELAYS, align 1
   \                     ??fillAndSend?relay:
   \   000000   12....       LCALL   ?BDISPATCH
   \   000003   ......       DC24    fillAndSend

   \                                 In  segment BANK_RELAYS, align 1
   \                     ??ZDP_SendData?relay:
   \   000000   12....       LCALL   ?BDISPATCH
   \   000003   ......       DC24    ZDP_SendData

   \                                 In  segment BANK_RELAYS, align 1
   \                     ??ZDP_NWKAddrOfInterestReq?relay:
   \   000000   12....       LCALL   ?BDISPATCH
   \   000003   ......       DC24    ZDP_NWKAddrOfInterestReq

   \                                 In  segment BANK_RELAYS, align 1
   \                     ??ZDP_NwkAddrReq?relay:
   \   000000   12....       LCALL   ?BDISPATCH
   \   000003   ......       DC24    ZDP_NwkAddrReq

   \                                 In  segment BANK_RELAYS, align 1
   \                     ??ZDP_IEEEAddrReq?relay:
   \   000000   12....       LCALL   ?BDISPATCH
   \   000003   ......       DC24    ZDP_IEEEAddrReq

   \                                 In  segment BANK_RELAYS, align 1
   \                     ??ZDP_MatchDescReq?relay:
   \   000000   12....       LCALL   ?BDISPATCH
   \   000003   ......       DC24    ZDP_MatchDescReq

   \                                 In  segment BANK_RELAYS, align 1
   \                     ??ZDP_SimpleDescReq?relay:
   \   000000   12....       LCALL   ?BDISPATCH
   \   000003   ......       DC24    ZDP_SimpleDescReq

   \                                 In  segment BANK_RELAYS, align 1
   \                     ??ZDP_UserDescSet?relay:
   \   000000   12....       LCALL   ?BDISPATCH
   \   000003   ......       DC24    ZDP_UserDescSet

   \                                 In  segment BANK_RELAYS, align 1
   \                     ??ZDP_ServerDiscReq?relay:
   \   000000   12....       LCALL   ?BDISPATCH
   \   000003   ......       DC24    ZDP_ServerDiscReq

   \                                 In  segment BANK_RELAYS, align 1
   \                     ??ZDP_DeviceAnnce?relay:
   \   000000   12....       LCALL   ?BDISPATCH
   \   000003   ......       DC24    ZDP_DeviceAnnce

   \                                 In  segment BANK_RELAYS, align 1
   \                     ??zdpProcessAddrReq?relay:
   \   000000   12....       LCALL   ?BDISPATCH
   \   000003   ......       DC24    zdpProcessAddrReq

   \                                 In  segment BANK_RELAYS, align 1
   \                     ??ZDP_NodeDescMsg?relay:
   \   000000   12....       LCALL   ?BDISPATCH
   \   000003   ......       DC24    ZDP_NodeDescMsg

   \                                 In  segment BANK_RELAYS, align 1
   \                     ??ZDP_PowerDescMsg?relay:
   \   000000   12....       LCALL   ?BDISPATCH
   \   000003   ......       DC24    ZDP_PowerDescMsg

   \                                 In  segment BANK_RELAYS, align 1
   \                     ??ZDP_SimpleDescMsg?relay:
   \   000000   12....       LCALL   ?BDISPATCH
   \   000003   ......       DC24    ZDP_SimpleDescMsg

   \                                 In  segment BANK_RELAYS, align 1
   \                     ??ZDP_EPRsp?relay:
   \   000000   12....       LCALL   ?BDISPATCH
   \   000003   ......       DC24    ZDP_EPRsp

   \                                 In  segment BANK_RELAYS, align 1
   \                     ??ZDP_UserDescRsp?relay:
   \   000000   12....       LCALL   ?BDISPATCH
   \   000003   ......       DC24    ZDP_UserDescRsp

   \                                 In  segment BANK_RELAYS, align 1
   \                     ??ZDP_ServerDiscRsp?relay:
   \   000000   12....       LCALL   ?BDISPATCH
   \   000003   ......       DC24    ZDP_ServerDiscRsp

   \                                 In  segment BANK_RELAYS, align 1
   \                     ??ZDP_GenericRsp?relay:
   \   000000   12....       LCALL   ?BDISPATCH
   \   000003   ......       DC24    ZDP_GenericRsp

   \                                 In  segment BANK_RELAYS, align 1
   \                     ??ZDP_EndDeviceBindReq?relay:
   \   000000   12....       LCALL   ?BDISPATCH
   \   000003   ......       DC24    ZDP_EndDeviceBindReq

   \                                 In  segment BANK_RELAYS, align 1
   \                     ??ZDP_BindUnbindReq?relay:
   \   000000   12....       LCALL   ?BDISPATCH
   \   000003   ......       DC24    ZDP_BindUnbindReq

   \                                 In  segment BANK_RELAYS, align 1
   \                     ??ZDP_MgmtNwkDiscReq?relay:
   \   000000   12....       LCALL   ?BDISPATCH
   \   000003   ......       DC24    ZDP_MgmtNwkDiscReq

   \                                 In  segment BANK_RELAYS, align 1
   \                     ??ZDP_MgmtDirectJoinReq?relay:
   \   000000   12....       LCALL   ?BDISPATCH
   \   000003   ......       DC24    ZDP_MgmtDirectJoinReq

   \                                 In  segment BANK_RELAYS, align 1
   \                     ??ZDP_MgmtPermitJoinReq?relay:
   \   000000   12....       LCALL   ?BDISPATCH
   \   000003   ......       DC24    ZDP_MgmtPermitJoinReq

   \                                 In  segment BANK_RELAYS, align 1
   \                     ??ZDP_MgmtLeaveReq?relay:
   \   000000   12....       LCALL   ?BDISPATCH
   \   000003   ......       DC24    ZDP_MgmtLeaveReq

   \                                 In  segment BANK_RELAYS, align 1
   \                     ??ZDP_MgmtNwkUpdateReq?relay:
   \   000000   12....       LCALL   ?BDISPATCH
   \   000003   ......       DC24    ZDP_MgmtNwkUpdateReq

   \                                 In  segment BANK_RELAYS, align 1
   \                     ??ZDP_MgmtNwkDiscRsp?relay:
   \   000000   12....       LCALL   ?BDISPATCH
   \   000003   ......       DC24    ZDP_MgmtNwkDiscRsp

   \                                 In  segment BANK_RELAYS, align 1
   \                     ??ZDP_MgmtLqiRsp?relay:
   \   000000   12....       LCALL   ?BDISPATCH
   \   000003   ......       DC24    ZDP_MgmtLqiRsp

   \                                 In  segment BANK_RELAYS, align 1
   \                     ??ZDP_MgmtRtgRsp?relay:
   \   000000   12....       LCALL   ?BDISPATCH
   \   000003   ......       DC24    ZDP_MgmtRtgRsp

   \                                 In  segment BANK_RELAYS, align 1
   \                     ??ZDP_MgmtBindRsp?relay:
   \   000000   12....       LCALL   ?BDISPATCH
   \   000003   ......       DC24    ZDP_MgmtBindRsp

   \                                 In  segment BANK_RELAYS, align 1
   \                     ??ZDP_MgmtNwkUpdateNotify?relay:
   \   000000   12....       LCALL   ?BDISPATCH
   \   000003   ......       DC24    ZDP_MgmtNwkUpdateNotify

   \                                 In  segment BANK_RELAYS, align 1
   \                     ??ZDO_RegisterForZDOMsg?relay:
   \   000000   12....       LCALL   ?BDISPATCH
   \   000003   ......       DC24    ZDO_RegisterForZDOMsg

   \                                 In  segment BANK_RELAYS, align 1
   \                     ??ZDO_RemoveRegisteredCB?relay:
   \   000000   12....       LCALL   ?BDISPATCH
   \   000003   ......       DC24    ZDO_RemoveRegisteredCB

   \                                 In  segment BANK_RELAYS, align 1
   \                     ??ZDO_SendMsgCBs?relay:
   \   000000   12....       LCALL   ?BDISPATCH
   \   000003   ......       DC24    ZDO_SendMsgCBs

   \                                 In  segment BANK_RELAYS, align 1
   \                     ??ZDP_IncomingData?relay:
   \   000000   12....       LCALL   ?BDISPATCH
   \   000003   ......       DC24    ZDP_IncomingData
   1938          
   1939          /*********************************************************************
   1940          *********************************************************************/
   1941          

   Maximum stack usage in bytes:

   ISTACK XSTACK Function
   ------ ------ --------
      1     14   ZDO_RegisterForZDOMsg
        0     14   -> osal_mem_alloc
      0      9   ZDO_RemoveRegisteredCB
        0      9   -> osal_mem_free
      0     52   ZDO_SendMsgCBs
        0     19   -> osal_memcpy
        0     16   -> osal_msg_allocate
        0     16   -> osal_msg_send
      1     26   ZDP_BindUnbindReq
        0     18   -> fillAndSend
        0     16   -> sAddrExtCpy
        1     16   -> sAddrExtCpy
      1     22   ZDP_DeviceAnnce
        0     21   -> fillAndSend
        0     19   -> sAddrExtCpy
      1     27   ZDP_EPRsp
        0     19   -> fillAndSend
        0     20   -> osal_memcpy
      1     29   ZDP_EndDeviceBindReq
        0     18   -> NLME_GetExtAddr
        0     18   -> NLME_GetShortAddr
        0     20   -> fillAndSend
        0     18   -> sAddrExtCpy
      1     16   ZDP_GenericRsp
        0     12   -> fillAndSend
      1     21   ZDP_IEEEAddrReq
        0     21   -> fillAndSend
      1     33   ZDP_IncomingData
        0     33   -> ZDApp_InMsgCB
        0     33   -> ZDO_SendMsgCBs
      1     24   ZDP_MatchDescReq
        0     16   -> fillAndSend
      1     27   ZDP_MgmtBindRsp
        0     22   -> fillAndSend
        0     20   -> osal_mem_alloc
        0     20   -> osal_mem_free
        0     20   -> sAddrExtCpy
      1     15   ZDP_MgmtDirectJoinReq
        0     14   -> fillAndSend
        0     12   -> sAddrExtCpy
      0     16   ZDP_MgmtLeaveReq
        0     14   -> fillAndSend
        0     12   -> sAddrExtCpy
      1     28   ZDP_MgmtLqiRsp
        0     23   -> fillAndSend
        0     21   -> osal_mem_alloc
        0     21   -> osal_mem_free
        0     21   -> sAddrExtCpy
      1     20   ZDP_MgmtNwkDiscReq
        0     14   -> fillAndSend
        0     16   -> osal_buffer_uint32
      1     27   ZDP_MgmtNwkDiscRsp
        0     22   -> fillAndSend
        0     20   -> osal_mem_alloc
        0     20   -> osal_mem_free
        0     20   -> sAddrExtCpy
      1     33   ZDP_MgmtNwkUpdateNotify
        0     19   -> fillAndSend
        0     21   -> osal_buffer_uint32
        0     17   -> osal_mem_alloc
        0     17   -> osal_mem_free
        0     20   -> osal_memcpy
      1     24   ZDP_MgmtNwkUpdateReq
        0     16   -> fillAndSend
        0     18   -> osal_buffer_uint32
      1     12   ZDP_MgmtPermitJoinReq
        0     12   -> fillAndSend
      1     26   ZDP_MgmtRtgRsp
        0     21   -> fillAndSend
        0     19   -> osal_mem_alloc
        0     19   -> osal_mem_free
      1     13   ZDP_NWKAddrOfInterestReq
        0     12   -> fillAndSend
      1     14   ZDP_NodeDescMsg
        0     12   -> fillAndSend
      1     23   ZDP_NwkAddrReq
        0     23   -> fillAndSend
        0     21   -> sAddrExtCmp
        0     21   -> sAddrExtCpy
      1     14   ZDP_PowerDescMsg
        0     12   -> fillAndSend
      1     19   ZDP_SendData
        0     14   -> fillAndSend
      1     21   ZDP_ServerDiscReq
        0     21   -> fillAndSend
      1     17   ZDP_ServerDiscRsp
        0     13   -> fillAndSend
      1     17   ZDP_SimpleDescMsg
        0     17   -> fillAndSend
      1     13   ZDP_SimpleDescReq
        0     12   -> fillAndSend
      1     23   ZDP_UserDescRsp
        0     19   -> fillAndSend
        0     20   -> osal_memcpy
      1     22   ZDP_UserDescSet
        0     19   -> fillAndSend
        1     20   -> osal_memcpy
        0     17   -> osal_memset
      1     57   fillAndSend
        0     34   -> AF_DataRequest
        0     25   -> osal_memset
      1     15   zdpProcessAddrReq
        0     15   -> fillAndSend
        0     13   -> sAddrExtCmp
        0     13   -> sAddrExtCpy


   Segment part sizes:

   Bytes  Function/Label
   -----  --------------
       2  ?<Initializer for ZDP_TmpBuf>
      10  ??Subroutine100_0
       6  ??Subroutine101_0
       4  ??Subroutine102_0
       4  ??Subroutine103_0
      10  ??Subroutine104_0
       8  ??Subroutine105_0
       5  ??Subroutine106_0
       8  ??Subroutine107_0
       4  ??Subroutine108_0
       3  ??Subroutine109_0
       6  ??Subroutine110_0
       4  ??Subroutine111_0
       4  ??Subroutine112_0
       7  ??Subroutine113_0
       8  ??Subroutine114_0
       7  ??Subroutine115_0
       8  ??Subroutine116_0
       1  ??Subroutine117_0
       5  ??Subroutine118_0
       4  ??Subroutine119_0
       3  ??Subroutine120_0
       5  ??Subroutine121_0
       4  ??Subroutine122_0
       1  ??Subroutine123_0
       5  ??Subroutine124_0
       6  ??Subroutine125_0
       4  ??Subroutine126_0
       4  ??Subroutine127_0
       5  ??Subroutine128_0
       9  ??Subroutine95_0
       3  ??Subroutine96_0
       5  ??Subroutine97_0
       5  ??Subroutine98_0
       7  ??Subroutine99_0
       6  ??ZDO_RegisterForZDOMsg?relay
       6  ??ZDO_RemoveRegisteredCB?relay
       6  ??ZDO_SendMsgCBs?relay
       6  ??ZDP_BindUnbindReq?relay
       6  ??ZDP_DeviceAnnce?relay
       6  ??ZDP_EPRsp?relay
       6  ??ZDP_EndDeviceBindReq?relay
       6  ??ZDP_GenericRsp?relay
       6  ??ZDP_IEEEAddrReq?relay
       6  ??ZDP_IncomingData?relay
       6  ??ZDP_MatchDescReq?relay
       6  ??ZDP_MgmtBindRsp?relay
       6  ??ZDP_MgmtDirectJoinReq?relay
       6  ??ZDP_MgmtLeaveReq?relay
       6  ??ZDP_MgmtLqiRsp?relay
       6  ??ZDP_MgmtNwkDiscReq?relay
       6  ??ZDP_MgmtNwkDiscRsp?relay
       6  ??ZDP_MgmtNwkUpdateNotify?relay
       6  ??ZDP_MgmtNwkUpdateReq?relay
       6  ??ZDP_MgmtPermitJoinReq?relay
       6  ??ZDP_MgmtRtgRsp?relay
       6  ??ZDP_NWKAddrOfInterestReq?relay
       6  ??ZDP_NodeDescMsg?relay
       6  ??ZDP_NwkAddrReq?relay
       6  ??ZDP_PowerDescMsg?relay
       6  ??ZDP_SendData?relay
       6  ??ZDP_ServerDiscReq?relay
       6  ??ZDP_ServerDiscRsp?relay
       6  ??ZDP_SimpleDescMsg?relay
       6  ??ZDP_SimpleDescReq?relay
       6  ??ZDP_UserDescRsp?relay
       6  ??ZDP_UserDescSet?relay
       6  ??fillAndSend?relay
       6  ??zdpProcessAddrReq?relay
       5  ?Subroutine0
      14  ?Subroutine1
      46  ?Subroutine10
       7  ?Subroutine11
       4  ?Subroutine12
      21  ?Subroutine13
      18  ?Subroutine14
      18  ?Subroutine15
       7  ?Subroutine16
       7  ?Subroutine17
      15  ?Subroutine18
       4  ?Subroutine19
      10  ?Subroutine2
      12  ?Subroutine20
       5  ?Subroutine21
       4  ?Subroutine22
       8  ?Subroutine23
      11  ?Subroutine24
      15  ?Subroutine25
      16  ?Subroutine26
       4  ?Subroutine27
       1  ?Subroutine28
      18  ?Subroutine29
       5  ?Subroutine3
      13  ?Subroutine30
       6  ?Subroutine31
      15  ?Subroutine32
      14  ?Subroutine33
      13  ?Subroutine34
       6  ?Subroutine35
       6  ?Subroutine36
       5  ?Subroutine37
       1  ?Subroutine38
       7  ?Subroutine39
       5  ?Subroutine4
      13  ?Subroutine40
       7  ?Subroutine41
       3  ?Subroutine42
      10  ?Subroutine43
      10  ?Subroutine44
       6  ?Subroutine45
       1  ?Subroutine46
      13  ?Subroutine47
       3  ?Subroutine48
       8  ?Subroutine49
       2  ?Subroutine5
       8  ?Subroutine50
       4  ?Subroutine51
      13  ?Subroutine52
       3  ?Subroutine53
      13  ?Subroutine54
      10  ?Subroutine55
       3  ?Subroutine56
       3  ?Subroutine57
       4  ?Subroutine58
       1  ?Subroutine59
       5  ?Subroutine6
      10  ?Subroutine60
       6  ?Subroutine61
       7  ?Subroutine62
       6  ?Subroutine63
       1  ?Subroutine64
       8  ?Subroutine65
       2  ?Subroutine66
      15  ?Subroutine67
       7  ?Subroutine68
      11  ?Subroutine69
      17  ?Subroutine7
      10  ?Subroutine70
      12  ?Subroutine71
      13  ?Subroutine72
      13  ?Subroutine73
       4  ?Subroutine74
      10  ?Subroutine75
       1  ?Subroutine76
       9  ?Subroutine77
      15  ?Subroutine78
       6  ?Subroutine79
       5  ?Subroutine8
      10  ?Subroutine80
       5  ?Subroutine81
       2  ?Subroutine82
       6  ?Subroutine83
       9  ?Subroutine84
       4  ?Subroutine85
      16  ?Subroutine86
       7  ?Subroutine87
       9  ?Subroutine88
      10  ?Subroutine89
      35  ?Subroutine9
      11  ?Subroutine90
       9  ?Subroutine91
       8  ?Subroutine92
       6  ?Subroutine93
       3  ?Subroutine94
     143  ZDO_RegisterForZDOMsg
     107  ZDO_RemoveRegisteredCB
     215  ZDO_SendMsgCBs
       1  ZDP_AF_ENDPOINT
     210  ZDP_BindUnbindReq
      80  ZDP_Buf
      74  ZDP_DeviceAnnce
     152  ZDP_EPRsp
     254  ZDP_EndDeviceBindReq
      87  ZDP_GenericRsp
      53  ZDP_IEEEAddrReq
     309  ZDP_IncomingData
     223  ZDP_MatchDescReq
     262  ZDP_MgmtBindRsp
      23  ZDP_MgmtDirectJoinReq
      50  ZDP_MgmtLeaveReq
     384  ZDP_MgmtLqiRsp
      61  ZDP_MgmtNwkDiscReq
     288  ZDP_MgmtNwkDiscRsp
     222  ZDP_MgmtNwkUpdateNotify
     137  ZDP_MgmtNwkUpdateReq
      20  ZDP_MgmtPermitJoinReq
     249  ZDP_MgmtRtgRsp
      16  ZDP_NWKAddrOfInterestReq
     139  ZDP_NodeDescMsg
     130  ZDP_NwkAddrReq
      70  ZDP_PowerDescMsg
     113  ZDP_SendData
      79  ZDP_ServerDiscReq
      87  ZDP_ServerDiscRsp
     269  ZDP_SimpleDescMsg
      27  ZDP_SimpleDescReq
       2  ZDP_TmpBuf
       1  ZDP_TransID
       1  ZDP_TxOptions
     132  ZDP_UserDescRsp
     160  ZDP_UserDescSet
     159  fillAndSend
       2  zdoMsgCBs
      40  zdpMsgProcs
     285  zdpProcessAddrReq

 
 6 218 bytes in segment BANKED_CODE
   204 bytes in segment BANK_RELAYS
    41 bytes in segment CODE_C
     2 bytes in segment XDATA_I
     2 bytes in segment XDATA_ID
    84 bytes in segment XDATA_Z
 
 6 465 bytes of CODE  memory
    86 bytes of XDATA memory

Errors: none
Warnings: none
