///////////////////////////////////////////////////////////////////////////////
//                                                                            /
// IAR C/C++ Compiler V8.30.1.41636 for 8051            27/Jun/2014  17:16:24 /
// Copyright 2004-2013 IAR Systems AB.                                        /
//                                                                            /
//    Core               =  plain                                             /
//    Code model         =  banked                                            /
//    Data model         =  large                                             /
//    Calling convention =  xdata reentrant                                   /
//    Constant location  =  data_rom                                          /
//    Dptr setup         =  1,16                                              /
//                                                                            /
//    Source file        =  C:\Texas Instruments\ZStack-CC2530-2.5.1a\Project /
//                          s\zstack\Samples\ParkWay\Source\PW_EndDevice.c    /
//    Command line       =  -f "C:\Texas Instruments\ZStack-CC2530-2.5.1a\Pro /
//                          jects\zstack\Samples\ParkWay\CC2530DB\..\..\..\To /
//                          ols\CC2530DB\f8wEndev.cfg" (-DCPU32MHZ            /
//                          -DROOT=__near_func -DMAC_CFG_TX_DATA_MAX=3        /
//                          -DMAC_CFG_TX_MAX=6 -DMAC_CFG_RX_MAX=3) -f         /
//                          "C:\Texas Instruments\ZStack-CC2530-2.5.1a\Projec /
//                          ts\zstack\Samples\ParkWay\CC2530DB\..\..\..\Tools /
//                          \CC2530DB\f8wConfig.cfg" (-DZIGBEEPRO -DSECURE=0  /
//                          -DZG_SECURE_DYNAMIC=0 -DREFLECTOR                 /
//                          -DDEFAULT_CHANLIST=0x00000800                     /
//                          -DZDAPP_CONFIG_PAN_ID=0xFFFF                      /
//                          -DNWK_START_DELAY=100 -DEXTENDED_JOINING_RANDOM_M /
//                          ASK=0x007F -DBEACON_REQUEST_DELAY=100             /
//                          -DBEACON_REQ_DELAY_MASK=0x00FF                    /
//                          -DLINK_STATUS_JITTER_MASK=0x007F                  /
//                          -DROUTE_EXPIRY_TIME=30 -DAPSC_ACK_WAIT_DURATION_P /
//                          OLLED=3000 -DNWK_INDIRECT_MSG_TIMEOUT=7           /
//                          -DMAX_RREQ_ENTRIES=8 -DAPSC_MAX_FRAME_RETRIES=3   /
//                          -DNWK_MAX_DATA_RETRIES=2                          /
//                          -DMAX_POLL_FAILURE_RETRIES=2 -DMAX_BCAST=9        /
//                          -DAPS_MAX_GROUPS=16 -DMAX_RTG_ENTRIES=40          /
//                          -DNWK_MAX_BINDING_ENTRIES=4                       /
//                          -DMAX_BINDING_CLUSTER_IDS=4                       /
//                          "-DDEFAULT_KEY={0x01, 0x03, 0x05, 0x07, 0x09,     /
//                          0x0B, 0x0D, 0x0F, 0x00, 0x02, 0x04, 0x06, 0x08,   /
//                          0x0A, 0x0C, 0x0D}" -DMAC_MAX_FRAME_SIZE=116       /
//                          -DZDNWKMGR_MIN_TRANSMISSIONS=20 "-DCONST=const    /
//                          __code" -DGENERIC=__generic                       /
//                          -DRFD_RCVC_ALWAYS_ON=FALSE -DPOLL_RATE=1000       /
//                          -DQUEUED_POLL_RATE=100 -DRESPONSE_POLL_RATE=100)  /
//                          -DREJOIN_POLL_RATE=440 "C:\Texas                  /
//                          Instruments\ZStack-CC2530-2.5.1a\Projects\zstack\ /
//                          Samples\ParkWay\Source\PW_EndDevice.c" -D         /
//                          NWK_AUTO_POLL -D ZTOOL_P1 -D MT_TASK -D           /
//                          MT_SYS_FUNC -D MT_ZDO_FUNC -D                     /
//                          xLCD_SUPPORTED=DEBUG -D POWER_SAVING -lC          /
//                          "C:\Texas Instruments\ZStack-CC2530-2.5.1a\Projec /
//                          ts\zstack\Samples\ParkWay\CC2530DB\EndDeviceEB\Li /
//                          st\" -lA "C:\Texas Instruments\ZStack-CC2530-2.5. /
//                          1a\Projects\zstack\Samples\ParkWay\CC2530DB\EndDe /
//                          viceEB\List\" --diag_suppress Pe001,Pa010 -o      /
//                          "C:\Texas Instruments\ZStack-CC2530-2.5.1a\Projec /
//                          ts\zstack\Samples\ParkWay\CC2530DB\EndDeviceEB\Ob /
//                          j\" -e --no_code_motion --debug --core=plain      /
//                          --dptr=16,1 --data_model=large                    /
//                          --code_model=banked --calling_convention=xdata_re /
//                          entrant --place_constants=data_rom                /
//                          --nr_virtual_regs 8 -I "C:\Texas                  /
//                          Instruments\ZStack-CC2530-2.5.1a\Projects\zstack\ /
//                          Samples\ParkWay\CC2530DB\" -I "C:\Texas           /
//                          Instruments\ZStack-CC2530-2.5.1a\Projects\zstack\ /
//                          Samples\ParkWay\CC2530DB\..\Source\" -I           /
//                          "C:\Texas Instruments\ZStack-CC2530-2.5.1a\Projec /
//                          ts\zstack\Samples\ParkWay\CC2530DB\..\..\..\ZMain /
//                          \TI2530DB\" -I "C:\Texas                          /
//                          Instruments\ZStack-CC2530-2.5.1a\Projects\zstack\ /
//                          Samples\ParkWay\CC2530DB\..\..\..\..\..\Component /
//                          s\hal\include\" -I "C:\Texas                      /
//                          Instruments\ZStack-CC2530-2.5.1a\Projects\zstack\ /
//                          Samples\ParkWay\CC2530DB\..\..\..\..\..\Component /
//                          s\hal\target\CC2530EB\" -I "C:\Texas              /
//                          Instruments\ZStack-CC2530-2.5.1a\Projects\zstack\ /
//                          Samples\ParkWay\CC2530DB\..\..\..\..\..\Component /
//                          s\mac\include\" -I "C:\Texas                      /
//                          Instruments\ZStack-CC2530-2.5.1a\Projects\zstack\ /
//                          Samples\ParkWay\CC2530DB\..\..\..\..\..\Component /
//                          s\mac\high_level\" -I "C:\Texas                   /
//                          Instruments\ZStack-CC2530-2.5.1a\Projects\zstack\ /
//                          Samples\ParkWay\CC2530DB\..\..\..\..\..\Component /
//                          s\mac\low_level\srf04\" -I "C:\Texas              /
//                          Instruments\ZStack-CC2530-2.5.1a\Projects\zstack\ /
//                          Samples\ParkWay\CC2530DB\..\..\..\..\..\Component /
//                          s\mac\low_level\srf04\single_chip\" -I "C:\Texas  /
//                          Instruments\ZStack-CC2530-2.5.1a\Projects\zstack\ /
//                          Samples\ParkWay\CC2530DB\..\..\..\..\..\Component /
//                          s\mt\" -I "C:\Texas Instruments\ZStack-CC2530-2.5 /
//                          .1a\Projects\zstack\Samples\ParkWay\CC2530DB\..\. /
//                          .\..\..\..\Components\osal\include\" -I           /
//                          "C:\Texas Instruments\ZStack-CC2530-2.5.1a\Projec /
//                          ts\zstack\Samples\ParkWay\CC2530DB\..\..\..\..\.. /
//                          \Components\services\saddr\" -I "C:\Texas         /
//                          Instruments\ZStack-CC2530-2.5.1a\Projects\zstack\ /
//                          Samples\ParkWay\CC2530DB\..\..\..\..\..\Component /
//                          s\services\sdata\" -I "C:\Texas                   /
//                          Instruments\ZStack-CC2530-2.5.1a\Projects\zstack\ /
//                          Samples\ParkWay\CC2530DB\..\..\..\..\..\Component /
//                          s\stack\af\" -I "C:\Texas                         /
//                          Instruments\ZStack-CC2530-2.5.1a\Projects\zstack\ /
//                          Samples\ParkWay\CC2530DB\..\..\..\..\..\Component /
//                          s\stack\nwk\" -I "C:\Texas                        /
//                          Instruments\ZStack-CC2530-2.5.1a\Projects\zstack\ /
//                          Samples\ParkWay\CC2530DB\..\..\..\..\..\Component /
//                          s\stack\sapi\" -I "C:\Texas                       /
//                          Instruments\ZStack-CC2530-2.5.1a\Projects\zstack\ /
//                          Samples\ParkWay\CC2530DB\..\..\..\..\..\Component /
//                          s\stack\sec\" -I "C:\Texas                        /
//                          Instruments\ZStack-CC2530-2.5.1a\Projects\zstack\ /
//                          Samples\ParkWay\CC2530DB\..\..\..\..\..\Component /
//                          s\stack\sys\" -I "C:\Texas                        /
//                          Instruments\ZStack-CC2530-2.5.1a\Projects\zstack\ /
//                          Samples\ParkWay\CC2530DB\..\..\..\..\..\Component /
//                          s\stack\zdo\" -I "C:\Texas                        /
//                          Instruments\ZStack-CC2530-2.5.1a\Projects\zstack\ /
//                          Samples\ParkWay\CC2530DB\..\..\..\..\..\Component /
//                          s\zmac\" -I "C:\Texas Instruments\ZStack-CC2530-2 /
//                          .5.1a\Projects\zstack\Samples\ParkWay\CC2530DB\.. /
//                          \..\..\..\..\Components\zmac\f8w\" -Ohz           /
//                          --require_prototypes                              /
//    List file          =  C:\Texas Instruments\ZStack-CC2530-2.5.1a\Project /
//                          s\zstack\Samples\ParkWay\CC2530DB\EndDeviceEB\Lis /
//                          t\PW_EndDevice.s51                                /
//                                                                            /
//                                                                            /
///////////////////////////////////////////////////////////////////////////////

        NAME PW_EndDevice

        RTMODEL "__SystemLibrary", "CLib"
        RTMODEL "__calling_convention", "xdata_reentrant"
        RTMODEL "__code_model", "banked"
        RTMODEL "__core", "plain"
        RTMODEL "__data_model", "large"
        RTMODEL "__dptr_size", "16"
        RTMODEL "__extended_stack", "disabled"
        RTMODEL "__location_for_constants", "data"
        RTMODEL "__number_of_dptrs", "1"
        RTMODEL "__rt_version", "1"

        RSEG DOVERLAY:DATA:NOROOT(0)
        RSEG IOVERLAY:IDATA:NOROOT(0)
        RSEG ISTACK:IDATA:NOROOT(0)
        RSEG PSTACK:XDATA:NOROOT(0)
        RSEG XSTACK:XDATA:NOROOT(0)

        EXTERN ?V0
        EXTERN ?V1
        EXTERN ?V2
        EXTERN ?V3
        EXTERN ?V4
        EXTERN ?V5
        EXTERN ?ALLOC_XSTACK8
        EXTERN ?BANKED_ENTER_XDATA
        EXTERN ?BANKED_LEAVE_XDATA
        EXTERN ?BDISPATCH
        EXTERN ?BRET
        EXTERN ?DEALLOC_XSTACK8
        EXTERN ?PUSH_XSTACK_I_ONE
        EXTERN ?PUSH_XSTACK_I_TWO
        EXTERN ?XSP
        EXTERN ?XSTACK_DISP0_8
        EXTERN ?XSTACK_DISP100_8
        EXTERN ?XSTACK_DISP101_8
        EXTERN __INIT_XDATA_Z

        PUBLIC ??ParkWay_Init?relay
        FUNCTION ??ParkWay_Init?relay,0203H
        PUBLIC ??ParkWay_ProcessEvent?relay
        FUNCTION ??ParkWay_ProcessEvent?relay,0203H
        FUNCTION ??ParkWay_SendTheMessage?relay,0203H
        PUBLIC ??SendUART?relay
        FUNCTION ??SendUART?relay,0203H
        FUNCTION ??UART_CallBack?relay,0203H
        PUBLIC ??uart_init?relay
        FUNCTION ??uart_init?relay,0203H
        PUBWEAK P0DIR
        PUBWEAK P0SEL
        PUBLIC ParkWay_ClusterList
        PUBLIC ParkWay_DstAddr
        PUBLIC ParkWay_Init
        FUNCTION ParkWay_Init,021203H
        ARGFRAME XSTACK, 0, STACK
        LOCFRAME XSTACK, 9, STACK
        PUBLIC ParkWay_NwkState
        PUBLIC ParkWay_ProcessEvent
        FUNCTION ParkWay_ProcessEvent,0a1203H
        ARGFRAME XSTACK, 0, STACK
        LOCFRAME XSTACK, 31, STACK
        FUNCTION ParkWay_SendTheMessage,0a1203H
        ARGFRAME XSTACK, 23, STACK
        ARGFRAME IOVERLAY, 0, STATIC
        ARGFRAME DOVERLAY, 0, STATIC
        LOCFRAME ISTACK, 1, STACK
        LOCFRAME XSTACK, 25, STACK
        PUBLIC ParkWay_SimpleDesc
        PUBLIC ParkWay_TaskID
        PUBLIC ParkWay_TransID
        PUBLIC ParkWay_epDesc
        PUBLIC SendUART
        FUNCTION SendUART,0a1203H
        ARGFRAME XSTACK, 10, STACK
        ARGFRAME IOVERLAY, 0, STATIC
        ARGFRAME DOVERLAY, 0, STATIC
        LOCFRAME XSTACK, 10, STACK
        FUNCTION UART_CallBack,021603H
        ARGFRAME XSTACK, 0, STACK
        LOCFRAME XSTACK, 10, STACK
        PUBWEAK _A_P0
        PUBLIC uart_init
        FUNCTION uart_init,021203H
        ARGFRAME XSTACK, 0, STACK
        LOCFRAME ISTACK, 2, STACK
        LOCFRAME XSTACK, 29, STACK
        
          CFI Names cfiNames0
          CFI StackFrame CFA_SP SP IDATA
          CFI StackFrame CFA_PSP16 PSP16 XDATA
          CFI StackFrame CFA_XSP16 XSP16 XDATA
          CFI StaticOverlayFrame CFA_IOVERLAY IOVERLAY
          CFI StaticOverlayFrame CFA_DOVERLAY DOVERLAY
          CFI Resource `PSW.CY`:1, `B.BR0`:1, `B.BR1`:1, `B.BR2`:1, `B.BR3`:1
          CFI Resource `B.BR4`:1, `B.BR5`:1, `B.BR6`:1, `B.BR7`:1, `VB.BR8`:1
          CFI Resource `VB.BR9`:1, `VB.BR10`:1, `VB.BR11`:1, `VB.BR12`:1
          CFI Resource `VB.BR13`:1, `VB.BR14`:1, `VB.BR15`:1, VB:8, B:8, A:8
          CFI Resource PSW:8, DPL0:8, DPH0:8, R0:8, R1:8, R2:8, R3:8, R4:8, R5:8
          CFI Resource R6:8, R7:8, V0:8, V1:8, V2:8, V3:8, V4:8, V5:8, V6:8, V7:8
          CFI Resource SP:8, PSPH:8, PSPL:8, PSP16:16, XSPH:8, XSPL:8, XSP16:16
          CFI VirtualResource ?RET:24
          CFI Resource ?BRET_EXT:8
          CFI VirtualResource ?RET_HIGH:8, ?RET_LOW:8
          CFI ResourceParts PSP16 PSPH, PSPL
          CFI ResourceParts XSP16 XSPH, XSPL
          CFI ResourceParts ?RET ?BRET_EXT, ?RET_HIGH, ?RET_LOW
          CFI EndNames cfiNames0
        
          CFI Common cfiCommon0 Using cfiNames0
          CFI CodeAlign 1
          CFI DataAlign -1
          CFI ReturnAddress ?RET CODE
          CFI CFA_DOVERLAY Used
          CFI CFA_IOVERLAY Used
          CFI CFA_SP SP+-3
          CFI CFA_PSP16 PSP16+0
          CFI CFA_XSP16 XSP16+0
          CFI `PSW.CY` SameValue
          CFI `B.BR0` SameValue
          CFI `B.BR1` SameValue
          CFI `B.BR2` SameValue
          CFI `B.BR3` SameValue
          CFI `B.BR4` SameValue
          CFI `B.BR5` SameValue
          CFI `B.BR6` SameValue
          CFI `B.BR7` SameValue
          CFI `VB.BR8` SameValue
          CFI `VB.BR9` SameValue
          CFI `VB.BR10` SameValue
          CFI `VB.BR11` SameValue
          CFI `VB.BR12` SameValue
          CFI `VB.BR13` SameValue
          CFI `VB.BR14` SameValue
          CFI `VB.BR15` SameValue
          CFI VB SameValue
          CFI B Undefined
          CFI A Undefined
          CFI PSW SameValue
          CFI DPL0 SameValue
          CFI DPH0 SameValue
          CFI R0 Undefined
          CFI R1 Undefined
          CFI R2 Undefined
          CFI R3 Undefined
          CFI R4 Undefined
          CFI R5 Undefined
          CFI R6 SameValue
          CFI R7 SameValue
          CFI V0 SameValue
          CFI V1 SameValue
          CFI V2 SameValue
          CFI V3 SameValue
          CFI V4 SameValue
          CFI V5 SameValue
          CFI V6 SameValue
          CFI V7 SameValue
          CFI PSPH Undefined
          CFI PSPL Undefined
          CFI XSPH Undefined
          CFI XSPL Undefined
          CFI ?RET Concat
          CFI ?BRET_EXT Frame(CFA_SP, 3)
          CFI ?RET_HIGH Frame(CFA_SP, 2)
          CFI ?RET_LOW Frame(CFA_SP, 1)
          CFI EndCommon cfiCommon0
        
AF_DataRequest      SYMBOL "AF_DataRequest"
??AF_DataRequest?relay SYMBOL "?relay", AF_DataRequest
HalLedSet           SYMBOL "HalLedSet"
??HalLedSet?relay   SYMBOL "?relay", HalLedSet
HalUARTOpen         SYMBOL "HalUARTOpen"
??HalUARTOpen?relay SYMBOL "?relay", HalUARTOpen
HalUARTRead         SYMBOL "HalUARTRead"
??HalUARTRead?relay SYMBOL "?relay", HalUARTRead
HalUARTWrite        SYMBOL "HalUARTWrite"
??HalUARTWrite?relay SYMBOL "?relay", HalUARTWrite
RegisterForKeys     SYMBOL "RegisterForKeys"
??RegisterForKeys?relay SYMBOL "?relay", RegisterForKeys
ZDO_ParseEPListRsp  SYMBOL "ZDO_ParseEPListRsp"
??ZDO_ParseEPListRsp?relay SYMBOL "?relay", ZDO_ParseEPListRsp
ZDO_RegisterForZDOMsg SYMBOL "ZDO_RegisterForZDOMsg"
??ZDO_RegisterForZDOMsg?relay SYMBOL "?relay", ZDO_RegisterForZDOMsg
ZDP_MatchDescReq    SYMBOL "ZDP_MatchDescReq"
??ZDP_MatchDescReq?relay SYMBOL "?relay", ZDP_MatchDescReq
afRegister          SYMBOL "afRegister"
??afRegister?relay  SYMBOL "?relay", afRegister
osal_mem_free       SYMBOL "osal_mem_free"
??osal_mem_free?relay SYMBOL "?relay", osal_mem_free
osal_msg_deallocate SYMBOL "osal_msg_deallocate"
??osal_msg_deallocate?relay SYMBOL "?relay", osal_msg_deallocate
osal_msg_receive    SYMBOL "osal_msg_receive"
??osal_msg_receive?relay SYMBOL "?relay", osal_msg_receive
osal_start_timerEx  SYMBOL "osal_start_timerEx"
??osal_start_timerEx?relay SYMBOL "?relay", osal_start_timerEx
osal_stop_timerEx   SYMBOL "osal_stop_timerEx"
??osal_stop_timerEx?relay SYMBOL "?relay", osal_stop_timerEx
osal_strlen         SYMBOL "osal_strlen"
??osal_strlen?relay SYMBOL "?relay", osal_strlen
ParkWay_Init        SYMBOL "ParkWay_Init"
??ParkWay_Init?relay SYMBOL "?relay", ParkWay_Init
ParkWay_ProcessEvent SYMBOL "ParkWay_ProcessEvent"
??ParkWay_ProcessEvent?relay SYMBOL "?relay", ParkWay_ProcessEvent
SendUART            SYMBOL "SendUART"
??SendUART?relay    SYMBOL "?relay", SendUART
uart_init           SYMBOL "uart_init"
??uart_init?relay   SYMBOL "?relay", uart_init

        EXTERN ??AF_DataRequest?relay
        FUNCTION ??AF_DataRequest?relay,00H
        EXTERN ??HalLedSet?relay
        FUNCTION ??HalLedSet?relay,00H
        EXTERN ??HalUARTOpen?relay
        FUNCTION ??HalUARTOpen?relay,00H
        EXTERN ??HalUARTRead?relay
        FUNCTION ??HalUARTRead?relay,00H
        EXTERN ??HalUARTWrite?relay
        FUNCTION ??HalUARTWrite?relay,00H
        EXTERN ??RegisterForKeys?relay
        FUNCTION ??RegisterForKeys?relay,00H
        EXTERN ??ZDO_ParseEPListRsp?relay
        FUNCTION ??ZDO_ParseEPListRsp?relay,00H
        EXTERN ??ZDO_RegisterForZDOMsg?relay
        FUNCTION ??ZDO_RegisterForZDOMsg?relay,00H
        EXTERN ??ZDP_MatchDescReq?relay
        FUNCTION ??ZDP_MatchDescReq?relay,00H
        EXTERN ??afRegister?relay
        FUNCTION ??afRegister?relay,00H
        EXTERN ??osal_mem_free?relay
        FUNCTION ??osal_mem_free?relay,00H
        EXTERN ??osal_msg_deallocate?relay
        FUNCTION ??osal_msg_deallocate?relay,00H
        EXTERN ??osal_msg_receive?relay
        FUNCTION ??osal_msg_receive?relay,00H
        EXTERN ??osal_start_timerEx?relay
        FUNCTION ??osal_start_timerEx?relay,00H
        EXTERN ??osal_stop_timerEx?relay
        FUNCTION ??osal_stop_timerEx?relay,00H
        EXTERN ??osal_strlen?relay
        FUNCTION ??osal_strlen?relay,00H
        EXTERN AF_DataRequest
        FUNCTION AF_DataRequest,0202H
        ARGFRAME ISTACK, 0, STACK
        ARGFRAME PSTACK, 0, STACK
        ARGFRAME XSTACK, 25, STACK
        ARGFRAME IOVERLAY, 0, STATIC
        ARGFRAME DOVERLAY, 0, STATIC
        EXTERN HalLedSet
        FUNCTION HalLedSet,0202H
        ARGFRAME ISTACK, 0, STACK
        ARGFRAME PSTACK, 0, STACK
        ARGFRAME XSTACK, 23, STACK
        ARGFRAME IOVERLAY, 0, STATIC
        ARGFRAME DOVERLAY, 0, STATIC
        EXTERN HalUARTOpen
        FUNCTION HalUARTOpen,0202H
        ARGFRAME ISTACK, 2, STACK
        ARGFRAME PSTACK, 0, STACK
        ARGFRAME XSTACK, 29, STACK
        ARGFRAME IOVERLAY, 0, STATIC
        ARGFRAME DOVERLAY, 0, STATIC
        EXTERN HalUARTRead
        FUNCTION HalUARTRead,0202H
        ARGFRAME ISTACK, 0, STACK
        ARGFRAME PSTACK, 0, STACK
        ARGFRAME XSTACK, 10, STACK
        ARGFRAME IOVERLAY, 0, STATIC
        ARGFRAME DOVERLAY, 0, STATIC
        EXTERN HalUARTWrite
        FUNCTION HalUARTWrite,0202H
        ARGFRAME ISTACK, 0, STACK
        ARGFRAME PSTACK, 0, STACK
        ARGFRAME XSTACK, 10, STACK
        ARGFRAME IOVERLAY, 0, STATIC
        ARGFRAME DOVERLAY, 0, STATIC
        EXTERN RegisterForKeys
        FUNCTION RegisterForKeys,0202H
        ARGFRAME ISTACK, 0, STACK
        ARGFRAME PSTACK, 0, STACK
        ARGFRAME XSTACK, 9, STACK
        ARGFRAME IOVERLAY, 0, STATIC
        ARGFRAME DOVERLAY, 0, STATIC
        EXTERN ZDO_ParseEPListRsp
        FUNCTION ZDO_ParseEPListRsp,0202H
        ARGFRAME ISTACK, 0, STACK
        ARGFRAME PSTACK, 0, STACK
        ARGFRAME XSTACK, 23, STACK
        ARGFRAME IOVERLAY, 0, STATIC
        ARGFRAME DOVERLAY, 0, STATIC
        EXTERN ZDO_RegisterForZDOMsg
        FUNCTION ZDO_RegisterForZDOMsg,0202H
        ARGFRAME ISTACK, 0, STACK
        ARGFRAME PSTACK, 0, STACK
        ARGFRAME XSTACK, 9, STACK
        ARGFRAME IOVERLAY, 0, STATIC
        ARGFRAME DOVERLAY, 0, STATIC
        EXTERN ZDP_MatchDescReq
        FUNCTION ZDP_MatchDescReq,0202H
        ARGFRAME ISTACK, 0, STACK
        ARGFRAME PSTACK, 0, STACK
        ARGFRAME XSTACK, 31, STACK
        ARGFRAME IOVERLAY, 0, STATIC
        ARGFRAME DOVERLAY, 0, STATIC
        EXTERN afRegister
        FUNCTION afRegister,0202H
        ARGFRAME ISTACK, 0, STACK
        ARGFRAME PSTACK, 0, STACK
        ARGFRAME XSTACK, 9, STACK
        ARGFRAME IOVERLAY, 0, STATIC
        ARGFRAME DOVERLAY, 0, STATIC
        EXTERN osal_mem_free
        FUNCTION osal_mem_free,0202H
        ARGFRAME ISTACK, 0, STACK
        ARGFRAME PSTACK, 0, STACK
        ARGFRAME XSTACK, 23, STACK
        ARGFRAME IOVERLAY, 0, STATIC
        ARGFRAME DOVERLAY, 0, STATIC
        EXTERN osal_msg_deallocate
        FUNCTION osal_msg_deallocate,0202H
        ARGFRAME ISTACK, 0, STACK
        ARGFRAME PSTACK, 0, STACK
        ARGFRAME XSTACK, 23, STACK
        ARGFRAME IOVERLAY, 0, STATIC
        ARGFRAME DOVERLAY, 0, STATIC
        EXTERN osal_msg_receive
        FUNCTION osal_msg_receive,0202H
        ARGFRAME ISTACK, 0, STACK
        ARGFRAME PSTACK, 0, STACK
        ARGFRAME XSTACK, 23, STACK
        ARGFRAME IOVERLAY, 0, STATIC
        ARGFRAME DOVERLAY, 0, STATIC
        EXTERN osal_start_timerEx
        FUNCTION osal_start_timerEx,0202H
        ARGFRAME ISTACK, 0, STACK
        ARGFRAME PSTACK, 0, STACK
        ARGFRAME XSTACK, 23, STACK
        ARGFRAME IOVERLAY, 0, STATIC
        ARGFRAME DOVERLAY, 0, STATIC
        EXTERN osal_stop_timerEx
        FUNCTION osal_stop_timerEx,0202H
        ARGFRAME ISTACK, 0, STACK
        ARGFRAME PSTACK, 0, STACK
        ARGFRAME XSTACK, 23, STACK
        ARGFRAME IOVERLAY, 0, STATIC
        ARGFRAME DOVERLAY, 0, STATIC
        EXTERN osal_strlen
        FUNCTION osal_strlen,0202H
        ARGFRAME ISTACK, 0, STACK
        ARGFRAME PSTACK, 0, STACK
        ARGFRAME XSTACK, 21, STACK
        ARGFRAME IOVERLAY, 0, STATIC
        ARGFRAME DOVERLAY, 0, STATIC

// C:\Texas Instruments\ZStack-CC2530-2.5.1a\Projects\zstack\Samples\ParkWay\Source\PW_EndDevice.c
//    1 /*****************************************************************************
//    2   Project: Park Way (ZigBee)
//    3   End Device Firmware
//    4 
//    5   Ver.: 1.0
//    6   Date: 27/06/14
//    7   Developer:  Ânderson Ignácio da Silva
//    8   Obs.:
//    9     -LCD_SUPPORTED=DEBUG or LCD_SUPPORTED must be disable in the CC2530 China 
//   10     modules to work
//   11     
//   12     -BEFORE PROGRAMMING is important to ERASE the FLASH memory with the FLASH
//   13     programmer because the NV_RESTORE option is enabled  to restore the  End 
//   14     Devices after the coordinator power down
//   15 
//   16   Pre-processor directives:
//   17     NWK_AUTO_POLL
//   18     ZTOOL_P1
//   19     MT_TASK
//   20     MT_SYS_FUNC
//   21     MT_ZDO_FUNC
//   22     xLCD_SUPPORTED=DEBUG
//   23     POWER_SAVING
//   24 
//   25 *****************************************************************************/
//   26 
//   27 /*********************************************************************
//   28  * INCLUDES
//   29  */
//   30 #include "OSAL.h"
//   31 #include "AF.h"
//   32 #include "ZDApp.h"
//   33 #include "ZDObject.h"
//   34 #include "ZDProfile.h"
//   35 #include "ParkWay.h"
//   36 #include "DebugTrace.h"
//   37 #include "OnBoard.h"

        ASEGN SFR_AN:DATA:NOROOT,080H
// union <unnamed> volatile __sfr _A_P0
_A_P0:
        DATA8
        DS 1

        ASEGN SFR_AN:DATA:NOROOT,0f3H
// unsigned char volatile __sfr P0SEL
P0SEL:
        DATA8
        DS 1

        ASEGN SFR_AN:DATA:NOROOT,0fdH
// unsigned char volatile __sfr P0DIR
P0DIR:
        DATA8
        DS 1
//   38 /* HAL */
//   39 #include "hal_lcd.h"
//   40 #include "hal_led.h"
//   41 #include "hal_key.h"
//   42 #include "hal_uart.h"
//   43 
//   44 /*********************************************************************
//   45  * MACROS
//   46  */
//   47 
//   48 /*********************************************************************
//   49  * CONSTANTS
//   50  */
//   51 #define   DEVICE_PW_1                  '0'     //(first char)Tag of the device 
//   52 #define   DEVICE_PW_2                  '1'     //(second char)Tag of the device
//   53 #define   ParkWay_SEND_MSG_TIMEOUT    1500     //Time to send data to the coordinator(poll ultrasound)
//   54 #define   TIME_TO_CONNECT_COORD       1000     //Time to connect (auto bind) the device to the coord.
//   55 /*********************************************************************
//   56  * TYPEDEFS
//   57  */
//   58 
//   59 /*********************************************************************
//   60  * GLOBAL VARIABLES
//   61  */
//   62 // This list should be filled with Application specific Cluster IDs.

        RSEG XDATA_ROM_C:CONST:REORDER:NOROOT(0)
        DATA16
//   63 const cId_t ParkWay_ClusterList[ParkWay_MAX_CLUSTERS] =
ParkWay_ClusterList:
        DW 1
//   64 {
//   65   ParkWay_CLUSTERID
//   66 };
//   67 

        RSEG XDATA_ROM_C:CONST:REORDER:NOROOT(0)
        DATA8
//   68 const SimpleDescriptionFormat_t ParkWay_SimpleDesc =
ParkWay_SimpleDesc:
        DB 10
        DATA16
        DW 3844
        DW 1
        DATA8
        DB 0
        DB 1
        DATA16
        DW ParkWay_ClusterList
        DATA8
        DB 1
        DATA16
        DW ParkWay_ClusterList
//   69 {
//   70   ParkWay_ENDPOINT,              //  int Endpoint;
//   71   ParkWay_PROFID,                //  uint16 AppProfId[2];
//   72   ParkWay_DEVICEID,              //  uint16 AppDeviceId[2];
//   73   ParkWay_DEVICE_VERSION,        //  int   AppDevVer:4;
//   74   ParkWay_FLAGS,                 //  int   AppFlags:4;
//   75   ParkWay_MAX_CLUSTERS,          //  byte  AppNumInClusters;
//   76   (cId_t *)ParkWay_ClusterList,  //  byte *pAppInClusterList;
//   77   ParkWay_MAX_CLUSTERS,          //  byte  AppNumInClusters;
//   78   (cId_t *)ParkWay_ClusterList   //  byte *pAppInClusterList;
//   79 };
//   80 
//   81 // This is the Endpoint/Interface description.  It is defined here, but
//   82 // filled-in in ParkWay_Init().  Another way to go would be to fill
//   83 // in the structure here and make it a "const" (in code space).  The
//   84 // way it's defined in this sample app it is define in RAM.

        RSEG XDATA_Z:XDATA:NOROOT(0)
        DATA8
//   85 endPointDesc_t ParkWay_epDesc;
ParkWay_epDesc:
        DS 6
        REQUIRE __INIT_XDATA_Z
//   86 
//   87 /*********************************************************************
//   88  * EXTERNAL VARIABLES
//   89  */
//   90 
//   91 /*********************************************************************
//   92  * EXTERNAL FUNCTIONS
//   93  */
//   94 
//   95 /*********************************************************************
//   96  * LOCAL VARIABLES
//   97  */

        RSEG XDATA_Z:XDATA:NOROOT(0)
        DATA8
//   98 byte ParkWay_TaskID;   // Task ID for internal task/event processing
ParkWay_TaskID:
        DS 1
        REQUIRE __INIT_XDATA_Z
//   99                           // This variable will be received when
//  100                           // ParkWay_Init() is called.

        RSEG XDATA_Z:XDATA:NOROOT(0)
        DATA8
//  101 devStates_t ParkWay_NwkState;
ParkWay_NwkState:
        DS 1
        REQUIRE __INIT_XDATA_Z
//  102 
//  103 

        RSEG XDATA_Z:XDATA:NOROOT(0)
        DATA8
//  104 byte ParkWay_TransID;  // This is the unique message ID (counter)
ParkWay_TransID:
        DS 1
        REQUIRE __INIT_XDATA_Z
//  105 

        RSEG XDATA_Z:XDATA:NOROOT(0)
        DATA8
//  106 afAddrType_t ParkWay_DstAddr;
ParkWay_DstAddr:
        DS 12
        REQUIRE __INIT_XDATA_Z
//  107 
//  108 /*********************************************************************
//  109  * LOCAL FUNCTIONS
//  110  */
//  111 void SendUART(uint8 *data,uint8 len);
//  112 void uart_init(void);
//  113 static void ParkWay_ProcessZDOMsgs( zdoIncomingMsg_t *inMsg );
//  114 static void ParkWay_HandleKeys( byte shift, byte keys );
//  115 static void ParkWay_MessageMSGCB( afIncomingMSGPacket_t *pckt );
//  116 static void ParkWay_SendTheMessage( void );
//  117 
//  118 /*********************************************************************
//  119  * NETWORK LAYER CALLBACKS
//  120  */
//  121 
//  122 /*********************************************************************
//  123  * PUBLIC FUNCTIONS
//  124  */
//  125 
//  126 //Initialization function for the Park Way task. This is called during initialization and should contain any application specific initialization (ie. hardware initialization/setup, table initialization, power up notificaiton ... )

        RSEG BANKED_CODE:CODE:NOROOT(0)
//  127 void ParkWay_Init( uint8 task_id )
ParkWay_Init:
          CFI Block cfiBlock0 Using cfiCommon0
          CFI Function ParkWay_Init
        CODE
//  128 {
        FUNCALL ParkWay_Init, afRegister
        LOCFRAME ISTACK, 0, STACK
        LOCFRAME PSTACK, 0, STACK
        LOCFRAME XSTACK, 9, STACK
        LOCFRAME IOVERLAY, 0, STATIC
        LOCFRAME DOVERLAY, 0, STATIC
        ARGFRAME ISTACK, 0, STACK
        ARGFRAME PSTACK, 0, STACK
        ARGFRAME XSTACK, 9, STACK
        ARGFRAME IOVERLAY, 0, STATIC
        ARGFRAME DOVERLAY, 0, STATIC
        FUNCALL ParkWay_Init, RegisterForKeys
        LOCFRAME ISTACK, 0, STACK
        LOCFRAME PSTACK, 0, STACK
        LOCFRAME XSTACK, 9, STACK
        LOCFRAME IOVERLAY, 0, STATIC
        LOCFRAME DOVERLAY, 0, STATIC
        ARGFRAME ISTACK, 0, STACK
        ARGFRAME PSTACK, 0, STACK
        ARGFRAME XSTACK, 9, STACK
        ARGFRAME IOVERLAY, 0, STATIC
        ARGFRAME DOVERLAY, 0, STATIC
        FUNCALL ParkWay_Init, ZDO_RegisterForZDOMsg
        LOCFRAME ISTACK, 0, STACK
        LOCFRAME PSTACK, 0, STACK
        LOCFRAME XSTACK, 9, STACK
        LOCFRAME IOVERLAY, 0, STATIC
        LOCFRAME DOVERLAY, 0, STATIC
        ARGFRAME ISTACK, 0, STACK
        ARGFRAME PSTACK, 0, STACK
        ARGFRAME XSTACK, 9, STACK
        ARGFRAME IOVERLAY, 0, STATIC
        ARGFRAME DOVERLAY, 0, STATIC
        FUNCALL ParkWay_Init, ZDO_RegisterForZDOMsg
        LOCFRAME ISTACK, 0, STACK
        LOCFRAME PSTACK, 0, STACK
        LOCFRAME XSTACK, 9, STACK
        LOCFRAME IOVERLAY, 0, STATIC
        LOCFRAME DOVERLAY, 0, STATIC
        ARGFRAME ISTACK, 0, STACK
        ARGFRAME PSTACK, 0, STACK
        ARGFRAME XSTACK, 9, STACK
        ARGFRAME IOVERLAY, 0, STATIC
        ARGFRAME DOVERLAY, 0, STATIC
        FUNCALL ParkWay_Init, osal_start_timerEx
        LOCFRAME ISTACK, 0, STACK
        LOCFRAME PSTACK, 0, STACK
        LOCFRAME XSTACK, 9, STACK
        LOCFRAME IOVERLAY, 0, STATIC
        LOCFRAME DOVERLAY, 0, STATIC
        ARGFRAME ISTACK, 0, STACK
        ARGFRAME PSTACK, 0, STACK
        ARGFRAME XSTACK, 9, STACK
        ARGFRAME IOVERLAY, 0, STATIC
        ARGFRAME DOVERLAY, 0, STATIC
        MOV     A,#-0x9
        LCALL   ?BANKED_ENTER_XDATA
          CFI DPH0 load(1, XDATA, add(CFA_XSP16, literal(-1)))
          CFI DPL0 load(1, XDATA, add(CFA_XSP16, literal(-2)))
          CFI ?BRET_EXT load(1, XDATA, add(CFA_XSP16, literal(-3)))
          CFI ?RET_HIGH load(1, XDATA, add(CFA_XSP16, literal(-4)))
          CFI ?RET_LOW load(1, XDATA, add(CFA_XSP16, literal(-5)))
          CFI R7 load(1, XDATA, add(CFA_XSP16, literal(-6)))
          CFI V0 load(1, XDATA, add(CFA_XSP16, literal(-7)))
          CFI VB load(1, XDATA, add(CFA_XSP16, literal(-8)))
          CFI R6 load(1, XDATA, add(CFA_XSP16, literal(-9)))
          CFI CFA_SP SP+0
          CFI CFA_XSP16 add(XSP16, 9)
        ; Saved register size: 9
        ; Auto size: 0
        MOV     A,R1
//  129   ParkWay_TaskID = task_id;
        MOV     DPTR,#ParkWay_TaskID
        MOVX    @DPTR,A
//  130   ParkWay_NwkState = DEV_INIT;
        MOV     DPTR,#ParkWay_NwkState
        MOV     A,#0x1
        MOVX    @DPTR,A
//  131   ParkWay_TransID = 0;
        MOV     DPTR,#ParkWay_TransID
        CLR     A
        MOVX    @DPTR,A
//  132 
//  133   // Device hardware initialization can be added here or in main() (Zmain.c).
//  134   // If the hardware is application specific - add it here.
//  135   // If the hardware is other parts of the device add it in main().
//  136 
//  137   ParkWay_DstAddr.addrMode = (afAddrMode_t)AddrNotPresent;
        MOV     DPTR,#ParkWay_DstAddr + 8
        MOVX    @DPTR,A
//  138   ParkWay_DstAddr.endPoint = 0;
        INC     DPTR
        MOVX    @DPTR,A
//  139   ParkWay_DstAddr.addr.shortAddr = 0;
        MOV     DPTR,#ParkWay_DstAddr
        MOVX    @DPTR,A
        INC     DPTR
        MOVX    @DPTR,A
//  140 
//  141   // Fill out the endpoint description.
//  142   ParkWay_epDesc.endPoint = ParkWay_ENDPOINT;
        MOV     DPTR,#ParkWay_epDesc
        MOV     A,#0xa
        MOVX    @DPTR,A
//  143   ParkWay_epDesc.task_id = &ParkWay_TaskID;
        INC     DPTR
        MOV     A,#ParkWay_TaskID & 0xff
        MOVX    @DPTR,A
        INC     DPTR
        MOV     A,#(ParkWay_TaskID >> 8) & 0xff
        MOVX    @DPTR,A
//  144   ParkWay_epDesc.simpleDesc
//  145             = (SimpleDescriptionFormat_t *)&ParkWay_SimpleDesc;
        INC     DPTR
        MOV     A,#ParkWay_SimpleDesc & 0xff
        MOVX    @DPTR,A
        INC     DPTR
        MOV     A,#(ParkWay_SimpleDesc >> 8) & 0xff
        MOVX    @DPTR,A
//  146   ParkWay_epDesc.latencyReq = noLatencyReqs;
        INC     DPTR
        CLR     A
        MOVX    @DPTR,A
//  147 
//  148   // Register the endpoint description with the AF
//  149   afRegister( &ParkWay_epDesc );
        ; Setup parameters for call to function afRegister
        MOV     R2,#ParkWay_epDesc & 0xff
        MOV     R3,#(ParkWay_epDesc >> 8) & 0xff
        LCALL   ??afRegister?relay   ; Banked call to: afRegister
//  150 
//  151   // Register for all key events - This app will handle all key events
//  152   RegisterForKeys( ParkWay_TaskID );
        ; Setup parameters for call to function RegisterForKeys
        MOV     DPTR,#ParkWay_TaskID
        MOVX    A,@DPTR
        MOV     R1,A
        LCALL   ??RegisterForKeys?relay; Banked call to: RegisterForKeys
//  153 
//  154   // Update the display
//  155 #if defined ( LCD_SUPPORTED )
//  156   HalLcdWriteString( "ParkWay-Peer", HAL_LCD_LINE_1 );
//  157 #endif
//  158 
//  159   ZDO_RegisterForZDOMsg( ParkWay_TaskID, End_Device_Bind_rsp );
        ; Setup parameters for call to function ZDO_RegisterForZDOMsg
        MOV     R2,#0x20
        MOV     R3,#-0x80
        MOV     DPTR,#ParkWay_TaskID
        MOVX    A,@DPTR
        MOV     R1,A
        LCALL   ??ZDO_RegisterForZDOMsg?relay; Banked call to: ZDO_RegisterForZDOMsg
//  160   ZDO_RegisterForZDOMsg( ParkWay_TaskID, Match_Desc_rsp );
        ; Setup parameters for call to function ZDO_RegisterForZDOMsg
        MOV     R2,#0x6
        MOV     R3,#-0x80
        MOV     DPTR,#ParkWay_TaskID
        MOVX    A,@DPTR
        MOV     R1,A
        LCALL   ??ZDO_RegisterForZDOMsg?relay; Banked call to: ZDO_RegisterForZDOMsg
//  161 
//  162   osal_start_timerEx( ParkWay_TaskID,
//  163                       POLLING_OF_DEV_EVT,
//  164                       TIME_TO_CONNECT_COORD);
        ; Setup parameters for call to function osal_start_timerEx
        MOV     R4,#-0x18
        MOV     R5,#0x3
        MOV     R2,#0x2
        MOV     R3,#0x0
        MOV     DPTR,#ParkWay_TaskID
        MOVX    A,@DPTR
        MOV     R1,A
        LCALL   ??osal_start_timerEx?relay; Banked call to: osal_start_timerEx
          CFI EndBlock cfiBlock0
//  165 }
        REQUIRE ?Subroutine0
        ; // Fall through to label ?Subroutine0

        RSEG BANKED_CODE:CODE:NOROOT(0)
?Subroutine0:
          CFI Block cfiBlock1 Using cfiCommon0
          CFI NoFunction
          CFI CFA_SP SP+0
          CFI CFA_XSP16 add(XSP16, 9)
          CFI VB load(1, XDATA, add(CFA_XSP16, literal(-8)))
          CFI DPL0 load(1, XDATA, add(CFA_XSP16, literal(-2)))
          CFI DPH0 load(1, XDATA, add(CFA_XSP16, literal(-1)))
          CFI R6 load(1, XDATA, add(CFA_XSP16, literal(-9)))
          CFI R7 load(1, XDATA, add(CFA_XSP16, literal(-6)))
          CFI V0 load(1, XDATA, add(CFA_XSP16, literal(-7)))
          CFI ?BRET_EXT load(1, XDATA, add(CFA_XSP16, literal(-3)))
          CFI ?RET_HIGH load(1, XDATA, add(CFA_XSP16, literal(-4)))
          CFI ?RET_LOW load(1, XDATA, add(CFA_XSP16, literal(-5)))
        MOV     R7,#0x1
        LJMP    ?BANKED_LEAVE_XDATA
          CFI EndBlock cfiBlock1
//  166 
//  167 //Main function to proccess the timers and events 

        RSEG BANKED_CODE:CODE:NOROOT(0)
//  168 uint16 ParkWay_ProcessEvent( uint8 task_id, uint16 events )
ParkWay_ProcessEvent:
          CFI Block cfiBlock2 Using cfiCommon0
          CFI Function ParkWay_ProcessEvent
        CODE
//  169 {
        FUNCALL ParkWay_ProcessEvent, osal_msg_receive
        LOCFRAME ISTACK, 0, STACK
        LOCFRAME PSTACK, 0, STACK
        LOCFRAME XSTACK, 23, STACK
        LOCFRAME IOVERLAY, 0, STATIC
        LOCFRAME DOVERLAY, 0, STATIC
        ARGFRAME ISTACK, 0, STACK
        ARGFRAME PSTACK, 0, STACK
        ARGFRAME XSTACK, 23, STACK
        ARGFRAME IOVERLAY, 0, STATIC
        ARGFRAME DOVERLAY, 0, STATIC
        FUNCALL ParkWay_ProcessEvent, osal_start_timerEx
        LOCFRAME ISTACK, 0, STACK
        LOCFRAME PSTACK, 0, STACK
        LOCFRAME XSTACK, 23, STACK
        LOCFRAME IOVERLAY, 0, STATIC
        LOCFRAME DOVERLAY, 0, STATIC
        ARGFRAME ISTACK, 0, STACK
        ARGFRAME PSTACK, 0, STACK
        ARGFRAME XSTACK, 23, STACK
        ARGFRAME IOVERLAY, 0, STATIC
        ARGFRAME DOVERLAY, 0, STATIC
        FUNCALL ParkWay_ProcessEvent, osal_msg_deallocate
        LOCFRAME ISTACK, 0, STACK
        LOCFRAME PSTACK, 0, STACK
        LOCFRAME XSTACK, 23, STACK
        LOCFRAME IOVERLAY, 0, STATIC
        LOCFRAME DOVERLAY, 0, STATIC
        ARGFRAME ISTACK, 0, STACK
        ARGFRAME PSTACK, 0, STACK
        ARGFRAME XSTACK, 23, STACK
        ARGFRAME IOVERLAY, 0, STATIC
        ARGFRAME DOVERLAY, 0, STATIC
        FUNCALL ParkWay_ProcessEvent, osal_msg_receive
        LOCFRAME ISTACK, 0, STACK
        LOCFRAME PSTACK, 0, STACK
        LOCFRAME XSTACK, 23, STACK
        LOCFRAME IOVERLAY, 0, STATIC
        LOCFRAME DOVERLAY, 0, STATIC
        ARGFRAME ISTACK, 0, STACK
        ARGFRAME PSTACK, 0, STACK
        ARGFRAME XSTACK, 23, STACK
        ARGFRAME IOVERLAY, 0, STATIC
        ARGFRAME DOVERLAY, 0, STATIC
        FUNCALL ParkWay_ProcessEvent, ZDO_ParseEPListRsp
        LOCFRAME ISTACK, 0, STACK
        LOCFRAME PSTACK, 0, STACK
        LOCFRAME XSTACK, 23, STACK
        LOCFRAME IOVERLAY, 0, STATIC
        LOCFRAME DOVERLAY, 0, STATIC
        ARGFRAME ISTACK, 0, STACK
        ARGFRAME PSTACK, 0, STACK
        ARGFRAME XSTACK, 23, STACK
        ARGFRAME IOVERLAY, 0, STATIC
        ARGFRAME DOVERLAY, 0, STATIC
        FUNCALL ParkWay_ProcessEvent, osal_stop_timerEx
        LOCFRAME ISTACK, 0, STACK
        LOCFRAME PSTACK, 0, STACK
        LOCFRAME XSTACK, 23, STACK
        LOCFRAME IOVERLAY, 0, STATIC
        LOCFRAME DOVERLAY, 0, STATIC
        ARGFRAME ISTACK, 0, STACK
        ARGFRAME PSTACK, 0, STACK
        ARGFRAME XSTACK, 23, STACK
        ARGFRAME IOVERLAY, 0, STATIC
        ARGFRAME DOVERLAY, 0, STATIC
        FUNCALL ParkWay_ProcessEvent, osal_mem_free
        LOCFRAME ISTACK, 0, STACK
        LOCFRAME PSTACK, 0, STACK
        LOCFRAME XSTACK, 23, STACK
        LOCFRAME IOVERLAY, 0, STATIC
        LOCFRAME DOVERLAY, 0, STATIC
        ARGFRAME ISTACK, 0, STACK
        ARGFRAME PSTACK, 0, STACK
        ARGFRAME XSTACK, 23, STACK
        ARGFRAME IOVERLAY, 0, STATIC
        ARGFRAME DOVERLAY, 0, STATIC
        FUNCALL ParkWay_ProcessEvent, ParkWay_SendTheMessage
        LOCFRAME ISTACK, 0, STACK
        LOCFRAME PSTACK, 0, STACK
        LOCFRAME XSTACK, 23, STACK
        LOCFRAME IOVERLAY, 0, STATIC
        LOCFRAME DOVERLAY, 0, STATIC
        ARGFRAME ISTACK, 0, STACK
        ARGFRAME PSTACK, 0, STACK
        ARGFRAME XSTACK, 23, STACK
        ARGFRAME IOVERLAY, 0, STATIC
        ARGFRAME DOVERLAY, 0, STATIC
        FUNCALL ParkWay_ProcessEvent, osal_start_timerEx
        LOCFRAME ISTACK, 0, STACK
        LOCFRAME PSTACK, 0, STACK
        LOCFRAME XSTACK, 23, STACK
        LOCFRAME IOVERLAY, 0, STATIC
        LOCFRAME DOVERLAY, 0, STATIC
        ARGFRAME ISTACK, 0, STACK
        ARGFRAME PSTACK, 0, STACK
        ARGFRAME XSTACK, 23, STACK
        ARGFRAME IOVERLAY, 0, STATIC
        ARGFRAME DOVERLAY, 0, STATIC
        FUNCALL ParkWay_ProcessEvent, ZDP_MatchDescReq
        LOCFRAME ISTACK, 0, STACK
        LOCFRAME PSTACK, 0, STACK
        LOCFRAME XSTACK, 31, STACK
        LOCFRAME IOVERLAY, 0, STATIC
        LOCFRAME DOVERLAY, 0, STATIC
        ARGFRAME ISTACK, 0, STACK
        ARGFRAME PSTACK, 0, STACK
        ARGFRAME XSTACK, 31, STACK
        ARGFRAME IOVERLAY, 0, STATIC
        ARGFRAME DOVERLAY, 0, STATIC
        FUNCALL ParkWay_ProcessEvent, osal_start_timerEx
        LOCFRAME ISTACK, 0, STACK
        LOCFRAME PSTACK, 0, STACK
        LOCFRAME XSTACK, 23, STACK
        LOCFRAME IOVERLAY, 0, STATIC
        LOCFRAME DOVERLAY, 0, STATIC
        ARGFRAME ISTACK, 0, STACK
        ARGFRAME PSTACK, 0, STACK
        ARGFRAME XSTACK, 23, STACK
        ARGFRAME IOVERLAY, 0, STATIC
        ARGFRAME DOVERLAY, 0, STATIC
        FUNCALL ParkWay_ProcessEvent, HalLedSet
        LOCFRAME ISTACK, 0, STACK
        LOCFRAME PSTACK, 0, STACK
        LOCFRAME XSTACK, 23, STACK
        LOCFRAME IOVERLAY, 0, STATIC
        LOCFRAME DOVERLAY, 0, STATIC
        ARGFRAME ISTACK, 0, STACK
        ARGFRAME PSTACK, 0, STACK
        ARGFRAME XSTACK, 23, STACK
        ARGFRAME IOVERLAY, 0, STATIC
        ARGFRAME DOVERLAY, 0, STATIC
        REQUIRE ?V0
        REQUIRE ?V1
        REQUIRE ?V2
        REQUIRE ?V3
        REQUIRE ?V4
        REQUIRE ?V5
        MOV     A,#-0xe
        LCALL   ?BANKED_ENTER_XDATA
          CFI DPH0 load(1, XDATA, add(CFA_XSP16, literal(-1)))
          CFI DPL0 load(1, XDATA, add(CFA_XSP16, literal(-2)))
          CFI ?BRET_EXT load(1, XDATA, add(CFA_XSP16, literal(-3)))
          CFI ?RET_HIGH load(1, XDATA, add(CFA_XSP16, literal(-4)))
          CFI ?RET_LOW load(1, XDATA, add(CFA_XSP16, literal(-5)))
          CFI R7 load(1, XDATA, add(CFA_XSP16, literal(-6)))
          CFI V5 load(1, XDATA, add(CFA_XSP16, literal(-7)))
          CFI V4 load(1, XDATA, add(CFA_XSP16, literal(-8)))
          CFI V3 load(1, XDATA, add(CFA_XSP16, literal(-9)))
          CFI V2 load(1, XDATA, add(CFA_XSP16, literal(-10)))
          CFI V1 load(1, XDATA, add(CFA_XSP16, literal(-11)))
          CFI V0 load(1, XDATA, add(CFA_XSP16, literal(-12)))
          CFI VB load(1, XDATA, add(CFA_XSP16, literal(-13)))
          CFI R6 load(1, XDATA, add(CFA_XSP16, literal(-14)))
          CFI CFA_SP SP+0
          CFI CFA_XSP16 add(XSP16, 14)
        ; Saved register size: 14
        ; Auto size: 9
        MOV     A,#-0x9
        LCALL   ?ALLOC_XSTACK8
          CFI CFA_XSP16 add(XSP16, 23)
        MOV     A,R2
        MOV     R6,A
        MOV     A,R3
        MOV     R7,A
//  170   afIncomingMSGPacket_t *MSGpkt;
//  171   afDataConfirm_t *afDataConfirm;
//  172   zAddrType_t dstAddr;
//  173 
//  174   // Data Confirmation message fields
//  175   byte sentEP;
//  176   ZStatus_t sentStatus;
//  177   byte sentTransID;       // This should match the value sent
//  178   (void)task_id;  // Intentionally unreferenced parameter
//  179 
//  180   if ( events & SYS_EVENT_MSG )
        ANL     A,#0x80
        JNZ     $+5
        LJMP    ??ParkWay_ProcessEvent_0 & 0xFFFF
//  181   {
//  182     MSGpkt = (afIncomingMSGPacket_t *)osal_msg_receive( ParkWay_TaskID );
        ; Setup parameters for call to function osal_msg_receive
        SJMP    ??ParkWay_ProcessEvent_1
//  183     while ( MSGpkt )
//  184     {
//  185       switch ( MSGpkt->hdr.event )
//  186       {
//  187         case ZDO_CB_MSG: //Event trigger by ZigBee Device Object like connect, bind...etc
//  188           ParkWay_ProcessZDOMsgs( (zdoIncomingMsg_t *)MSGpkt );
//  189           break;
//  190 
//  191         case AF_DATA_CONFIRM_CMD: //Event trigger by a confirmation of sent message
//  192           // This message is received as a confirmation of a data packet sent.
//  193           // The status is of ZStatus_t type [defined in ZComDef.h]
//  194           // The message fields are defined in AF.h
//  195           // afDataConfirm = (afDataConfirm_t *)MSGpkt;
//  196           // sentEP = afDataConfirm->endpoint;
//  197           // sentStatus = afDataConfirm->hdr.status;
//  198           // sentTransID = afDataConfirm->transID;
//  199           // (void)sentEP;
//  200           // (void)sentTransID;
//  201 
//  202           // // Action taken when confirmation is received.
//  203           // if ( sentStatus != ZSuccess )
//  204           // {
//  205           //   // The data wasn't delivered -- Do something
//  206           // }
//  207           break;
//  208 
//  209         case AF_INCOMING_MSG_CMD: //Event trigger by a receive message
//  210           ParkWay_MessageMSGCB( MSGpkt );
//  211           break;
//  212 
//  213         case ZDO_STATE_CHANGE: //Event trigger by a connection to the coordinator or Router
//  214           ParkWay_NwkState = (devStates_t)(MSGpkt->hdr.status);
??ParkWay_ProcessEvent_2:
        INC     DPTR
        MOVX    A,@DPTR
        MOV     DPTR,#ParkWay_NwkState
        MOVX    @DPTR,A
//  215           if ( (ParkWay_NwkState == DEV_ZB_COORD)
//  216               || (ParkWay_NwkState == DEV_ROUTER)
//  217               || (ParkWay_NwkState == DEV_END_DEVICE) )
        XRL     A,#0x9
        JZ      ??ParkWay_ProcessEvent_3
        MOVX    A,@DPTR
        XRL     A,#0x7
        JZ      ??ParkWay_ProcessEvent_3
        MOVX    A,@DPTR
        XRL     A,#0x6
        JNZ     ??ParkWay_ProcessEvent_4
//  218           {
//  219             // Start sending "the" message in a regular interval.
//  220             osal_start_timerEx( ParkWay_TaskID,
//  221                                 ParkWay_SEND_MSG_EVT,
//  222                                 ParkWay_SEND_MSG_TIMEOUT );
??ParkWay_ProcessEvent_3:
        ; Setup parameters for call to function osal_start_timerEx
        MOV     R4,#-0x24
        MOV     R5,#0x5
        MOV     R2,#0x1
        MOV     R3,#0x0
        MOV     DPTR,#ParkWay_TaskID
        MOVX    A,@DPTR
        MOV     R1,A
        LCALL   ??osal_start_timerEx?relay; Banked call to: osal_start_timerEx
//  223           }
//  224           break;
//  225 
//  226         default:
//  227           break;
//  228       }
//  229 
//  230       // Release the memory
//  231       osal_msg_deallocate( (uint8 *)MSGpkt );
??ParkWay_ProcessEvent_4:
        ; Setup parameters for call to function osal_msg_deallocate
        MOV     R2,?V2
        MOV     R3,?V3
        LCALL   ??osal_msg_deallocate?relay; Banked call to: osal_msg_deallocate
//  232 
//  233       // Next
//  234       MSGpkt = (afIncomingMSGPacket_t *)osal_msg_receive( ParkWay_TaskID );
        ; Setup parameters for call to function osal_msg_receive
??ParkWay_ProcessEvent_1:
        MOV     DPTR,#ParkWay_TaskID
        MOVX    A,@DPTR
        MOV     R1,A
        LCALL   ??osal_msg_receive?relay; Banked call to: osal_msg_receive
        MOV     ?V2,R2
        MOV     ?V3,R3
        MOV     A,?V2
        ORL     A,?V3
        JZ      ??ParkWay_ProcessEvent_5
        MOV     DPL,?V2
        MOV     DPH,?V3
        MOVX    A,@DPTR
        ADD     A,#0x2f
        JZ      ??ParkWay_ProcessEvent_2
        ADD     A,#-0x2
        JNZ     ??ParkWay_ProcessEvent_4
        MOV     A,?V2
        ADD     A,#0xc
        MOV     DPL,A
        CLR     A
        ADDC    A,?V3
        MOV     DPH,A
        MOVX    A,@DPTR
        XRL     A,#0x6
        JNZ     ??ParkWay_ProcessEvent_6
        INC     DPTR
        MOVX    A,@DPTR
        XRL     A,#0x80
??ParkWay_ProcessEvent_6:
        JNZ     ??ParkWay_ProcessEvent_4
        ; Setup parameters for call to function ZDO_ParseEPListRsp
        MOV     R2,?V2
        MOV     R3,?V3
        LCALL   ??ZDO_ParseEPListRsp?relay; Banked call to: ZDO_ParseEPListRsp
        MOV     ?V0,R2
        MOV     ?V1,R3
        MOV     A,R2
        ORL     A,?V1
        JZ      ??ParkWay_ProcessEvent_4
        MOV     DPL,R2
        MOV     DPH,R3
        MOVX    A,@DPTR
        JNZ     ??ParkWay_ProcessEvent_7
        INC     DPTR
        INC     DPTR
        INC     DPTR
        MOVX    A,@DPTR
        JZ      ??ParkWay_ProcessEvent_7
        MOV     DPTR,#ParkWay_DstAddr + 8
        MOV     A,#0x2
        MOVX    @DPTR,A
        MOV     DPL,R2
        MOV     DPH,R3
        INC     DPTR
        MOVX    A,@DPTR
        MOV     R0,A
        INC     DPTR
        MOVX    A,@DPTR
        MOV     R1,A
        MOV     DPTR,#ParkWay_DstAddr
        MOV     A,R0
        MOVX    @DPTR,A
        INC     DPTR
        MOV     A,R1
        MOVX    @DPTR,A
        MOV     DPL,R2
        MOV     DPH,R3
        INC     DPTR
        INC     DPTR
        INC     DPTR
        INC     DPTR
        MOVX    A,@DPTR
        MOV     DPTR,#ParkWay_DstAddr + 9
        MOVX    @DPTR,A
        ; Setup parameters for call to function osal_stop_timerEx
        MOV     R2,#0x2
        MOV     R3,#0x0
        MOV     DPTR,#ParkWay_TaskID
        MOVX    A,@DPTR
        MOV     R1,A
        LCALL   ??osal_stop_timerEx?relay; Banked call to: osal_stop_timerEx
??ParkWay_ProcessEvent_7:
        ; Setup parameters for call to function osal_mem_free
        MOV     R2,?V0
        MOV     R3,?V1
        LCALL   ??osal_mem_free?relay; Banked call to: osal_mem_free
        LJMP    ??ParkWay_ProcessEvent_4 & 0xFFFF
//  235     }
//  236 
//  237     // return unprocessed events
//  238     return (events ^ SYS_EVENT_MSG);
??ParkWay_ProcessEvent_5:
        MOV     A,R6
        MOV     R2,A
        MOV     A,R7
        XRL     A,#0x80
        SJMP    ??ParkWay_ProcessEvent_8
//  239   }
//  240 
//  241   // Send to the coordinator the status of ultrasound
//  242   if ( events & ParkWay_SEND_MSG_EVT )
??ParkWay_ProcessEvent_0:
        MOV     A,R6
        MOV     C,0xE0 /* A   */.0
        JNC     ??ParkWay_ProcessEvent_9
//  243   {
//  244     // Send "the" message
//  245     ParkWay_SendTheMessage();
        ; Setup parameters for call to function ParkWay_SendTheMessage
        LCALL   ??ParkWay_SendTheMessage?relay; Banked call to: ParkWay_SendTheMessage
//  246 
//  247     // Setup to send message again
//  248     osal_start_timerEx( ParkWay_TaskID,
//  249                         ParkWay_SEND_MSG_EVT,
//  250                         ParkWay_SEND_MSG_TIMEOUT );
        ; Setup parameters for call to function osal_start_timerEx
        MOV     R4,#-0x24
        MOV     R5,#0x5
        MOV     R2,#0x1
        MOV     R3,#0x0
        MOV     DPTR,#ParkWay_TaskID
        MOVX    A,@DPTR
        MOV     R1,A
        LCALL   ??osal_start_timerEx?relay; Banked call to: osal_start_timerEx
//  251 
//  252     // return unprocessed events
//  253     return (events ^ ParkWay_SEND_MSG_EVT);
        MOV     A,R6
        XRL     A,#0x1
        MOV     R2,A
        MOV     A,R7
??ParkWay_ProcessEvent_8:
        MOV     R3,A
        SJMP    ??ParkWay_ProcessEvent_10
//  254   }
//  255   
//  256   if(events & POLLING_OF_DEV_EVT) //This force the auto bind to the coordinator or Router
??ParkWay_ProcessEvent_9:
        ANL     A,#0x2
        JZ      ??ParkWay_ProcessEvent_11
//  257   {
//  258     //HalLedSet ( HAL_LED_1, HAL_LED_MODE_ON);
//  259     // Initiate a Match Description Request (Service Discovery)
//  260     dstAddr.addrMode = AddrBroadcast;
        MOV     A,#0x8
        LCALL   ?XSTACK_DISP0_8
        MOV     A,#0xf
        MOVX    @DPTR,A
//  261     dstAddr.addr.shortAddr = NWK_BROADCAST_SHORTADDR;
        MOV     DPL,?XSP + 0
        MOV     DPH,?XSP + 1
        MOV     A,#-0x1
        MOVX    @DPTR,A
        INC     DPTR
        MOVX    @DPTR,A
//  262     ZDP_MatchDescReq( &dstAddr, NWK_BROADCAST_SHORTADDR,
//  263                       ParkWay_PROFID,
//  264                       ParkWay_MAX_CLUSTERS, (cId_t *)ParkWay_ClusterList,
//  265                       ParkWay_MAX_CLUSTERS, (cId_t *)ParkWay_ClusterList,
//  266                       FALSE );
        MOV     ?V0,#ParkWay_ClusterList & 0xff
        MOV     ?V1,#(ParkWay_ClusterList >> 8) & 0xff
        ; Setup parameters for call to function ZDP_MatchDescReq
        MOV     ?V2,#0x0
        MOV     R0,#?V2
        LCALL   ?PUSH_XSTACK_I_ONE
          CFI CFA_XSP16 add(XSP16, 24)
        MOV     R0,#?V0
        LCALL   ?PUSH_XSTACK_I_TWO
          CFI CFA_XSP16 add(XSP16, 26)
        MOV     ?V2,#0x1
        MOV     R0,#?V2
        LCALL   ?PUSH_XSTACK_I_ONE
          CFI CFA_XSP16 add(XSP16, 27)
        MOV     R0,#?V0
        LCALL   ?PUSH_XSTACK_I_TWO
          CFI CFA_XSP16 add(XSP16, 29)
        MOV     ?V0,#0x4
        MOV     ?V1,#0xf
        MOV     R0,#?V0
        LCALL   ?PUSH_XSTACK_I_TWO
          CFI CFA_XSP16 add(XSP16, 31)
        MOV     R1,#0x1
        MOV     R4,#-0x1
        MOV     R5,#-0x1
        MOV     A,#0x8
        LCALL   ?XSTACK_DISP101_8
        LCALL   ??ZDP_MatchDescReq?relay; Banked call to: ZDP_MatchDescReq
        MOV     A,#0x8
        LCALL   ?DEALLOC_XSTACK8
          CFI CFA_XSP16 add(XSP16, 23)
//  267     osal_start_timerEx( ParkWay_TaskID,
//  268                         POLLING_OF_DEV_EVT,
//  269                         TIME_TO_CONNECT_COORD);
        ; Setup parameters for call to function osal_start_timerEx
        MOV     R4,#-0x18
        MOV     R5,#0x3
        MOV     R2,#0x2
        MOV     R3,#0x0
        MOV     DPTR,#ParkWay_TaskID
        MOVX    A,@DPTR
        MOV     R1,A
        LCALL   ??osal_start_timerEx?relay; Banked call to: osal_start_timerEx
//  270   } 
//  271 
//  272 
//  273   HalLedSet( HAL_LED_ALL, HAL_LED_MODE_OFF ); //Shutdown all LEDS to reduce consumption of power
??ParkWay_ProcessEvent_11:
        ; Setup parameters for call to function HalLedSet
        MOV     R2,#0x0
        MOV     R1,#0xf
        LCALL   ??HalLedSet?relay    ; Banked call to: HalLedSet
//  274   
//  275   // Discard unknown events
//  276   return 0;
        MOV     R2,#0x0
        MOV     R3,#0x0
??ParkWay_ProcessEvent_10:
        MOV     A,#0x9
        LCALL   ?DEALLOC_XSTACK8
          CFI CFA_XSP16 add(XSP16, 14)
        MOV     R7,#0x6
        LJMP    ?BANKED_LEAVE_XDATA
          CFI EndBlock cfiBlock2
//  277 }
//  278 
//  279 /*********************************************************************
//  280  * Event Generation Functions
//  281  */
//  282 
//  283 /*********************************************************************
//  284  */
//  285 //This function process the ZDO events to bind
//  286 static void ParkWay_ProcessZDOMsgs( zdoIncomingMsg_t *inMsg )
//  287 {
//  288   switch ( inMsg->clusterID )
//  289   {
//  290     case End_Device_Bind_rsp:
//  291       if ( ZDO_ParseBindRsp( inMsg ) == ZSuccess )
//  292       {
//  293         // Light LED
//  294         //HalLedSet ( HAL_LED_2, HAL_LED_MODE_FLASH );
//  295       }
//  296       break;
//  297 
//  298     case Match_Desc_rsp:
//  299       {
//  300         ZDO_ActiveEndpointRsp_t *pRsp = ZDO_ParseEPListRsp( inMsg );
//  301         if ( pRsp )
//  302         {
//  303           if ( pRsp->status == ZSuccess && pRsp->cnt )
//  304           {
//  305             ParkWay_DstAddr.addrMode = (afAddrMode_t)Addr16Bit;
//  306             ParkWay_DstAddr.addr.shortAddr = pRsp->nwkAddr;
//  307             // Take the first endpoint, Can be changed to search through endpoints
//  308             ParkWay_DstAddr.endPoint = pRsp->epList[0];
//  309 
//  310             // Light LED
//  311             //HalLedSet( HAL_LED_2, HAL_LED_MODE_ON );
//  312 
//  313             //This stop the peer from send request do the coordinator
//  314             //HalLedSet ( HAL_LED_1, HAL_LED_MODE_OFF);
//  315             osal_stop_timerEx( ParkWay_TaskID,POLLING_OF_DEV_EVT);
//  316           }
//  317           osal_mem_free( pRsp );
//  318         }
//  319       }
//  320       break;
//  321   }
//  322 }
//  323 
//  324 /*********************************************************************
//  325  * LOCAL FUNCTIONS
//  326  */
//  327 //This function process the frames received by the application framework (source routers or the coordinator)
//  328 
//  329 static void ParkWay_MessageMSGCB( afIncomingMSGPacket_t *pkt_1 )
//  330 {
//  331   /************************************************* This was used to send some specific data do the last device connected to the COORDINATOR (HDA)**************************************/
//  332   // uint8* pkt;
//  333   // pkt=(pkt_1->cmd.Data);
//  334   
//  335   // uint8 pin_ultra=4;
//  336   
//  337   // P0SEL &= (~BV(2));
//  338   // P0DIR |= (BV(2));
//  339     
//  340   // if(*pkt==48||*(pkt+1)==48||*(pkt+2)==48)
//  341   // {
//  342   //  P0&=~pin_ultra;
//  343   // }
//  344   // else
//  345   // {
//  346   //   P0|=pin_ultra;
//  347   // }
//  348   /************************************************* This was used to send some specific data do the last device connected to the COORDINATOR (HDA)**************************************/
//  349 }
//  350 
//  351 //This function send the status of own park to the coordinator

        RSEG BANKED_CODE:CODE:NOROOT(0)
//  352 static void ParkWay_SendTheMessage( void )
ParkWay_SendTheMessage:
          CFI Block cfiBlock3 Using cfiCommon0
          CFI Function ParkWay_SendTheMessage
        CODE
//  353 {
        FUNCALL ParkWay_SendTheMessage, osal_strlen
        LOCFRAME ISTACK, 0, STACK
        LOCFRAME PSTACK, 0, STACK
        LOCFRAME XSTACK, 21, STACK
        LOCFRAME IOVERLAY, 0, STATIC
        LOCFRAME DOVERLAY, 0, STATIC
        ARGFRAME ISTACK, 0, STACK
        ARGFRAME PSTACK, 0, STACK
        ARGFRAME XSTACK, 21, STACK
        ARGFRAME IOVERLAY, 0, STATIC
        ARGFRAME DOVERLAY, 0, STATIC
        FUNCALL ParkWay_SendTheMessage, AF_DataRequest
        LOCFRAME ISTACK, 0, STACK
        LOCFRAME PSTACK, 0, STACK
        LOCFRAME XSTACK, 25, STACK
        LOCFRAME IOVERLAY, 0, STATIC
        LOCFRAME DOVERLAY, 0, STATIC
        ARGFRAME ISTACK, 0, STACK
        ARGFRAME PSTACK, 0, STACK
        ARGFRAME XSTACK, 25, STACK
        ARGFRAME IOVERLAY, 0, STATIC
        ARGFRAME DOVERLAY, 0, STATIC
        FUNCALL ParkWay_SendTheMessage, osal_stop_timerEx
        LOCFRAME ISTACK, 0, STACK
        LOCFRAME PSTACK, 0, STACK
        LOCFRAME XSTACK, 16, STACK
        LOCFRAME IOVERLAY, 0, STATIC
        LOCFRAME DOVERLAY, 0, STATIC
        ARGFRAME ISTACK, 0, STACK
        ARGFRAME PSTACK, 0, STACK
        ARGFRAME XSTACK, 16, STACK
        ARGFRAME IOVERLAY, 0, STATIC
        ARGFRAME DOVERLAY, 0, STATIC
        FUNCALL ParkWay_SendTheMessage, osal_start_timerEx
        LOCFRAME ISTACK, 0, STACK
        LOCFRAME PSTACK, 0, STACK
        LOCFRAME XSTACK, 16, STACK
        LOCFRAME IOVERLAY, 0, STATIC
        LOCFRAME DOVERLAY, 0, STATIC
        ARGFRAME ISTACK, 0, STACK
        ARGFRAME PSTACK, 0, STACK
        ARGFRAME XSTACK, 16, STACK
        ARGFRAME IOVERLAY, 0, STATIC
        ARGFRAME DOVERLAY, 0, STATIC
        REQUIRE ?V0
        REQUIRE ?V1
        MOV     A,#-0xa
        LCALL   ?BANKED_ENTER_XDATA
          CFI DPH0 load(1, XDATA, add(CFA_XSP16, literal(-1)))
          CFI DPL0 load(1, XDATA, add(CFA_XSP16, literal(-2)))
          CFI ?BRET_EXT load(1, XDATA, add(CFA_XSP16, literal(-3)))
          CFI ?RET_HIGH load(1, XDATA, add(CFA_XSP16, literal(-4)))
          CFI ?RET_LOW load(1, XDATA, add(CFA_XSP16, literal(-5)))
          CFI R7 load(1, XDATA, add(CFA_XSP16, literal(-6)))
          CFI V1 load(1, XDATA, add(CFA_XSP16, literal(-7)))
          CFI V0 load(1, XDATA, add(CFA_XSP16, literal(-8)))
          CFI VB load(1, XDATA, add(CFA_XSP16, literal(-9)))
          CFI R6 load(1, XDATA, add(CFA_XSP16, literal(-10)))
          CFI CFA_SP SP+0
          CFI CFA_XSP16 add(XSP16, 10)
        ; Saved register size: 10
        ; Auto size: 6
        MOV     A,#-0x6
        LCALL   ?ALLOC_XSTACK8
          CFI CFA_XSP16 add(XSP16, 16)
//  354   uint8 pData[6], pin_ultra=4,vaga;
//  355   P0SEL &= (~BV(2));
        ANL     0xf3,#0xfb
//  356   P0DIR &= (~BV(2));
        ANL     0xfd,#0xfb
//  357   vaga = (pin_ultra & P0);
//  358   if(vaga)
        MOV     C,0x80.2
        JNC     ??ParkWay_SendTheMessage_0
//  359   {
//  360      vaga='1';
        MOV     R0,#0x31
        SJMP    ??ParkWay_SendTheMessage_1
//  361   }
//  362   else
//  363   {
//  364      vaga='0';
??ParkWay_SendTheMessage_0:
        MOV     R0,#0x30
//  365   }
//  366 
//  367   pData[0] = 'E';
??ParkWay_SendTheMessage_1:
        MOV     DPL,?XSP + 0
        MOV     DPH,?XSP + 1
        MOV     A,#0x45
        MOVX    @DPTR,A
//  368   pData[1] = 'D';
        MOV     A,#0x1
        LCALL   ?XSTACK_DISP0_8
        MOV     A,#0x44
        MOVX    @DPTR,A
//  369   pData[2] = DEVICE_PW_1;
        MOV     A,#0x2
        LCALL   ?XSTACK_DISP0_8
        MOV     A,#0x30
        MOVX    @DPTR,A
//  370   pData[3] = DEVICE_PW_2;
        MOV     A,#0x3
        LCALL   ?XSTACK_DISP0_8
        MOV     A,#0x31
        MOVX    @DPTR,A
//  371   pData[4] = '-';
        MOV     A,#0x4
        LCALL   ?XSTACK_DISP0_8
        MOV     A,#0x2d
        MOVX    @DPTR,A
//  372   pData[5] = vaga;
        MOV     A,#0x5
        LCALL   ?XSTACK_DISP0_8
        MOV     A,R0
        MOVX    @DPTR,A
//  373 
//  374   //Send data to the coordinator ADDRESS(0000)
//  375   if ( AF_DataRequest( &ParkWay_DstAddr, &ParkWay_epDesc,
//  376                        ParkWay_CLUSTERID,
//  377                        (byte)osal_strlen( pData ) + 1,
//  378                        (byte *)&pData,
//  379                        &ParkWay_TransID,
//  380                        AF_DISCV_ROUTE, AF_DEFAULT_RADIUS ) == afStatus_SUCCESS )
        ; Setup parameters for call to function AF_DataRequest
        MOV     ?V0,#0x1e
        MOV     R0,#?V0
        LCALL   ?PUSH_XSTACK_I_ONE
          CFI CFA_XSP16 add(XSP16, 17)
        MOV     ?V0,#ParkWay_TransID & 0xff
        MOV     ?V1,#(ParkWay_TransID >> 8) & 0xff
        MOV     R0,#?V0
        LCALL   ?PUSH_XSTACK_I_TWO
          CFI CFA_XSP16 add(XSP16, 19)
        MOV     A,#0x3
        LCALL   ?XSTACK_DISP100_8
        MOV     ?V0,R0
        MOV     ?V1,R1
        MOV     R0,#?V0
        LCALL   ?PUSH_XSTACK_I_TWO
          CFI CFA_XSP16 add(XSP16, 21)
        ; Setup parameters for call to function osal_strlen
        MOV     A,#0x5
        LCALL   ?XSTACK_DISP101_8
        LCALL   ??osal_strlen?relay  ; Banked call to: osal_strlen
        MOV     A,R2
        ADD     A,#0x1
        MOV     ?V0,A
        CLR     A
        ADDC    A,#0x0
        MOV     ?V1,A
        MOV     R0,#?V0
        LCALL   ?PUSH_XSTACK_I_TWO
          CFI CFA_XSP16 add(XSP16, 23)
        MOV     ?V0,#0x1
        MOV     ?V1,#0x0
        MOV     R0,#?V0
        LCALL   ?PUSH_XSTACK_I_TWO
          CFI CFA_XSP16 add(XSP16, 25)
        MOV     R1,#0x20
        MOV     R4,#ParkWay_epDesc & 0xff
        MOV     R5,#(ParkWay_epDesc >> 8) & 0xff
        MOV     R2,#ParkWay_DstAddr & 0xff
        MOV     R3,#(ParkWay_DstAddr >> 8) & 0xff
        LCALL   ??AF_DataRequest?relay; Banked call to: AF_DataRequest
        MOV     A,#0x9
        LCALL   ?DEALLOC_XSTACK8
          CFI CFA_XSP16 add(XSP16, 16)
        MOV     A,R1
        JZ      ??ParkWay_SendTheMessage_2
//  381   {
//  382     // Successfully requested to be sent.
//  383   }
//  384   else
//  385   {
//  386     osal_stop_timerEx( ParkWay_TaskID,
//  387                         ParkWay_SEND_MSG_EVT);
        ; Setup parameters for call to function osal_stop_timerEx
        MOV     R2,#0x1
        MOV     R3,#0x0
        MOV     DPTR,#ParkWay_TaskID
        MOVX    A,@DPTR
        MOV     R1,A
        LCALL   ??osal_stop_timerEx?relay; Banked call to: osal_stop_timerEx
//  388     osal_start_timerEx( ParkWay_TaskID,
//  389                         POLLING_OF_DEV_EVT,
//  390                         200);
        ; Setup parameters for call to function osal_start_timerEx
        MOV     R4,#-0x38
        MOV     R5,#0x0
        MOV     R2,#0x2
        MOV     R3,#0x0
        MOV     DPTR,#ParkWay_TaskID
        MOVX    A,@DPTR
        MOV     R1,A
        LCALL   ??osal_start_timerEx?relay; Banked call to: osal_start_timerEx
//  391   }
//  392 }
??ParkWay_SendTheMessage_2:
        MOV     A,#0x6
        LCALL   ?DEALLOC_XSTACK8
          CFI EndBlock cfiBlock3
        REQUIRE ?Subroutine1
        REQUIRE P0SEL
        REQUIRE P0DIR
        REQUIRE _A_P0
        ; // Fall through to label ?Subroutine1

        RSEG BANKED_CODE:CODE:NOROOT(0)
?Subroutine1:
          CFI Block cfiBlock4 Using cfiCommon0
          CFI NoFunction
          CFI CFA_SP SP+0
          CFI CFA_XSP16 add(XSP16, 10)
          CFI VB load(1, XDATA, add(CFA_XSP16, literal(-9)))
          CFI DPL0 load(1, XDATA, add(CFA_XSP16, literal(-2)))
          CFI DPH0 load(1, XDATA, add(CFA_XSP16, literal(-1)))
          CFI R6 load(1, XDATA, add(CFA_XSP16, literal(-10)))
          CFI R7 load(1, XDATA, add(CFA_XSP16, literal(-6)))
          CFI V0 load(1, XDATA, add(CFA_XSP16, literal(-8)))
          CFI V1 load(1, XDATA, add(CFA_XSP16, literal(-7)))
          CFI ?BRET_EXT load(1, XDATA, add(CFA_XSP16, literal(-3)))
          CFI ?RET_HIGH load(1, XDATA, add(CFA_XSP16, literal(-4)))
          CFI ?RET_LOW load(1, XDATA, add(CFA_XSP16, literal(-5)))
        MOV     R7,#0x2
        LJMP    ?BANKED_LEAVE_XDATA
          CFI EndBlock cfiBlock4
//  393 

        RSEG BANKED_CODE:CODE:NOROOT(0)
//  394 static void UART_CallBack(uint8 port, uint8 event)
UART_CallBack:
          CFI Block cfiBlock5 Using cfiCommon0
          CFI Function UART_CallBack
        CODE
//  395 {
        FUNCALL UART_CallBack, HalUARTRead
        LOCFRAME ISTACK, 0, STACK
        LOCFRAME PSTACK, 0, STACK
        LOCFRAME XSTACK, 10, STACK
        LOCFRAME IOVERLAY, 0, STATIC
        LOCFRAME DOVERLAY, 0, STATIC
        ARGFRAME ISTACK, 0, STACK
        ARGFRAME PSTACK, 0, STACK
        ARGFRAME XSTACK, 10, STACK
        ARGFRAME IOVERLAY, 0, STATIC
        ARGFRAME DOVERLAY, 0, STATIC
        FUNCALL UART_CallBack, SendUART
        LOCFRAME ISTACK, 0, STACK
        LOCFRAME PSTACK, 0, STACK
        LOCFRAME XSTACK, 10, STACK
        LOCFRAME IOVERLAY, 0, STATIC
        LOCFRAME DOVERLAY, 0, STATIC
        ARGFRAME ISTACK, 0, STACK
        ARGFRAME PSTACK, 0, STACK
        ARGFRAME XSTACK, 10, STACK
        ARGFRAME IOVERLAY, 0, STATIC
        ARGFRAME DOVERLAY, 0, STATIC
        MOV     A,#-0x9
        LCALL   ?BANKED_ENTER_XDATA
          CFI DPH0 load(1, XDATA, add(CFA_XSP16, literal(-1)))
          CFI DPL0 load(1, XDATA, add(CFA_XSP16, literal(-2)))
          CFI ?BRET_EXT load(1, XDATA, add(CFA_XSP16, literal(-3)))
          CFI ?RET_HIGH load(1, XDATA, add(CFA_XSP16, literal(-4)))
          CFI ?RET_LOW load(1, XDATA, add(CFA_XSP16, literal(-5)))
          CFI R7 load(1, XDATA, add(CFA_XSP16, literal(-6)))
          CFI V0 load(1, XDATA, add(CFA_XSP16, literal(-7)))
          CFI VB load(1, XDATA, add(CFA_XSP16, literal(-8)))
          CFI R6 load(1, XDATA, add(CFA_XSP16, literal(-9)))
          CFI CFA_SP SP+0
          CFI CFA_XSP16 add(XSP16, 9)
        ; Saved register size: 9
        ; Auto size: 1
        MOV     A,#-0x1
        LCALL   ?ALLOC_XSTACK8
          CFI CFA_XSP16 add(XSP16, 10)
        MOV     A,R2
        MOV     R7,A
//  396   (void)port;
//  397   uint8 cmdbuff[1];
//  398   if (event & (HAL_UART_RX_FULL | HAL_UART_RX_ABOUT_FULL | HAL_UART_RX_TIMEOUT))
        MOV     A,#0x7
        ANL     A,R7
        JZ      ??UART_CallBack_0
//  399   {
//  400     HalUARTRead(port, cmdbuff, 1);
        ; Setup parameters for call to function HalUARTRead
        MOV     R4,#0x1
        MOV     R5,#0x0
        MOV     R2,?XSP + 0
        MOV     R3,?XSP + 1
        LCALL   ??HalUARTRead?relay  ; Banked call to: HalUARTRead
//  401     SendUART(cmdbuff,1);
        ; Setup parameters for call to function SendUART
        MOV     R1,#0x1
        MOV     R2,?XSP + 0
        MOV     R3,?XSP + 1
        LCALL   ??SendUART?relay     ; Banked call to: SendUART
//  402   }
//  403 }
??UART_CallBack_0:
        MOV     A,#0x1
        LCALL   ?DEALLOC_XSTACK8
          CFI CFA_XSP16 add(XSP16, 9)
        LJMP    ?Subroutine0 & 0xFFFF
          CFI EndBlock cfiBlock5
//  404 
//  405 //This function initializes the UART

        RSEG BANKED_CODE:CODE:NOROOT(0)
//  406 void uart_init()
uart_init:
          CFI Block cfiBlock6 Using cfiCommon0
          CFI Function uart_init
        CODE
//  407 {
        FUNCALL uart_init, HalUARTOpen
        LOCFRAME ISTACK, 2, STACK
        LOCFRAME PSTACK, 0, STACK
        LOCFRAME XSTACK, 29, STACK
        LOCFRAME IOVERLAY, 0, STATIC
        LOCFRAME DOVERLAY, 0, STATIC
        ARGFRAME ISTACK, 2, STACK
        ARGFRAME PSTACK, 0, STACK
        ARGFRAME XSTACK, 29, STACK
        ARGFRAME IOVERLAY, 0, STATIC
        ARGFRAME DOVERLAY, 0, STATIC
        PUSH    DPL
          CFI DPL0 Frame(CFA_SP, 4)
          CFI CFA_SP SP+-4
        PUSH    DPH
          CFI DPH0 Frame(CFA_SP, 5)
          CFI CFA_SP SP+-5
        ; Saved register size: 2
        ; Auto size: 29
        MOV     A,#-0x1d
        LCALL   ?ALLOC_XSTACK8
          CFI CFA_XSP16 add(XSP16, 29)
//  408   halUARTCfg_t uartConfig;
//  409   uartConfig.configured = TRUE; // 2x30 don't care - see uart driver.
        MOV     DPL,?XSP + 0
        MOV     DPH,?XSP + 1
        MOV     A,#0x1
        MOVX    @DPTR,A
//  410   uartConfig.baudRate = HAL_UART_BR_9600;
        LCALL   ?XSTACK_DISP0_8
        CLR     A
        MOVX    @DPTR,A
//  411   uartConfig.flowControl = TRUE;
        MOV     A,#0x2
        LCALL   ?XSTACK_DISP0_8
        MOV     A,#0x1
        MOVX    @DPTR,A
//  412   uartConfig.flowControlThreshold = 48; // 2x30 don't care - see uart driver.
        MOV     A,#0x3
        LCALL   ?XSTACK_DISP0_8
        MOV     A,#0x30
        MOVX    @DPTR,A
        INC     DPTR
        CLR     A
        MOVX    @DPTR,A
//  413   uartConfig.rx.maxBufSize = 128; // 2x30 don't care - see uart driver.
        MOV     A,#0xa
        LCALL   ?XSTACK_DISP0_8
        MOV     A,#-0x80
        MOVX    @DPTR,A
        INC     DPTR
        CLR     A
        MOVX    @DPTR,A
//  414   uartConfig.tx.maxBufSize = 128; // 2x30 don't care - see uart driver.
        MOV     A,#0x12
        LCALL   ?XSTACK_DISP0_8
        MOV     A,#-0x80
        MOVX    @DPTR,A
        INC     DPTR
        CLR     A
        MOVX    @DPTR,A
//  415   uartConfig.idleTimeout = 6; // 2x30 don't care - see uart driver.
        MOV     A,#0x5
        LCALL   ?XSTACK_DISP0_8
        MOV     A,#0x6
        MOVX    @DPTR,A
//  416   uartConfig.intEnable = TRUE; // 2x30 don't care - see uart driver.
        MOV     A,#0x16
        LCALL   ?XSTACK_DISP0_8
        MOV     A,#0x1
        MOVX    @DPTR,A
//  417   uartConfig.callBackFunc = UART_CallBack;
        MOV     A,#0x1b
        LCALL   ?XSTACK_DISP0_8
        MOV     A,#??UART_CallBack?relay & 0xff
        MOVX    @DPTR,A
        INC     DPTR
        MOV     A,#(??UART_CallBack?relay >> 8) & 0xff
        MOVX    @DPTR,A
//  418   HalUARTOpen (HAL_UART_PORT_0, &uartConfig);
        ; Setup parameters for call to function HalUARTOpen
        MOV     R2,?XSP + 0
        MOV     R3,?XSP + 1
        MOV     R1,#0x0
        LCALL   ??HalUARTOpen?relay  ; Banked call to: HalUARTOpen
//  419 }
        MOV     A,#0x1d
        LCALL   ?DEALLOC_XSTACK8
          CFI CFA_XSP16 XSP16+0
        POP     DPH
          CFI DPH0 SameValue
          CFI CFA_SP SP+-4
        POP     DPL
          CFI DPL0 SameValue
          CFI CFA_SP SP+-3
        LJMP    ?BRET
          CFI EndBlock cfiBlock6
//  420 

        RSEG BANKED_CODE:CODE:NOROOT(0)
//  421 void SendUART(uint8 *data,uint8 len)
SendUART:
          CFI Block cfiBlock7 Using cfiCommon0
          CFI Function SendUART
        CODE
//  422 {
        FUNCALL SendUART, HalUARTWrite
        LOCFRAME ISTACK, 0, STACK
        LOCFRAME PSTACK, 0, STACK
        LOCFRAME XSTACK, 10, STACK
        LOCFRAME IOVERLAY, 0, STATIC
        LOCFRAME DOVERLAY, 0, STATIC
        ARGFRAME ISTACK, 0, STACK
        ARGFRAME PSTACK, 0, STACK
        ARGFRAME XSTACK, 10, STACK
        ARGFRAME IOVERLAY, 0, STATIC
        ARGFRAME DOVERLAY, 0, STATIC
        REQUIRE ?V0
        REQUIRE ?V1
        MOV     A,#-0xa
        LCALL   ?BANKED_ENTER_XDATA
          CFI DPH0 load(1, XDATA, add(CFA_XSP16, literal(-1)))
          CFI DPL0 load(1, XDATA, add(CFA_XSP16, literal(-2)))
          CFI ?BRET_EXT load(1, XDATA, add(CFA_XSP16, literal(-3)))
          CFI ?RET_HIGH load(1, XDATA, add(CFA_XSP16, literal(-4)))
          CFI ?RET_LOW load(1, XDATA, add(CFA_XSP16, literal(-5)))
          CFI R7 load(1, XDATA, add(CFA_XSP16, literal(-6)))
          CFI V1 load(1, XDATA, add(CFA_XSP16, literal(-7)))
          CFI V0 load(1, XDATA, add(CFA_XSP16, literal(-8)))
          CFI VB load(1, XDATA, add(CFA_XSP16, literal(-9)))
          CFI R6 load(1, XDATA, add(CFA_XSP16, literal(-10)))
          CFI CFA_SP SP+0
          CFI CFA_XSP16 add(XSP16, 10)
        ; Saved register size: 10
        ; Auto size: 0
        MOV     A,R1
//  423   HalUARTWrite(HAL_UART_PORT_0, data, len);
        ; Setup parameters for call to function HalUARTWrite
        MOV     R4,A
        MOV     R5,#0x0
        MOV     R1,#0x0
        LCALL   ??HalUARTWrite?relay ; Banked call to: HalUARTWrite
//  424 }
        LJMP    ?Subroutine1 & 0xFFFF
          CFI EndBlock cfiBlock7

        RSEG BANK_RELAYS:CODE:REORDER:NOROOT(0)
??ParkWay_Init?relay:
        CODE
        LCALL   ?BDISPATCH
        DATA24
        DC24    ParkWay_Init

        RSEG BANK_RELAYS:CODE:REORDER:NOROOT(0)
??ParkWay_ProcessEvent?relay:
        CODE
        LCALL   ?BDISPATCH
        DATA24
        DC24    ParkWay_ProcessEvent

        RSEG BANK_RELAYS:CODE:REORDER:NOROOT(0)
??ParkWay_SendTheMessage?relay:
        CODE
        LCALL   ?BDISPATCH
        DATA24
        DC24    ParkWay_SendTheMessage

        RSEG BANK_RELAYS:CODE:REORDER:NOROOT(0)
??UART_CallBack?relay:
        CODE
        LCALL   ?BDISPATCH
        DATA24
        DC24    UART_CallBack

        RSEG BANK_RELAYS:CODE:REORDER:NOROOT(0)
??uart_init?relay:
        CODE
        LCALL   ?BDISPATCH
        DATA24
        DC24    uart_init

        RSEG BANK_RELAYS:CODE:REORDER:NOROOT(0)
??SendUART?relay:
        CODE
        LCALL   ?BDISPATCH
        DATA24
        DC24    SendUART

        END
//  425 
//  426 static void ParkWay_HandleKeys( uint8 shift, uint8 keys )
//  427 {
//  428 }
//  429 
//  430 /*********************************************************************/
// 
// 863 bytes in segment BANKED_CODE
//  36 bytes in segment BANK_RELAYS
//   3 bytes in segment SFR_AN
//  14 bytes in segment XDATA_ROM_C
//  21 bytes in segment XDATA_Z
// 
// 899 bytes of CODE  memory
//  14 bytes of CONST memory
//   0 bytes of DATA  memory (+ 3 bytes shared)
//  21 bytes of XDATA memory
//
//Errors: none
//Warnings: 6
