###############################################################################
#                                                                             #
# IAR C/C++ Compiler V8.30.1.41636 for 8051             27/Jun/2014  00:47:30 #
# Copyright 2004-2013 IAR Systems AB.                                         #
#                                                                             #
#    Core               =  plain                                              #
#    Code model         =  banked                                             #
#    Data model         =  large                                              #
#    Calling convention =  xdata reentrant                                    #
#    Constant location  =  data_rom                                           #
#    Dptr setup         =  1,16                                               #
#                                                                             #
#    Source file        =  C:\Texas Instruments\ZStack-CC2530-2.5.1a\Componen #
#                          ts\mt\MT_AF.c                                      #
#    Command line       =  -f "C:\Texas Instruments\ZStack-CC2530-2.5.1a\Proj #
#                          ects\zstack\Samples\ParkWay\CC2530DB\..\..\..\Tool #
#                          s\CC2530DB\f8wCoord.cfg" (-DCPU32MHZ               #
#                          -DROOT=__near_func -DMAC_CFG_APP_PENDING_QUEUE=TRU #
#                          E -DMAC_CFG_TX_DATA_MAX=5 -DMAC_CFG_TX_MAX=8       #
#                          -DMAC_CFG_RX_MAX=5 -DZDO_COORDINATOR -DRTR_NWK)    #
#                          -f "C:\Texas Instruments\ZStack-CC2530-2.5.1a\Proj #
#                          ects\zstack\Samples\ParkWay\CC2530DB\..\..\..\Tool #
#                          s\CC2530DB\f8wConfig.cfg" (-DZIGBEEPRO -DSECURE=0  #
#                          -DZG_SECURE_DYNAMIC=0 -DREFLECTOR                  #
#                          -DDEFAULT_CHANLIST=0x00000800                      #
#                          -DZDAPP_CONFIG_PAN_ID=0xFFFF                       #
#                          -DNWK_START_DELAY=100 -DEXTENDED_JOINING_RANDOM_MA #
#                          SK=0x007F -DBEACON_REQUEST_DELAY=100               #
#                          -DBEACON_REQ_DELAY_MASK=0x00FF                     #
#                          -DLINK_STATUS_JITTER_MASK=0x007F                   #
#                          -DROUTE_EXPIRY_TIME=30 -DAPSC_ACK_WAIT_DURATION_PO #
#                          LLED=3000 -DNWK_INDIRECT_MSG_TIMEOUT=7             #
#                          -DMAX_RREQ_ENTRIES=8 -DAPSC_MAX_FRAME_RETRIES=3    #
#                          -DNWK_MAX_DATA_RETRIES=2                           #
#                          -DMAX_POLL_FAILURE_RETRIES=2 -DMAX_BCAST=9         #
#                          -DAPS_MAX_GROUPS=16 -DMAX_RTG_ENTRIES=40           #
#                          -DNWK_MAX_BINDING_ENTRIES=4                        #
#                          -DMAX_BINDING_CLUSTER_IDS=4 "-DDEFAULT_KEY={0x01,  #
#                          0x03, 0x05, 0x07, 0x09, 0x0B, 0x0D, 0x0F, 0x00,    #
#                          0x02, 0x04, 0x06, 0x08, 0x0A, 0x0C, 0x0D}"         #
#                          -DMAC_MAX_FRAME_SIZE=116                           #
#                          -DZDNWKMGR_MIN_TRANSMISSIONS=20 "-DCONST=const     #
#                          __code" -DGENERIC=__generic                        #
#                          -DRFD_RCVC_ALWAYS_ON=FALSE -DPOLL_RATE=1000        #
#                          -DQUEUED_POLL_RATE=100 -DRESPONSE_POLL_RATE=100)   #
#                          -DREJOIN_POLL_RATE=440 "C:\Texas                   #
#                          Instruments\ZStack-CC2530-2.5.1a\Components\mt\MT_ #
#                          AF.c" -D ZTOOL_P1 -D MT_TASK -D MT_SYS_FUNC -D     #
#                          MT_ZDO_FUNC -D LCD_SUPPORTED=DEBUG -D NV_RESTORE   #
#                          -lC "C:\Texas Instruments\ZStack-CC2530-2.5.1a\Pro #
#                          jects\zstack\Samples\ParkWay\CC2530DB\CoordinatorE #
#                          B\List\" -lA "C:\Texas Instruments\ZStack-CC2530-2 #
#                          .5.1a\Projects\zstack\Samples\ParkWay\CC2530DB\Coo #
#                          rdinatorEB\List\" --diag_suppress Pe001,Pa010 -o   #
#                          "C:\Texas Instruments\ZStack-CC2530-2.5.1a\Project #
#                          s\zstack\Samples\ParkWay\CC2530DB\CoordinatorEB\Ob #
#                          j\" -e --no_code_motion --debug --core=plain       #
#                          --dptr=16,1 --data_model=large                     #
#                          --code_model=banked --calling_convention=xdata_ree #
#                          ntrant --place_constants=data_rom                  #
#                          --nr_virtual_regs 8 -I "C:\Texas                   #
#                          Instruments\ZStack-CC2530-2.5.1a\Projects\zstack\S #
#                          amples\ParkWay\CC2530DB\" -I "C:\Texas             #
#                          Instruments\ZStack-CC2530-2.5.1a\Projects\zstack\S #
#                          amples\ParkWay\CC2530DB\..\Source\" -I "C:\Texas   #
#                          Instruments\ZStack-CC2530-2.5.1a\Projects\zstack\S #
#                          amples\ParkWay\CC2530DB\..\..\..\ZMain\TI2530DB\"  #
#                          -I "C:\Texas Instruments\ZStack-CC2530-2.5.1a\Proj #
#                          ects\zstack\Samples\ParkWay\CC2530DB\..\..\..\..\. #
#                          .\Components\hal\include\" -I "C:\Texas            #
#                          Instruments\ZStack-CC2530-2.5.1a\Projects\zstack\S #
#                          amples\ParkWay\CC2530DB\..\..\..\..\..\Components\ #
#                          hal\target\CC2530EB\" -I "C:\Texas                 #
#                          Instruments\ZStack-CC2530-2.5.1a\Projects\zstack\S #
#                          amples\ParkWay\CC2530DB\..\..\..\..\..\Components\ #
#                          mac\include\" -I "C:\Texas                         #
#                          Instruments\ZStack-CC2530-2.5.1a\Projects\zstack\S #
#                          amples\ParkWay\CC2530DB\..\..\..\..\..\Components\ #
#                          mac\high_level\" -I "C:\Texas                      #
#                          Instruments\ZStack-CC2530-2.5.1a\Projects\zstack\S #
#                          amples\ParkWay\CC2530DB\..\..\..\..\..\Components\ #
#                          mac\low_level\srf04\" -I "C:\Texas                 #
#                          Instruments\ZStack-CC2530-2.5.1a\Projects\zstack\S #
#                          amples\ParkWay\CC2530DB\..\..\..\..\..\Components\ #
#                          mac\low_level\srf04\single_chip\" -I "C:\Texas     #
#                          Instruments\ZStack-CC2530-2.5.1a\Projects\zstack\S #
#                          amples\ParkWay\CC2530DB\..\..\..\..\..\Components\ #
#                          mt\" -I "C:\Texas Instruments\ZStack-CC2530-2.5.1a #
#                          \Projects\zstack\Samples\ParkWay\CC2530DB\..\..\.. #
#                          \..\..\Components\osal\include\" -I "C:\Texas      #
#                          Instruments\ZStack-CC2530-2.5.1a\Projects\zstack\S #
#                          amples\ParkWay\CC2530DB\..\..\..\..\..\Components\ #
#                          services\saddr\" -I "C:\Texas                      #
#                          Instruments\ZStack-CC2530-2.5.1a\Projects\zstack\S #
#                          amples\ParkWay\CC2530DB\..\..\..\..\..\Components\ #
#                          services\sdata\" -I "C:\Texas                      #
#                          Instruments\ZStack-CC2530-2.5.1a\Projects\zstack\S #
#                          amples\ParkWay\CC2530DB\..\..\..\..\..\Components\ #
#                          stack\af\" -I "C:\Texas Instruments\ZStack-CC2530- #
#                          2.5.1a\Projects\zstack\Samples\ParkWay\CC2530DB\.. #
#                          \..\..\..\..\Components\stack\nwk\" -I "C:\Texas   #
#                          Instruments\ZStack-CC2530-2.5.1a\Projects\zstack\S #
#                          amples\ParkWay\CC2530DB\..\..\..\..\..\Components\ #
#                          stack\sapi\" -I "C:\Texas                          #
#                          Instruments\ZStack-CC2530-2.5.1a\Projects\zstack\S #
#                          amples\ParkWay\CC2530DB\..\..\..\..\..\Components\ #
#                          stack\sec\" -I "C:\Texas                           #
#                          Instruments\ZStack-CC2530-2.5.1a\Projects\zstack\S #
#                          amples\ParkWay\CC2530DB\..\..\..\..\..\Components\ #
#                          stack\sys\" -I "C:\Texas                           #
#                          Instruments\ZStack-CC2530-2.5.1a\Projects\zstack\S #
#                          amples\ParkWay\CC2530DB\..\..\..\..\..\Components\ #
#                          stack\zdo\" -I "C:\Texas                           #
#                          Instruments\ZStack-CC2530-2.5.1a\Projects\zstack\S #
#                          amples\ParkWay\CC2530DB\..\..\..\..\..\Components\ #
#                          zmac\" -I "C:\Texas Instruments\ZStack-CC2530-2.5. #
#                          1a\Projects\zstack\Samples\ParkWay\CC2530DB\..\..\ #
#                          ..\..\..\Components\zmac\f8w\" -Ohz                #
#                          --require_prototypes                               #
#    List file          =  C:\Texas Instruments\ZStack-CC2530-2.5.1a\Projects #
#                          \zstack\Samples\ParkWay\CC2530DB\CoordinatorEB\Lis #
#                          t\MT_AF.lst                                        #
#    Object file        =  C:\Texas Instruments\ZStack-CC2530-2.5.1a\Projects #
#                          \zstack\Samples\ParkWay\CC2530DB\CoordinatorEB\Obj #
#                          \MT_AF.r51                                         #
#                                                                             #
#                                                                             #
###############################################################################

C:\Texas Instruments\ZStack-CC2530-2.5.1a\Components\mt\MT_AF.c
      1          /**************************************************************************************************
      2            Filename:       MT_AF.c
      3            Revised:        $Date: 2011-05-27 16:00:27 -0700 (Fri, 27 May 2011) $
      4            Revision:       $Revision: 26145 $
      5          
      6          
      7            Description:    MonitorTest functions for the AF layer.
      8          
      9          
     10            Copyright 2007-2011 Texas Instruments Incorporated. All rights reserved.
     11          
     12            IMPORTANT: Your use of this Software is limited to those specific rights
     13            granted under the terms of a software license agreement between the user
     14            who downloaded the software, his/her employer (which must be your employer)
     15            and Texas Instruments Incorporated (the "License").  You may not use this
     16            Software unless you agree to abide by the terms of the License. The License
     17            limits your use, and you acknowledge, that the Software may not be modified,
     18            copied or distributed unless embedded on a Texas Instruments microcontroller
     19            or used solely and exclusively in conjunction with a Texas Instruments radio
     20            frequency transceiver, which is integrated into your product.  Other than for
     21            the foregoing purpose, you may not use, reproduce, copy, prepare derivative
     22            works of, modify, distribute, perform, display or sell this Software and/or
     23            its documentation for any purpose.
     24          
     25            YOU FURTHER ACKNOWLEDGE AND AGREE THAT THE SOFTWARE AND DOCUMENTATION ARE
     26            PROVIDED “AS IS” WITHOUT WARRANTY OF ANY KIND, EITHER EXPRESS OR IMPLIED,
     27            INCLUDING WITHOUT LIMITATION, ANY WARRANTY OF MERCHANTABILITY, TITLE,
     28            NON-INFRINGEMENT AND FITNESS FOR A PARTICULAR PURPOSE. IN NO EVENT SHALL
     29            TEXAS INSTRUMENTS OR ITS LICENSORS BE LIABLE OR OBLIGATED UNDER CONTRACT,
     30            NEGLIGENCE, STRICT LIABILITY, CONTRIBUTION, BREACH OF WARRANTY, OR OTHER
     31            LEGAL EQUITABLE THEORY ANY DIRECT OR INDIRECT DAMAGES OR EXPENSES
     32            INCLUDING BUT NOT LIMITED TO ANY INCIDENTAL, SPECIAL, INDIRECT, PUNITIVE
     33            OR CONSEQUENTIAL DAMAGES, LOST PROFITS OR LOST DATA, COST OF PROCUREMENT
     34            OF SUBSTITUTE GOODS, TECHNOLOGY, SERVICES, OR ANY CLAIMS BY THIRD PARTIES
     35            (INCLUDING BUT NOT LIMITED TO ANY DEFENSE THEREOF), OR OTHER SIMILAR COSTS.
     36          
     37            Should you have any questions regarding your right to use this Software,
     38            contact Texas Instruments Incorporated at www.TI.com.
     39          
     40          **************************************************************************************************/
     41          
     42          /* ------------------------------------------------------------------------------------------------
     43           *                                          Includes
     44           * ------------------------------------------------------------------------------------------------
     45           */
     46          #include "ZComDef.h"
     47          #include "OSAL.h"
     48          #include "MT.h"
     49          #include "MT_AF.h"
     50          #include "MT_ZDO.h"
     51          #include "nwk.h"
     52          #include "OnBoard.h"
     53          #include "MT_UART.h"
     54          
     55          #if defined INTER_PAN
     56          #include "stub_aps.h"
     57          #endif
     58          
     59          /* ------------------------------------------------------------------------------------------------
     60           *                                          Constants
     61           * ------------------------------------------------------------------------------------------------
     62           */
     63          
     64          #if !defined MT_AF_EXEC_CNT
     65          #define MT_AF_EXEC_CNT  15
     66          #endif
     67          
     68          #if !defined MT_AF_EXEC_DLY
     69          #define MT_AF_EXEC_DLY  1000
     70          #endif
     71          
     72          /* ------------------------------------------------------------------------------------------------
     73           *                                           Typedefs
     74           * ------------------------------------------------------------------------------------------------
     75           */
     76          
     77          typedef struct
     78          {
     79            uint8 *data;
     80            afAddrType_t dstAddr;
     81            endPointDesc_t *epDesc;
     82            uint16 cId;
     83            uint16 dataLen;
     84            uint8 transId;
     85            uint8 txOpts;
     86            uint8 radius;
     87            uint8 tick;
     88          } mtAfDataReq_t;
     89          
     90          typedef struct _mtAfInMsgList_t
     91          {
     92            struct _mtAfInMsgList_t *next;
     93            uint8 *data;
     94            uint32 timestamp;         // Receipt timestamp from MAC.
     95            uint8 tick;
     96          } mtAfInMsgList_t;
     97          
     98          /* ------------------------------------------------------------------------------------------------
     99           *                                        Local Variables
    100           * ------------------------------------------------------------------------------------------------
    101           */
    102          

   \                                 In  segment XDATA_Z, align 1, keep-with-next
    103          mtAfInMsgList_t *pMtAfInMsgList = NULL;
   \                     pMtAfInMsgList:
   \   000000                DS 2
   \   000002                REQUIRE __INIT_XDATA_Z

   \                                 In  segment XDATA_Z, align 1, keep-with-next
    104          mtAfDataReq_t *pMtAfDataReq = NULL;
   \                     pMtAfDataReq:
   \   000000                DS 2
   \   000002                REQUIRE __INIT_XDATA_Z
    105          
    106          /* ------------------------------------------------------------------------------------------------
    107           *                                        Global Variables
    108           * ------------------------------------------------------------------------------------------------
    109           */
    110          
    111          #if defined ( MT_AF_CB_FUNC )
    112          uint16 _afCallbackSub;
    113          #endif
    114          
    115          /* ------------------------------------------------------------------------------------------------
    116           *                                        Local Functions
    117           * ------------------------------------------------------------------------------------------------
    118           */
    119          
    120          void MT_AfRegister(uint8 *pBuf);
    121          void MT_AfDataRequest(uint8 *pBuf);
    122          
    123          #if defined ( ZIGBEE_SOURCE_ROUTING )
    124          void MT_AfDataRequestSrcRtg(uint8 *pBuf);
    125          #endif
    126          
    127          #if defined INTER_PAN
    128          static void MT_AfInterPanCtl(uint8 *pBuf);
    129          #endif
    130          
    131          static void MT_AfDataRetrieve(uint8 *pBuf);
    132          static void MT_AfDataStore(uint8 *pBuf);
    133          static void MT_AfAPSF_ConfigSet(uint8 *pBuf);
    134          
    135          /**************************************************************************************************
    136           * @fn          MT_AfExec
    137           *
    138           * @brief       This function is invoked by an MT timer event.
    139           *
    140           * input parameters
    141           *
    142           * None.
    143           *
    144           * output parameters
    145           *
    146           * None.
    147           *
    148           * @return      None.
    149           **************************************************************************************************
    150           */

   \                                 In  segment BANKED_CODE, align 1, keep-with-next
    151          void MT_AfExec(void)
   \                     MT_AfExec:
    152          {
   \   000000   74F7         MOV     A,#-0x9
   \   000002   12....       LCALL   ?BANKED_ENTER_XDATA
   \   000005                ; Saved register size: 9
   \   000005                ; Auto size: 0
    153            mtAfInMsgList_t *pPrev, *pItem = pMtAfInMsgList;
   \                     ??MT_AfExec_0:
   \   000005   90....       MOV     DPTR,#pMtAfInMsgList
   \   000008   8008         SJMP    ??MT_AfExec_1
    154          
    155            while (pItem != NULL)
    156            {
    157              if (--(pItem->tick) == 0)
    158              {
    159                if (pMtAfInMsgList == pItem)
    160                {
    161                  pMtAfInMsgList = pItem->next;
    162                  (void)osal_mem_free(pItem);
    163                  pItem = pMtAfInMsgList;
    164                }
    165                else
    166                {
    167                  pPrev->next = pItem->next;
    168                  (void)osal_mem_free(pItem);
    169                  pItem = pPrev->next;
    170                }
    171              }
    172              else
    173              {
    174                pPrev = pItem;
   \                     ??MT_AfExec_2:
   \   00000A   EA           MOV     A,R2
   \   00000B   FE           MOV     R6,A
   \   00000C   EB           MOV     A,R3
   \   00000D   FF           MOV     R7,A
    175                pItem = pItem->next;
   \   00000E   8A82         MOV     DPL,R2
   \   000010   8B83         MOV     DPH,R3
    176              }
   \                     ??MT_AfExec_1:
   \   000012   12....       LCALL   ??Subroutine62_0 & 0xFFFF
   \                     ??CrossCallReturnLabel_126:
   \   000015   EA           MOV     A,R2
   \   000016   4B           ORL     A,R3
   \   000017   6038         JZ      ??MT_AfExec_3
   \   000019   EA           MOV     A,R2
   \   00001A   2408         ADD     A,#0x8
   \   00001C   F582         MOV     DPL,A
   \   00001E   E4           CLR     A
   \   00001F   3B           ADDC    A,R3
   \   000020   F583         MOV     DPH,A
   \   000022   E0           MOVX    A,@DPTR
   \   000023   14           DEC     A
   \   000024   F0           MOVX    @DPTR,A
   \   000025   70E3         JNZ     ??MT_AfExec_2
   \   000027   12....       LCALL   ?Subroutine22 & 0xFFFF
   \                     ??CrossCallReturnLabel_107:
   \   00002A   EA           MOV     A,R2
   \   00002B   68           XRL     A,R0
   \   00002C   7002         JNZ     ??MT_AfExec_4
   \   00002E   EB           MOV     A,R3
   \   00002F   69           XRL     A,R1
   \                     ??MT_AfExec_4:
   \   000030   8A82         MOV     DPL,R2
   \   000032   8B83         MOV     DPH,R3
   \   000034   7008         JNZ     ??MT_AfExec_5
   \   000036   12....       LCALL   ?Subroutine16 & 0xFFFF
   \                     ??CrossCallReturnLabel_20:
   \   000039                ; Setup parameters for call to function osal_mem_free
   \   000039   12....       LCALL   ??osal_mem_free?relay; Banked call to: osal_mem_free
   \   00003C   80C7         SJMP    ??MT_AfExec_0
   \                     ??MT_AfExec_5:
   \   00003E   12....       LCALL   ??Subroutine57_0 & 0xFFFF
   \                     ??CrossCallReturnLabel_106:
   \   000041   8E82         MOV     DPL,R6
   \   000043   8F83         MOV     DPH,R7
   \   000045   12....       LCALL   ?Subroutine37 & 0xFFFF
   \                     ??CrossCallReturnLabel_65:
   \   000048                ; Setup parameters for call to function osal_mem_free
   \   000048   12....       LCALL   ??osal_mem_free?relay; Banked call to: osal_mem_free
   \   00004B   8E82         MOV     DPL,R6
   \   00004D   8F83         MOV     DPH,R7
   \   00004F   80C1         SJMP    ??MT_AfExec_1
    177            }
    178          
    179            if (pMtAfDataReq != NULL)
   \                     ??MT_AfExec_3:
   \   000051   12....       LCALL   ?Subroutine3 & 0xFFFF
   \                     ??CrossCallReturnLabel_163:
   \   000054   601A         JZ      ??MT_AfExec_6
    180            {
    181              if (--(pMtAfDataReq->tick) == 0)
   \   000056   E0           MOVX    A,@DPTR
   \   000057   C8           XCH     A,R0
   \   000058   12....       LCALL   ?Subroutine48 & 0xFFFF
   \                     ??CrossCallReturnLabel_89:
   \   00005B   E0           MOVX    A,@DPTR
   \   00005C   14           DEC     A
   \   00005D   12....       LCALL   ?Subroutine17 & 0xFFFF
   \                     ??CrossCallReturnLabel_23:
   \   000060   E0           MOVX    A,@DPTR
   \   000061   700D         JNZ     ??MT_AfExec_6
    182              {
    183                (void)osal_mem_free(pMtAfDataReq);
   \   000063                ; Setup parameters for call to function osal_mem_free
   \   000063   12....       LCALL   ?Subroutine10 & 0xFFFF
   \                     ??CrossCallReturnLabel_132:
   \   000066   12....       LCALL   ??osal_mem_free?relay; Banked call to: osal_mem_free
    184                pMtAfDataReq = NULL;
   \   000069   90....       MOV     DPTR,#pMtAfDataReq
   \   00006C   E4           CLR     A
   \   00006D   F0           MOVX    @DPTR,A
   \   00006E   A3           INC     DPTR
   \   00006F   F0           MOVX    @DPTR,A
    185              }
    186            }
    187          
    188            if ((pMtAfInMsgList != NULL) || (pMtAfDataReq != NULL))
   \                     ??MT_AfExec_6:
   \   000070   90....       MOV     DPTR,#pMtAfInMsgList
   \   000073   12....       LCALL   ??Subroutine65_0 & 0xFFFF
   \                     ??CrossCallReturnLabel_156:
   \   000076   7005         JNZ     ??MT_AfExec_7
   \   000078   12....       LCALL   ?Subroutine3 & 0xFFFF
   \                     ??CrossCallReturnLabel_164:
   \   00007B   601F         JZ      ??MT_AfExec_8
    189            {
    190              if (ZSuccess != osal_start_timerEx(MT_TaskID, MT_AF_EXEC_EVT, MT_AF_EXEC_DLY))
   \                     ??MT_AfExec_7:
   \   00007D                ; Setup parameters for call to function osal_start_timerEx
   \   00007D   7CE8         MOV     R4,#-0x18
   \   00007F   7D03         MOV     R5,#0x3
   \   000081   7A08         MOV     R2,#0x8
   \   000083   7B00         MOV     R3,#0x0
   \   000085   90....       MOV     DPTR,#MT_TaskID
   \   000088   E0           MOVX    A,@DPTR
   \   000089   F9           MOV     R1,A
   \   00008A   12....       LCALL   ??osal_start_timerEx?relay; Banked call to: osal_start_timerEx
   \   00008D   E9           MOV     A,R1
   \   00008E   600C         JZ      ??MT_AfExec_8
    191              {
    192                osal_set_event(MT_TaskID, MT_AF_EXEC_EVT);
   \   000090                ; Setup parameters for call to function osal_set_event
   \   000090   7A08         MOV     R2,#0x8
   \   000092   7B00         MOV     R3,#0x0
   \   000094   90....       MOV     DPTR,#MT_TaskID
   \   000097   E0           MOVX    A,@DPTR
   \   000098   F9           MOV     R1,A
   \   000099   12....       LCALL   ??osal_set_event?relay; Banked call to: osal_set_event
    193              }
    194            }
    195          }
   \                     ??MT_AfExec_8:
   \   00009C                REQUIRE ?Subroutine0
   \   00009C                ; // Fall through to label ?Subroutine0

   \                                 In  segment BANKED_CODE, align 1, keep-with-next
   \                     ?Subroutine0:
   \   000000   7F01         MOV     R7,#0x1
   \   000002   02....       LJMP    ?BANKED_LEAVE_XDATA

   \                                 In  segment BANKED_CODE, align 1, keep-with-next
   \                     ?Subroutine17:
   \   000000   F0           MOVX    @DPTR,A
   \   000001   12....       LCALL   ?Subroutine41 & 0xFFFF
   \                     ??CrossCallReturnLabel_144:
   \   000004   12....       LCALL   ?Subroutine48 & 0xFFFF
   \                     ??CrossCallReturnLabel_90:
   \   000007   22           RET

   \                                 In  segment BANKED_CODE, align 1, keep-with-next
   \                     ?Subroutine48:
   \   000000   2417         ADD     A,#0x17
   \   000002   F582         MOV     DPL,A
   \   000004   E4           CLR     A
   \   000005   38           ADDC    A,R0
   \   000006   F583         MOV     DPH,A
   \   000008   22           RET

   \                                 In  segment BANKED_CODE, align 1, keep-with-next
   \                     ?Subroutine41:
   \   000000   90....       MOV     DPTR,#pMtAfDataReq
   \   000003                REQUIRE ??Subroutine54_0
   \   000003                ; // Fall through to label ??Subroutine54_0

   \                                 In  segment BANKED_CODE, align 1, keep-with-next
   \                     ??Subroutine54_0:
   \   000000   E0           MOVX    A,@DPTR
   \   000001   F8           MOV     R0,A
   \   000002   A3           INC     DPTR
   \   000003   E0           MOVX    A,@DPTR
   \   000004   C8           XCH     A,R0
   \   000005   22           RET

   \                                 In  segment BANKED_CODE, align 1, keep-with-next
   \                     ?Subroutine37:
   \   000000   E8           MOV     A,R0
   \   000001   F0           MOVX    @DPTR,A
   \   000002   A3           INC     DPTR
   \   000003   E9           MOV     A,R1
   \   000004   F0           MOVX    @DPTR,A
   \   000005   22           RET

   \                                 In  segment BANKED_CODE, align 1, keep-with-next
   \                     ?Subroutine22:
   \   000000   90....       MOV     DPTR,#pMtAfInMsgList
   \   000003                REQUIRE ??Subroutine57_0
   \   000003                ; // Fall through to label ??Subroutine57_0

   \                                 In  segment BANKED_CODE, align 1, keep-with-next
   \                     ??Subroutine57_0:
   \   000000   12....       LCALL   ?Subroutine45 & 0xFFFF
   \                     ??CrossCallReturnLabel_170:
   \   000003   22           RET

   \                                 In  segment BANKED_CODE, align 1, keep-with-next
   \                     ?Subroutine16:
   \   000000   12....       LCALL   ?Subroutine45 & 0xFFFF
   \                     ??CrossCallReturnLabel_169:
   \   000003   90....       MOV     DPTR,#pMtAfInMsgList
   \   000006   E8           MOV     A,R0
   \   000007   F0           MOVX    @DPTR,A
   \   000008   A3           INC     DPTR
   \   000009   E9           MOV     A,R1
   \   00000A   F0           MOVX    @DPTR,A
   \   00000B   22           RET

   \                                 In  segment BANKED_CODE, align 1, keep-with-next
   \                     ?Subroutine10:
   \   000000   90....       MOV     DPTR,#pMtAfDataReq
   \   000003                REQUIRE ??Subroutine62_0
   \   000003                ; // Fall through to label ??Subroutine62_0

   \                                 In  segment BANKED_CODE, align 1, keep-with-next
   \                     ??Subroutine62_0:
   \   000000   E0           MOVX    A,@DPTR
   \   000001   FA           MOV     R2,A
   \   000002   A3           INC     DPTR
   \   000003   E0           MOVX    A,@DPTR
   \   000004   FB           MOV     R3,A
   \   000005   22           RET

   \                                 In  segment BANKED_CODE, align 1, keep-with-next
   \                     ?Subroutine45:
   \   000000   E0           MOVX    A,@DPTR
   \   000001   F8           MOV     R0,A
   \   000002   A3           INC     DPTR
   \   000003   E0           MOVX    A,@DPTR
   \   000004   F9           MOV     R1,A
   \   000005   22           RET

   \                                 In  segment BANKED_CODE, align 1, keep-with-next
   \                     ?Subroutine3:
   \   000000   90....       MOV     DPTR,#pMtAfDataReq
   \   000003                REQUIRE ??Subroutine65_0
   \   000003                ; // Fall through to label ??Subroutine65_0

   \                                 In  segment BANKED_CODE, align 1, keep-with-next
   \                     ??Subroutine65_0:
   \   000000   12....       LCALL   ?Subroutine45 & 0xFFFF
   \                     ??CrossCallReturnLabel_171:
   \   000003   E8           MOV     A,R0
   \   000004   49           ORL     A,R1
   \   000005   22           RET
    196          
    197          /***************************************************************************************************
    198           * @fn      MT_AfCommandProcessing
    199           *
    200           * @brief   Process all the AF commands that are issued by test tool
    201           *
    202           * @param   pBuf - pointer to the received buffer
    203           *
    204           * @return  status
    205           ***************************************************************************************************/

   \                                 In  segment BANKED_CODE, align 1, keep-with-next
    206          uint8 MT_AfCommandProcessing(uint8 *pBuf)
   \                     MT_AfCommandProcessing:
    207          {
   \   000000   74F7         MOV     A,#-0x9
   \   000002   12....       LCALL   ?BANKED_ENTER_XDATA
   \   000005                ; Saved register size: 9
   \   000005                ; Auto size: 3
   \   000005   74FD         MOV     A,#-0x3
   \   000007   12....       LCALL   ?ALLOC_XSTACK8
   \   00000A   EA           MOV     A,R2
   \   00000B   F8           MOV     R0,A
   \   00000C   EB           MOV     A,R3
   \   00000D   F9           MOV     R1,A
    208            uint8 status = MT_RPC_SUCCESS;
   \   00000E   7E00         MOV     R6,#0x0
    209          
    210            switch (pBuf[MT_RPC_POS_CMD1])
   \   000010   8882         MOV     DPL,R0
   \   000012   8983         MOV     DPH,R1
   \   000014   A3           INC     DPTR
   \   000015   A3           INC     DPTR
   \   000016   E0           MOVX    A,@DPTR
   \   000017   6015         JZ      ??MT_AfCommandProcessing_0
   \   000019   14           DEC     A
   \   00001A   6017         JZ      ??MT_AfCommandProcessing_1
   \   00001C   14           DEC     A
   \   00001D   6014         JZ      ??MT_AfCommandProcessing_1
   \   00001F   14           DEC     A
   \   000020   6016         JZ      ??MT_AfCommandProcessing_2
   \   000022   24F2         ADD     A,#-0xe
   \   000024   601C         JZ      ??MT_AfCommandProcessing_3
   \   000026   14           DEC     A
   \   000027   6014         JZ      ??MT_AfCommandProcessing_4
   \   000029   14           DEC     A
   \   00002A   601B         JZ      ??MT_AfCommandProcessing_5
   \   00002C   8068         SJMP    ??MT_AfCommandProcessing_6
    211            {
    212              case MT_AF_REGISTER:
    213                MT_AfRegister(pBuf);
   \                     ??MT_AfCommandProcessing_0:
   \   00002E                ; Setup parameters for call to function MT_AfRegister
   \   00002E   12....       LCALL   ??MT_AfRegister?relay; Banked call to: MT_AfRegister
    214                break;
   \   000031   8065         SJMP    ??MT_AfCommandProcessing_7
    215          
    216              case MT_AF_DATA_REQUEST:
    217              case MT_AF_DATA_REQUEST_EXT:
    218                MT_AfDataRequest(pBuf);
   \                     ??MT_AfCommandProcessing_1:
   \   000033                ; Setup parameters for call to function MT_AfDataRequest
   \   000033   12....       LCALL   ??MT_AfDataRequest?relay; Banked call to: MT_AfDataRequest
    219                break;
   \   000036   8060         SJMP    ??MT_AfCommandProcessing_7
    220          
    221          #if defined ( ZIGBEE_SOURCE_ROUTING )
    222              case MT_AF_DATA_REQUEST_SRCRTG:
    223                MT_AfDataRequestSrcRtg(pBuf);
   \                     ??MT_AfCommandProcessing_2:
   \   000038                ; Setup parameters for call to function MT_AfDataRequestSrcRtg
   \   000038   12....       LCALL   ??MT_AfDataRequestSrcRtg?relay; Banked call to: MT_AfDataRequestSrcRtg
    224                break;
   \   00003B   805B         SJMP    ??MT_AfCommandProcessing_7
    225          #endif
    226          
    227          #if defined INTER_PAN
    228              case MT_AF_INTER_PAN_CTL:
    229                MT_AfInterPanCtl(pBuf);
    230                break;
    231          #endif
    232          
    233              case MT_AF_DATA_RETRIEVE:
    234                MT_AfDataRetrieve(pBuf);
   \                     ??MT_AfCommandProcessing_4:
   \   00003D                ; Setup parameters for call to function MT_AfDataRetrieve
   \   00003D   12....       LCALL   ??MT_AfDataRetrieve?relay; Banked call to: MT_AfDataRetrieve
    235                break;
   \   000040   8056         SJMP    ??MT_AfCommandProcessing_7
    236          
    237              case MT_AF_DATA_STORE:
    238                MT_AfDataStore(pBuf);
   \                     ??MT_AfCommandProcessing_3:
   \   000042                ; Setup parameters for call to function MT_AfDataStore
   \   000042   12....       LCALL   ??MT_AfDataStore?relay; Banked call to: MT_AfDataStore
    239                break;
   \   000045   8051         SJMP    ??MT_AfCommandProcessing_7
    240          
    241              case MT_AF_APSF_CONFIG_SET:
    242                MT_AfAPSF_ConfigSet(pBuf);
   \                     ??MT_AfCommandProcessing_5:
   \   000047   8882         MOV     DPL,R0
   \   000049   8983         MOV     DPH,R1
   \   00004B   A3           INC     DPTR
   \   00004C   A3           INC     DPTR
   \   00004D   A3           INC     DPTR
   \   00004E   A3           INC     DPTR
   \   00004F   E0           MOVX    A,@DPTR
   \   000050   C0E0         PUSH    A
   \   000052   7401         MOV     A,#0x1
   \   000054   12....       LCALL   ?XSTACK_DISP0_8
   \   000057   D0E0         POP     A
   \   000059   F0           MOVX    @DPTR,A
   \   00005A   8882         MOV     DPL,R0
   \   00005C   8983         MOV     DPH,R1
   \   00005E   A3           INC     DPTR
   \   00005F   A3           INC     DPTR
   \   000060   A3           INC     DPTR
   \   000061   A3           INC     DPTR
   \   000062   A3           INC     DPTR
   \   000063   E0           MOVX    A,@DPTR
   \   000064   C0E0         PUSH    A
   \   000066   7402         MOV     A,#0x2
   \   000068   12....       LCALL   ?XSTACK_DISP0_8
   \   00006B   D0E0         POP     A
   \   00006D   F0           MOVX    @DPTR,A
   \   00006E                ; Setup parameters for call to function afAPSF_ConfigSet
   \   00006E   7401         MOV     A,#0x1
   \   000070   12....       LCALL   ?XSTACK_DISP101_8
   \   000073   8882         MOV     DPL,R0
   \   000075   8983         MOV     DPH,R1
   \   000077   A3           INC     DPTR
   \   000078   A3           INC     DPTR
   \   000079   A3           INC     DPTR
   \   00007A   E0           MOVX    A,@DPTR
   \   00007B   F9           MOV     R1,A
   \   00007C   12....       LCALL   ??afAPSF_ConfigSet?relay; Banked call to: afAPSF_ConfigSet
   \   00007F   E9           MOV     A,R1
   \   000080   85..82       MOV     DPL,?XSP + 0
   \   000083   85..83       MOV     DPH,?XSP + 1
   \   000086   F0           MOVX    @DPTR,A
   \   000087                ; Setup parameters for call to function MT_BuildAndSendZToolResponse
   \   000087   AC..         MOV     R4,?XSP + 0
   \   000089   AD..         MOV     R5,?XSP + 1
   \   00008B   7B01         MOV     R3,#0x1
   \   00008D   7A13         MOV     R2,#0x13
   \   00008F   7964         MOV     R1,#0x64
   \   000091   12....       LCALL   ??MT_BuildAndSendZToolResponse?relay; Banked call to: MT_BuildAndSendZToolResponse
    243                break;
   \   000094   8002         SJMP    ??MT_AfCommandProcessing_7
    244          
    245              default:
    246                status = MT_RPC_ERR_COMMAND_ID;
   \                     ??MT_AfCommandProcessing_6:
   \   000096   0E           INC     R6
   \   000097   0E           INC     R6
    247                break;
    248            }
    249          
    250            return status;
   \                     ??MT_AfCommandProcessing_7:
   \   000098   EE           MOV     A,R6
   \   000099   F9           MOV     R1,A
   \   00009A   7403         MOV     A,#0x3
   \   00009C   12....       LCALL   ?DEALLOC_XSTACK8
   \   00009F   02....       LJMP    ?Subroutine0 & 0xFFFF
    251          }
    252          
    253          /***************************************************************************************************
    254           * @fn      MT_AfRegister
    255           *
    256           * @brief   Process AF Register command
    257           *
    258           * @param   pBuf - pointer to the received buffer
    259           *
    260           * @return  none
    261           ***************************************************************************************************/

   \                                 In  segment BANKED_CODE, align 1, keep-with-next
    262          void MT_AfRegister(uint8 *pBuf)
   \                     MT_AfRegister:
    263          {
   \   000000                REQUIRE ?V0
   \   000000                REQUIRE ?V2
   \   000000                REQUIRE ?V3
   \   000000                REQUIRE ?V4
   \   000000                REQUIRE ?V5
   \   000000   74F2         MOV     A,#-0xe
   \   000002   12....       LCALL   ?BANKED_ENTER_XDATA
   \   000005                ; Saved register size: 14
   \   000005                ; Auto size: 1
   \   000005   74FF         MOV     A,#-0x1
   \   000007   12....       LCALL   ?ALLOC_XSTACK8
   \   00000A   8A..         MOV     ?V2,R2
   \   00000C   8B..         MOV     ?V3,R3
    264            uint8 cmdId;
    265            uint8 retValue = ZMemError;
   \   00000E   85..82       MOV     DPL,?XSP + 0
   \   000011   85..83       MOV     DPH,?XSP + 1
   \   000014   7410         MOV     A,#0x10
   \   000016   12....       LCALL   ?Subroutine31 & 0xFFFF
    266            endPointDesc_t *epDesc;
    267          
    268            /* parse header */
    269            cmdId = pBuf[MT_RPC_POS_CMD1];
   \                     ??CrossCallReturnLabel_48:
   \   000019   F5..         MOV     ?V0,A
    270            pBuf += MT_RPC_FRAME_HDR_SZ;
    271          
    272            epDesc = (endPointDesc_t *)osal_mem_alloc(sizeof(endPointDesc_t));
   \   00001B                ; Setup parameters for call to function osal_mem_alloc
   \   00001B   7A06         MOV     R2,#0x6
   \   00001D   7B00         MOV     R3,#0x0
   \   00001F   12....       LCALL   ??osal_mem_alloc?relay; Banked call to: osal_mem_alloc
   \   000022   8A..         MOV     ?V4,R2
   \   000024   8B..         MOV     ?V5,R3
   \   000026   AE..         MOV     R6,?V4
   \   000028   AF..         MOV     R7,?V5
    273            if ( epDesc )
   \   00002A   EE           MOV     A,R6
   \   00002B   4F           ORL     A,R7
   \   00002C   603F         JZ      ??MT_AfRegister_0
    274            {
    275              epDesc->task_id = &MT_TaskID;
   \   00002E   8E82         MOV     DPL,R6
   \   000030   8F83         MOV     DPH,R7
   \   000032   A3           INC     DPTR
   \   000033   74..         MOV     A,#MT_TaskID & 0xff
   \   000035   F0           MOVX    @DPTR,A
   \   000036   A3           INC     DPTR
   \   000037   74..         MOV     A,#(MT_TaskID >> 8) & 0xff
   \   000039   F0           MOVX    @DPTR,A
    276              retValue = MT_BuildEndpointDesc( pBuf, epDesc );
   \   00003A                ; Setup parameters for call to function MT_BuildEndpointDesc
   \   00003A   EE           MOV     A,R6
   \   00003B   FC           MOV     R4,A
   \   00003C   EF           MOV     A,R7
   \   00003D   FD           MOV     R5,A
   \   00003E   E5..         MOV     A,?V2
   \   000040   2403         ADD     A,#0x3
   \   000042   FA           MOV     R2,A
   \   000043   E4           CLR     A
   \   000044   35..         ADDC    A,?V3
   \   000046   FB           MOV     R3,A
   \   000047   12....       LCALL   ??MT_BuildEndpointDesc?relay; Banked call to: MT_BuildEndpointDesc
   \   00004A   E9           MOV     A,R1
   \   00004B   85..82       MOV     DPL,?XSP + 0
   \   00004E   85..83       MOV     DPH,?XSP + 1
   \   000051   F0           MOVX    @DPTR,A
    277              if ( retValue == ZSuccess )
   \   000052   700F         JNZ     ??MT_AfRegister_1
    278              {
    279                retValue = afRegister( epDesc );
   \   000054                ; Setup parameters for call to function afRegister
   \   000054   EE           MOV     A,R6
   \   000055   FA           MOV     R2,A
   \   000056   EF           MOV     A,R7
   \   000057   FB           MOV     R3,A
   \   000058   12....       LCALL   ??afRegister?relay   ; Banked call to: afRegister
   \   00005B   E9           MOV     A,R1
   \   00005C   85..82       MOV     DPL,?XSP + 0
   \   00005F   85..83       MOV     DPH,?XSP + 1
   \   000062   F0           MOVX    @DPTR,A
    280              }
    281          
    282              if ( retValue != ZSuccess )
   \                     ??MT_AfRegister_1:
   \   000063   E0           MOVX    A,@DPTR
   \   000064   6007         JZ      ??MT_AfRegister_0
    283              {
    284                osal_mem_free( epDesc );
   \   000066                ; Setup parameters for call to function osal_mem_free
   \   000066   EE           MOV     A,R6
   \   000067   FA           MOV     R2,A
   \   000068   EF           MOV     A,R7
   \   000069   FB           MOV     R3,A
   \   00006A   12....       LCALL   ??osal_mem_free?relay; Banked call to: osal_mem_free
    285              }
    286            }
    287          
    288            /* Build and send back the response */
    289            MT_BuildAndSendZToolResponse(((uint8)MT_RPC_CMD_SRSP | (uint8)MT_RPC_SYS_AF), cmdId, 1, &retValue);
   \                     ??MT_AfRegister_0:
   \   00006D                ; Setup parameters for call to function MT_BuildAndSendZToolResponse
   \   00006D   AC..         MOV     R4,?XSP + 0
   \   00006F   AD..         MOV     R5,?XSP + 1
   \   000071   7B01         MOV     R3,#0x1
   \   000073   AA..         MOV     R2,?V0
   \   000075                REQUIRE ?Subroutine1
   \   000075                ; // Fall through to label ?Subroutine1
    290          }

   \                                 In  segment BANKED_CODE, align 1, keep-with-next
   \                     ?Subroutine1:
   \   000000   7964         MOV     R1,#0x64
   \   000002   12....       LCALL   ??MT_BuildAndSendZToolResponse?relay; Banked call to: MT_BuildAndSendZToolResponse
   \   000005   7401         MOV     A,#0x1
   \   000007   12....       LCALL   ?DEALLOC_XSTACK8
   \   00000A   7F06         MOV     R7,#0x6
   \   00000C   02....       LJMP    ?BANKED_LEAVE_XDATA

   \                                 In  segment BANKED_CODE, align 1, keep-with-next
   \                     ?Subroutine31:
   \   000000   12....       LCALL   ?Subroutine47 & 0xFFFF
   \                     ??CrossCallReturnLabel_87:
   \   000003   A3           INC     DPTR
   \   000004   E0           MOVX    A,@DPTR
   \   000005   22           RET

   \                                 In  segment BANKED_CODE, align 1, keep-with-next
   \                     ?Subroutine47:
   \   000000   F0           MOVX    @DPTR,A
   \   000001   8A82         MOV     DPL,R2
   \   000003   8B83         MOV     DPH,R3
   \   000005   A3           INC     DPTR
   \   000006   22           RET
    291          
    292          /***************************************************************************************************
    293           * @fn      MT_AfDataRequest
    294           *
    295           * @brief   Process AF Register command
    296           *
    297           * @param   pBuf - pointer to the received buffer
    298           *
    299           * @return  none
    300           ***************************************************************************************************/

   \                                 In  segment BANKED_CODE, align 1, keep-with-next
    301          void MT_AfDataRequest(uint8 *pBuf)
   \                     MT_AfDataRequest:
    302          {
   \   000000                REQUIRE ?V0
   \   000000                REQUIRE ?V1
   \   000000                REQUIRE ?V2
   \   000000                REQUIRE ?V3
   \   000000                REQUIRE ?V4
   \   000000                REQUIRE ?V5
   \   000000                REQUIRE ?V6
   \   000000                REQUIRE ?V7
   \   000000   74F0         MOV     A,#-0x10
   \   000002   12....       LCALL   ?BANKED_ENTER_XDATA
   \   000005                ; Saved register size: 16
   \   000005                ; Auto size: 17
   \   000005   74EF         MOV     A,#-0x11
   \   000007   12....       LCALL   ?ALLOC_XSTACK8
   \   00000A   8B..         MOV     ?V1,R3
    303            #define MT_AF_REQ_MSG_LEN  10
    304            #define MT_AF_REQ_MSG_EXT  10
    305          
    306            endPointDesc_t *epDesc;
    307            afAddrType_t dstAddr;
    308            cId_t cId;
    309            uint8 transId, txOpts, radius;
    310            uint8 cmd0, cmd1;
    311            uint8 retValue = ZFailure;
   \   00000C   85..82       MOV     DPL,?XSP + 0
   \   00000F   85..83       MOV     DPH,?XSP + 1
   \   000012   7401         MOV     A,#0x1
   \   000014   12....       LCALL   ?Subroutine47 & 0xFFFF
    312            uint16 dataLen, tempLen;
    313          
    314            /* Parse header */
    315            cmd0 = pBuf[MT_RPC_POS_CMD0];
   \                     ??CrossCallReturnLabel_86:
   \   000017   E0           MOVX    A,@DPTR
   \   000018   C0E0         PUSH    A
   \   00001A   7404         MOV     A,#0x4
   \   00001C   12....       LCALL   ?XSTACK_DISP0_8
   \   00001F   D0E0         POP     A
   \   000021   12....       LCALL   ?Subroutine31 & 0xFFFF
    316            cmd1 = pBuf[MT_RPC_POS_CMD1];
   \                     ??CrossCallReturnLabel_49:
   \   000024   F5..         MOV     ?V7,A
    317            pBuf += MT_RPC_FRAME_HDR_SZ;
   \   000026   EA           MOV     A,R2
   \   000027   2403         ADD     A,#0x3
   \   000029   F5..         MOV     ?V0,A
   \   00002B   5002         JNC     ??MT_AfDataRequest_0
   \   00002D   05..         INC     ?V1
    318          
    319            if (cmd1 == MT_AF_DATA_REQUEST_EXT)
   \                     ??MT_AfDataRequest_0:
   \   00002F   7402         MOV     A,#0x2
   \   000031   65..         XRL     A,?V7
   \   000033   706C         JNZ     ??MT_AfDataRequest_1
    320            {
    321              dstAddr.addrMode = (afAddrMode_t)*pBuf++;
   \   000035   85..82       MOV     DPL,?V0
   \   000038   85..83       MOV     DPH,?V1
   \   00003B   E0           MOVX    A,@DPTR
   \   00003C   F8           MOV     R0,A
   \   00003D   740D         MOV     A,#0xd
   \   00003F   12....       LCALL   ?XSTACK_DISP0_8
   \   000042   E8           MOV     A,R0
   \   000043   12....       LCALL   ?Subroutine33 & 0xFFFF
    322          
    323              if (dstAddr.addrMode == afAddr64Bit)
   \                     ??CrossCallReturnLabel_54:
   \   000046   7403         MOV     A,#0x3
   \   000048   68           XRL     A,R0
   \   000049   7020         JNZ     ??MT_AfDataRequest_2
    324              {
    325                (void)osal_memcpy(dstAddr.addr.extAddr, pBuf, Z_EXTADDR_LEN);
   \   00004B                ; Setup parameters for call to function osal_memcpy
   \   00004B   85....       MOV     ?V4,?V0
   \   00004E   85....       MOV     ?V5,?V1
   \   000051   75..00       MOV     ?V6,#0x0
   \   000054   78..         MOV     R0,#?V4
   \   000056   12....       LCALL   ?PUSH_XSTACK_I_THREE
   \   000059   7C08         MOV     R4,#0x8
   \   00005B   7D00         MOV     R5,#0x0
   \   00005D   EC           MOV     A,R4
   \   00005E   12....       LCALL   ?XSTACK_DISP101_8
   \   000061   12....       LCALL   ??osal_memcpy?relay  ; Banked call to: osal_memcpy
   \   000064   7403         MOV     A,#0x3
   \   000066   12....       LCALL   ?DEALLOC_XSTACK8
   \   000069   8009         SJMP    ??CrossCallReturnLabel_66
    326              }
    327              else
    328              {
    329                dstAddr.addr.shortAddr = BUILD_UINT16(pBuf[0], pBuf[1]);
   \                     ??MT_AfDataRequest_2:
   \   00006B   12....       LCALL   ?Subroutine25 & 0xFFFF
    330              }
   \                     ??CrossCallReturnLabel_34:
   \   00006E   12....       LCALL   ?XSTACK_DISP0_8
   \   000071   12....       LCALL   ?Subroutine37 & 0xFFFF
    331              pBuf += Z_EXTADDR_LEN;
   \                     ??CrossCallReturnLabel_66:
   \   000074   E5..         MOV     A,?V0
   \   000076   2408         ADD     A,#0x8
   \   000078   F5..         MOV     ?V0,A
   \   00007A   5002         JNC     ??MT_AfDataRequest_3
   \   00007C   05..         INC     ?V1
    332          
    333              dstAddr.endPoint = *pBuf++;
   \                     ??MT_AfDataRequest_3:
   \   00007E   F582         MOV     DPL,A
   \   000080   85..83       MOV     DPH,?V1
   \   000083   E0           MOVX    A,@DPTR
   \   000084   C0E0         PUSH    A
   \   000086   740E         MOV     A,#0xe
   \   000088   12....       LCALL   ?XSTACK_DISP0_8
   \   00008B   D0E0         POP     A
   \   00008D   12....       LCALL   ?Subroutine32 & 0xFFFF
    334              dstAddr.panId = BUILD_UINT16(pBuf[0], pBuf[1]);
    335              pBuf += 2;
    336            }
   \                     ??CrossCallReturnLabel_52:
   \   000090   F9           MOV     R1,A
   \   000091   EA           MOV     A,R2
   \   000092   F8           MOV     R0,A
   \   000093   740F         MOV     A,#0xf
   \   000095   12....       LCALL   ?XSTACK_DISP0_8
   \   000098   12....       LCALL   ?Subroutine34 & 0xFFFF
   \                     ??CrossCallReturnLabel_57:
   \   00009B   5034         JNC     ??MT_AfDataRequest_4
   \   00009D   05..         INC     ?V1
   \   00009F   8030         SJMP    ??MT_AfDataRequest_4
    337            else
    338            {
    339              /* Destination address */
    340              dstAddr.addrMode = afAddr16Bit;
   \                     ??MT_AfDataRequest_1:
   \   0000A1   740D         MOV     A,#0xd
   \   0000A3   12....       LCALL   ?XSTACK_DISP0_8
   \   0000A6   12....       LCALL   ?Subroutine38 & 0xFFFF
    341              dstAddr.addr.shortAddr = BUILD_UINT16(pBuf[0], pBuf[1]);
   \                     ??CrossCallReturnLabel_97:
   \   0000A9   12....       LCALL   ?Subroutine25 & 0xFFFF
   \                     ??CrossCallReturnLabel_35:
   \   0000AC   12....       LCALL   ?XSTACK_DISP0_8
   \   0000AF   12....       LCALL   ?Subroutine34 & 0xFFFF
    342              pBuf += 2;
   \                     ??CrossCallReturnLabel_58:
   \   0000B2   5002         JNC     ??MT_AfDataRequest_5
   \   0000B4   05..         INC     ?V1
    343          
    344              /* Destination endpoint */
    345              dstAddr.endPoint = *pBuf++;
   \                     ??MT_AfDataRequest_5:
   \   0000B6   F582         MOV     DPL,A
   \   0000B8   85..83       MOV     DPH,?V1
   \   0000BB   E0           MOVX    A,@DPTR
   \   0000BC   C0E0         PUSH    A
   \   0000BE   740E         MOV     A,#0xe
   \   0000C0   12....       LCALL   ?XSTACK_DISP0_8
   \   0000C3   D0E0         POP     A
   \   0000C5   12....       LCALL   ?Subroutine33 & 0xFFFF
    346              dstAddr.panId = 0;
   \                     ??CrossCallReturnLabel_55:
   \   0000C8   740F         MOV     A,#0xf
   \   0000CA   12....       LCALL   ?XSTACK_DISP0_8
   \   0000CD   E4           CLR     A
   \   0000CE   F0           MOVX    @DPTR,A
   \   0000CF   A3           INC     DPTR
   \   0000D0   F0           MOVX    @DPTR,A
    347            }
    348          
    349            /* Source endpoint */
    350            epDesc = afFindEndPointDesc(*pBuf++);
   \                     ??MT_AfDataRequest_4:
   \   0000D1                ; Setup parameters for call to function afFindEndPointDesc
   \   0000D1   85..82       MOV     DPL,?V0
   \   0000D4   85..83       MOV     DPH,?V1
   \   0000D7   E0           MOVX    A,@DPTR
   \   0000D8   F9           MOV     R1,A
   \   0000D9   12....       LCALL   ??afFindEndPointDesc?relay; Banked call to: afFindEndPointDesc
   \   0000DC   7402         MOV     A,#0x2
   \   0000DE   12....       LCALL   ?XSTACK_DISP0_8
   \   0000E1   EA           MOV     A,R2
   \   0000E2   F0           MOVX    @DPTR,A
   \   0000E3   A3           INC     DPTR
   \   0000E4   EB           MOV     A,R3
   \   0000E5   12....       LCALL   ?Subroutine32 & 0xFFFF
    351          
    352            /* ClusterId */
    353            cId = BUILD_UINT16(pBuf[0], pBuf[1]);
   \                     ??CrossCallReturnLabel_53:
   \   0000E8   F8           MOV     R0,A
   \   0000E9   E4           CLR     A
   \   0000EA   C8           XCH     A,R0
   \   0000EB   F9           MOV     R1,A
   \   0000EC   EA           MOV     A,R2
   \   0000ED   28           ADD     A,R0
   \   0000EE   F5..         MOV     ?V4,A
   \   0000F0   E4           CLR     A
   \   0000F1   39           ADDC    A,R1
   \   0000F2   F5..         MOV     ?V5,A
    354            pBuf +=2;
   \   0000F4   E5..         MOV     A,?V0
   \   0000F6   2402         ADD     A,#0x2
   \   0000F8   F5..         MOV     ?V0,A
   \   0000FA   5002         JNC     ??MT_AfDataRequest_6
   \   0000FC   05..         INC     ?V1
    355          
    356            /* TransId */
    357            transId = *pBuf++;
   \                     ??MT_AfDataRequest_6:
   \   0000FE   F582         MOV     DPL,A
   \   000100   85..83       MOV     DPH,?V1
   \   000103   E0           MOVX    A,@DPTR
   \   000104   C0E0         PUSH    A
   \   000106   7401         MOV     A,#0x1
   \   000108   12....       LCALL   ?XSTACK_DISP0_8
   \   00010B   D0E0         POP     A
   \   00010D   12....       LCALL   ?Subroutine35 & 0xFFFF
    358          
    359            /* TxOption */
    360            txOpts = *pBuf++;
   \                     ??CrossCallReturnLabel_60:
   \   000110   F5..         MOV     ?V6,A
   \   000112   A3           INC     DPTR
    361          
    362            /* Radius */
    363            radius = *pBuf++;
   \   000113   E0           MOVX    A,@DPTR
   \   000114   F5..         MOV     ?V3,A
   \   000116   A3           INC     DPTR
   \   000117   8582..       MOV     ?V0,DPL
   \   00011A   8583..       MOV     ?V1,DPH
    364          
    365            /* Length */
    366            if (cmd1 == MT_AF_DATA_REQUEST_EXT)
   \   00011D   7402         MOV     A,#0x2
   \   00011F   65..         XRL     A,?V7
   \   000121   7016         JNZ     ??MT_AfDataRequest_7
    367            {
    368              dataLen = BUILD_UINT16(pBuf[0], pBuf[1]);
   \   000123   12....       LCALL   ?Subroutine9 & 0xFFFF
    369              tempLen = dataLen + MT_AF_REQ_MSG_LEN + MT_AF_REQ_MSG_EXT;
   \                     ??CrossCallReturnLabel_101:
   \   000126   EE           MOV     A,R6
   \   000127   2414         ADD     A,#0x14
   \   000129   F8           MOV     R0,A
   \   00012A   E4           CLR     A
   \   00012B   3F           ADDC    A,R7
   \   00012C   F9           MOV     R1,A
    370              pBuf += 2;
   \   00012D   E5..         MOV     A,?V0
   \   00012F   2402         ADD     A,#0x2
   \   000131   F5..         MOV     ?V0,A
   \   000133   5016         JNC     ??MT_AfDataRequest_8
   \   000135   05..         INC     ?V1
   \   000137   8012         SJMP    ??MT_AfDataRequest_8
    371            }
    372            else
    373            {
    374              dataLen = *pBuf++;
   \                     ??MT_AfDataRequest_7:
   \   000139   E0           MOVX    A,@DPTR
   \   00013A   FE           MOV     R6,A
   \   00013B   7F00         MOV     R7,#0x0
   \   00013D   A3           INC     DPTR
   \   00013E   8582..       MOV     ?V0,DPL
   \   000141   8583..       MOV     ?V1,DPH
    375              tempLen = dataLen + MT_AF_REQ_MSG_LEN;
   \   000144   240A         ADD     A,#0xa
   \   000146   F8           MOV     R0,A
   \   000147   E4           CLR     A
   \   000148   3400         ADDC    A,#0x0
   \   00014A   F9           MOV     R1,A
    376            }
    377          
    378            if ( epDesc == NULL )
   \                     ??MT_AfDataRequest_8:
   \   00014B   7402         MOV     A,#0x2
   \   00014D   12....       LCALL   ?XSTACK_DISP0_8
   \   000150   12....       LCALL   ??Subroutine62_0 & 0xFFFF
   \                     ??CrossCallReturnLabel_127:
   \   000153   EA           MOV     A,R2
   \   000154   4B           ORL     A,R3
   \   000155   6011         JZ      ??MT_AfDataRequest_9
    379            {
    380              retValue = afStatus_INVALID_PARAMETER;
    381            }
    382            else if (tempLen > (uint16)MT_RPC_DATA_MAX)
   \   000157   C3           CLR     C
   \   000158   E8           MOV     A,R0
   \   000159   94FB         SUBB    A,#-0x5
   \   00015B   E9           MOV     A,R1
   \   00015C   9400         SUBB    A,#0x0
   \   00015E   5003         JNC     $+5
   \   000160   02....       LJMP    ??MT_AfDataRequest_10 & 0xFFFF
    383            {
    384              if (pMtAfDataReq != NULL)
   \   000163   12....       LCALL   ?Subroutine3 & 0xFFFF
   \                     ??CrossCallReturnLabel_165:
   \   000166   600B         JZ      ??MT_AfDataRequest_11
    385              {
    386                retValue = afStatus_INVALID_PARAMETER;
   \                     ??MT_AfDataRequest_9:
   \   000168   85..82       MOV     DPL,?XSP + 0
   \   00016B   85..83       MOV     DPH,?XSP + 1
   \   00016E   7402         MOV     A,#0x2
   \   000170   02....       LJMP    ??MT_AfDataRequest_12 & 0xFFFF
    387              }
    388              else if ((pMtAfDataReq = osal_mem_alloc(sizeof(mtAfDataReq_t) + dataLen)) == NULL)
   \                     ??MT_AfDataRequest_11:
   \   000173                ; Setup parameters for call to function osal_mem_alloc
   \   000173   EE           MOV     A,R6
   \   000174   2418         ADD     A,#0x18
   \   000176   FA           MOV     R2,A
   \   000177   E4           CLR     A
   \   000178   3F           ADDC    A,R7
   \   000179   FB           MOV     R3,A
   \   00017A   12....       LCALL   ??osal_mem_alloc?relay; Banked call to: osal_mem_alloc
   \   00017D   90....       MOV     DPTR,#pMtAfDataReq
   \   000180   12....       LCALL   ?Subroutine39 & 0xFFFF
   \                     ??CrossCallReturnLabel_74:
   \   000183   12....       LCALL   ?Subroutine3 & 0xFFFF
   \                     ??CrossCallReturnLabel_166:
   \   000186   85..82       MOV     DPL,?XSP + 0
   \   000189   85..83       MOV     DPH,?XSP + 1
   \   00018C   7005         JNZ     ??MT_AfDataRequest_13
    389              {
    390                retValue = afStatus_MEM_FAIL;
   \   00018E   7410         MOV     A,#0x10
   \   000190   02....       LJMP    ??MT_AfDataRequest_12 & 0xFFFF
    391              }
    392              else
    393              {
    394                retValue = afStatus_SUCCESS;
   \                     ??MT_AfDataRequest_13:
   \   000193   E4           CLR     A
   \   000194   F0           MOVX    @DPTR,A
    395          
    396                pMtAfDataReq->data = (uint8 *)(pMtAfDataReq+1);
   \   000195   90....       MOV     DPTR,#pMtAfDataReq
   \   000198   E0           MOVX    A,@DPTR
   \   000199   2418         ADD     A,#0x18
   \   00019B   FA           MOV     R2,A
   \   00019C   A3           INC     DPTR
   \   00019D   E0           MOVX    A,@DPTR
   \   00019E   3400         ADDC    A,#0x0
   \   0001A0   FB           MOV     R3,A
   \   0001A1   90....       MOV     DPTR,#pMtAfDataReq
   \   0001A4   12....       LCALL   ?Subroutine23 & 0xFFFF
   \                     ??CrossCallReturnLabel_30:
   \   0001A7   A3           INC     DPTR
   \   0001A8   EB           MOV     A,R3
   \   0001A9   F0           MOVX    @DPTR,A
    397                (void)osal_memcpy(&(pMtAfDataReq->dstAddr), &dstAddr, sizeof(afAddrType_t));
   \   0001AA                ; Setup parameters for call to function osal_memcpy
   \   0001AA   7405         MOV     A,#0x5
   \   0001AC   12....       LCALL   ?XSTACK_DISP100_8
   \   0001AF   88..         MOV     ?V0,R0
   \   0001B1   89..         MOV     ?V1,R1
   \   0001B3   75..00       MOV     ?V2,#0x0
   \   0001B6   78..         MOV     R0,#?V0
   \   0001B8   12....       LCALL   ?PUSH_XSTACK_I_THREE
   \   0001BB   7C0C         MOV     R4,#0xc
   \   0001BD   7D00         MOV     R5,#0x0
   \   0001BF   12....       LCALL   ?Subroutine26 & 0xFFFF
   \                     ??CrossCallReturnLabel_36:
   \   0001C2   12....       LCALL   ??osal_memcpy?relay  ; Banked call to: osal_memcpy
   \   0001C5   7403         MOV     A,#0x3
   \   0001C7   12....       LCALL   ?DEALLOC_XSTACK8
    398                pMtAfDataReq->epDesc = epDesc;
   \   0001CA   7402         MOV     A,#0x2
   \   0001CC   12....       LCALL   ?XSTACK_DISP0_8
   \   0001CF   12....       LCALL   ??Subroutine62_0 & 0xFFFF
   \                     ??CrossCallReturnLabel_128:
   \   0001D2   90....       MOV     DPTR,#pMtAfDataReq
   \   0001D5   12....       LCALL   ??Subroutine59_0 & 0xFFFF
   \                     ??CrossCallReturnLabel_113:
   \   0001D8   12....       LCALL   ?Subroutine49 & 0xFFFF
   \                     ??CrossCallReturnLabel_91:
   \   0001DB   12....       LCALL   ?Subroutine39 & 0xFFFF
    399                pMtAfDataReq->cId = cId;
   \                     ??CrossCallReturnLabel_75:
   \   0001DE   12....       LCALL   ?Subroutine18 & 0xFFFF
   \                     ??CrossCallReturnLabel_24:
   \   0001E1   E5..         MOV     A,?V4
   \   0001E3   F0           MOVX    @DPTR,A
   \   0001E4   A3           INC     DPTR
   \   0001E5   E5..         MOV     A,?V5
   \   0001E7   F0           MOVX    @DPTR,A
    400                pMtAfDataReq->dataLen = dataLen;
   \   0001E8   12....       LCALL   ?Subroutine19 & 0xFFFF
   \                     ??CrossCallReturnLabel_26:
   \   0001EB   EE           MOV     A,R6
   \   0001EC   F0           MOVX    @DPTR,A
   \   0001ED   A3           INC     DPTR
   \   0001EE   EF           MOV     A,R7
   \   0001EF   F0           MOVX    @DPTR,A
    401                pMtAfDataReq->transId = transId;
   \   0001F0   7401         MOV     A,#0x1
   \   0001F2   12....       LCALL   ?XSTACK_DISP0_8
   \   0001F5   E0           MOVX    A,@DPTR
   \   0001F6   C0E0         PUSH    A
   \   0001F8   90....       MOV     DPTR,#pMtAfDataReq
   \   0001FB   12....       LCALL   ??Subroutine59_0 & 0xFFFF
   \                     ??CrossCallReturnLabel_114:
   \   0001FE   2414         ADD     A,#0x14
   \   000200   F582         MOV     DPL,A
   \   000202   E4           CLR     A
   \   000203   38           ADDC    A,R0
   \   000204   F583         MOV     DPH,A
   \   000206   D0E0         POP     A
   \   000208   F0           MOVX    @DPTR,A
    402                pMtAfDataReq->txOpts = txOpts;
   \   000209   12....       LCALL   ?Subroutine20 & 0xFFFF
   \                     ??CrossCallReturnLabel_28:
   \   00020C   E5..         MOV     A,?V6
   \   00020E   F0           MOVX    @DPTR,A
    403                pMtAfDataReq->radius = radius;
   \   00020F   90....       MOV     DPTR,#pMtAfDataReq
   \   000212   12....       LCALL   ??Subroutine59_0 & 0xFFFF
   \                     ??CrossCallReturnLabel_115:
   \   000215   12....       LCALL   ?Subroutine40 & 0xFFFF
   \                     ??CrossCallReturnLabel_80:
   \   000218   E5..         MOV     A,?V3
   \   00021A   12....       LCALL   ?Subroutine17 & 0xFFFF
    404          
    405                // Setup to time-out the huge outgoing item if host does not MT_AF_DATA_STORE it.
    406                pMtAfDataReq->tick = MT_AF_EXEC_CNT;
   \                     ??CrossCallReturnLabel_22:
   \   00021D   12....       LCALL   ?Subroutine36 & 0xFFFF
    407                if (ZSuccess != osal_start_timerEx(MT_TaskID, MT_AF_EXEC_EVT, MT_AF_EXEC_DLY))
   \                     ??CrossCallReturnLabel_63:
   \   000220   12....       LCALL   ??osal_start_timerEx?relay; Banked call to: osal_start_timerEx
   \   000223   E9           MOV     A,R1
   \   000224   6057         JZ      ??MT_AfDataRequest_14
    408                {
    409                  (void)osal_set_event(MT_TaskID, MT_AF_EXEC_EVT);
   \   000226                ; Setup parameters for call to function osal_set_event
   \   000226   7A08         MOV     R2,#0x8
   \   000228   7B00         MOV     R3,#0x0
   \   00022A   90....       MOV     DPTR,#MT_TaskID
   \   00022D   E0           MOVX    A,@DPTR
   \   00022E   F9           MOV     R1,A
   \   00022F   12....       LCALL   ??osal_set_event?relay; Banked call to: osal_set_event
   \   000232   8049         SJMP    ??MT_AfDataRequest_14
    410                }
    411              }
    412            }
    413            else
    414            {
    415              retValue = AF_DataRequest(&dstAddr, epDesc, cId, dataLen, pBuf, &transId, txOpts, radius);
   \                     ??MT_AfDataRequest_10:
   \   000234                ; Setup parameters for call to function AF_DataRequest
   \   000234   E5..         MOV     A,?V3
   \   000236   F5..         MOV     ?V2,A
   \   000238   78..         MOV     R0,#?V2
   \   00023A   12....       LCALL   ?PUSH_XSTACK_I_ONE
   \   00023D   7402         MOV     A,#0x2
   \   00023F   12....       LCALL   ?XSTACK_DISP100_8
   \   000242   88..         MOV     ?V2,R0
   \   000244   89..         MOV     ?V3,R1
   \   000246   78..         MOV     R0,#?V2
   \   000248   12....       LCALL   ?PUSH_XSTACK_I_TWO
   \   00024B   78..         MOV     R0,#?V0
   \   00024D   12....       LCALL   ?PUSH_XSTACK_I_TWO
   \   000250   8E..         MOV     ?V0,R6
   \   000252   8F..         MOV     ?V1,R7
   \   000254   78..         MOV     R0,#?V0
   \   000256   12....       LCALL   ?PUSH_XSTACK_I_TWO
   \   000259   78..         MOV     R0,#?V4
   \   00025B   12....       LCALL   ?PUSH_XSTACK_I_TWO
   \   00025E   A9..         MOV     R1,?V6
   \   000260   740B         MOV     A,#0xb
   \   000262   12....       LCALL   ?XSTACK_DISP0_8
   \   000265   12....       LCALL   ?Subroutine27 & 0xFFFF
    416            }
   \                     ??CrossCallReturnLabel_38:
   \   000268   740E         MOV     A,#0xe
   \   00026A   12....       LCALL   ?XSTACK_DISP101_8
   \   00026D   12....       LCALL   ??AF_DataRequest?relay; Banked call to: AF_DataRequest
   \   000270   7409         MOV     A,#0x9
   \   000272   12....       LCALL   ?DEALLOC_XSTACK8
   \   000275   E9           MOV     A,R1
   \   000276   85..82       MOV     DPL,?XSP + 0
   \   000279   85..83       MOV     DPH,?XSP + 1
   \                     ??MT_AfDataRequest_12:
   \   00027C   F0           MOVX    @DPTR,A
    417          
    418            if (MT_RPC_CMD_SREQ == (cmd0 & MT_RPC_CMD_TYPE_MASK))
   \                     ??MT_AfDataRequest_14:
   \   00027D   7404         MOV     A,#0x4
   \   00027F   12....       LCALL   ?XSTACK_DISP0_8
   \   000282   E0           MOVX    A,@DPTR
   \   000283   54E0         ANL     A,#0xe0
   \   000285   6420         XRL     A,#0x20
   \   000287   700D         JNZ     ??MT_AfDataRequest_15
    419            {
    420              MT_BuildAndSendZToolResponse(((uint8)MT_RPC_CMD_SRSP|(uint8)MT_RPC_SYS_AF), cmd1, 1, &retValue);
   \   000289                ; Setup parameters for call to function MT_BuildAndSendZToolResponse
   \   000289   AC..         MOV     R4,?XSP + 0
   \   00028B   AD..         MOV     R5,?XSP + 1
   \   00028D   7B01         MOV     R3,#0x1
   \   00028F   AA..         MOV     R2,?V7
   \   000291   7964         MOV     R1,#0x64
   \   000293   12....       LCALL   ??MT_BuildAndSendZToolResponse?relay; Banked call to: MT_BuildAndSendZToolResponse
    421            }
    422          }
   \                     ??MT_AfDataRequest_15:
   \   000296   7411         MOV     A,#0x11
   \   000298                REQUIRE ?Subroutine2
   \   000298                ; // Fall through to label ?Subroutine2

   \                                 In  segment BANKED_CODE, align 1, keep-with-next
   \                     ?Subroutine2:
   \   000000   12....       LCALL   ?DEALLOC_XSTACK8
   \   000003   7F08         MOV     R7,#0x8
   \   000005   02....       LJMP    ?BANKED_LEAVE_XDATA

   \                                 In  segment BANKED_CODE, align 1, keep-with-next
   \                     ?Subroutine38:
   \   000000   7402         MOV     A,#0x2
   \   000002                REQUIRE ??Subroutine53_0
   \   000002                ; // Fall through to label ??Subroutine53_0

   \                                 In  segment BANKED_CODE, align 1, keep-with-next
   \                     ??Subroutine53_0:
   \   000000   F0           MOVX    @DPTR,A
   \   000001   85..82       MOV     DPL,?V0
   \   000004   85..83       MOV     DPH,?V1
   \   000007   22           RET

   \                                 In  segment BANKED_CODE, align 1, keep-with-next
   \                     ?Subroutine32:
   \   000000   12....       LCALL   ?Subroutine46 & 0xFFFF
   \                     ??CrossCallReturnLabel_84:
   \   000003   E0           MOVX    A,@DPTR
   \   000004   FA           MOV     R2,A
   \   000005   A3           INC     DPTR
   \   000006   E0           MOVX    A,@DPTR
   \   000007   22           RET

   \                                 In  segment BANKED_CODE, align 1, keep-with-next
   \                     ?Subroutine25:
   \   000000   E0           MOVX    A,@DPTR
   \   000001   FA           MOV     R2,A
   \   000002   A3           INC     DPTR
   \   000003   E0           MOVX    A,@DPTR
   \   000004   F9           MOV     R1,A
   \   000005   EA           MOV     A,R2
   \   000006   F8           MOV     R0,A
   \   000007   7405         MOV     A,#0x5
   \   000009   22           RET

   \                                 In  segment BANKED_CODE, align 1, keep-with-next
   \                     ?Subroutine9:
   \   000000   E0           MOVX    A,@DPTR
   \   000001   FA           MOV     R2,A
   \   000002                REQUIRE ??Subroutine55_0
   \   000002                ; // Fall through to label ??Subroutine55_0

   \                                 In  segment BANKED_CODE, align 1, keep-with-next
   \                     ??Subroutine55_0:
   \   000000   A3           INC     DPTR
   \   000001   E0           MOVX    A,@DPTR
   \   000002   F8           MOV     R0,A
   \   000003   E4           CLR     A
   \   000004   C8           XCH     A,R0
   \   000005   F9           MOV     R1,A
   \   000006   EA           MOV     A,R2
   \   000007   28           ADD     A,R0
   \   000008   FE           MOV     R6,A
   \   000009   E4           CLR     A
   \   00000A   39           ADDC    A,R1
   \   00000B   FF           MOV     R7,A
   \   00000C   22           RET

   \                                 In  segment BANKED_CODE, align 1, keep-with-next
   \                     ?Subroutine35:
   \   000000   12....       LCALL   ?Subroutine51 & 0xFFFF
   \                     ??CrossCallReturnLabel_95:
   \   000003   E0           MOVX    A,@DPTR
   \   000004   22           RET

   \                                 In  segment BANKED_CODE, align 1, keep-with-next
   \                     ?Subroutine34:
   \   000000   E8           MOV     A,R0
   \   000001   F0           MOVX    @DPTR,A
   \   000002   A3           INC     DPTR
   \   000003   E9           MOV     A,R1
   \   000004   F0           MOVX    @DPTR,A
   \   000005   E5..         MOV     A,?V0
   \   000007   2402         ADD     A,#0x2
   \   000009   F5..         MOV     ?V0,A
   \   00000B   22           RET

   \                                 In  segment BANKED_CODE, align 1, keep-with-next
   \                     ?Subroutine33:
   \   000000   12....       LCALL   ?Subroutine46 & 0xFFFF
   \                     ??CrossCallReturnLabel_85:
   \   000003   22           RET

   \                                 In  segment BANKED_CODE, align 1, keep-with-next
   \                     ?Subroutine46:
   \   000000   12....       LCALL   ?Subroutine51 & 0xFFFF
   \                     ??CrossCallReturnLabel_96:
   \   000003   8582..       MOV     ?V0,DPL
   \   000006   8583..       MOV     ?V1,DPH
   \   000009   22           RET

   \                                 In  segment BANKED_CODE, align 1, keep-with-next
   \                     ?Subroutine51:
   \   000000   F0           MOVX    @DPTR,A
   \   000001   85..82       MOV     DPL,?V0
   \   000004   85..83       MOV     DPH,?V1
   \   000007   A3           INC     DPTR
   \   000008   22           RET

   \                                 In  segment BANKED_CODE, align 1, keep-with-next
   \                     ?Subroutine39:
   \   000000   EA           MOV     A,R2
   \   000001   F0           MOVX    @DPTR,A
   \   000002   A3           INC     DPTR
   \   000003   EB           MOV     A,R3
   \   000004   F0           MOVX    @DPTR,A
   \   000005   22           RET

   \                                 In  segment BANKED_CODE, align 1, keep-with-next
   \                     ?Subroutine36:
   \   000000   740F         MOV     A,#0xf
   \   000002   F0           MOVX    @DPTR,A
   \   000003                ; Setup parameters for call to function osal_start_timerEx
   \   000003                ; Setup parameters for call to function osal_start_timerEx
   \   000003   7CE8         MOV     R4,#-0x18
   \   000005   7D03         MOV     R5,#0x3
   \   000007   7A08         MOV     R2,#0x8
   \   000009   7B00         MOV     R3,#0x0
   \   00000B   90....       MOV     DPTR,#MT_TaskID
   \   00000E   E0           MOVX    A,@DPTR
   \   00000F   F9           MOV     R1,A
   \   000010   22           RET

   \                                 In  segment BANKED_CODE, align 1, keep-with-next
   \                     ?Subroutine27:
   \   000000   E0           MOVX    A,@DPTR
   \   000001   FC           MOV     R4,A
   \   000002   A3           INC     DPTR
   \   000003   E0           MOVX    A,@DPTR
   \   000004   FD           MOV     R5,A
   \   000005   22           RET

   \                                 In  segment BANKED_CODE, align 1, keep-with-next
   \                     ??Subroutine59_0:
   \   000000   12....       LCALL   ??Subroutine54_0 & 0xFFFF
   \                     ??CrossCallReturnLabel_148:
   \   000003   22           RET

   \                                 In  segment BANKED_CODE, align 1, keep-with-next
   \                     ?Subroutine23:
   \   000000   12....       LCALL   ?Subroutine44 & 0xFFFF
   \                     ??CrossCallReturnLabel_154:
   \   000003   EA           MOV     A,R2
   \   000004   F0           MOVX    @DPTR,A
   \   000005   22           RET

   \                                 In  segment BANKED_CODE, align 1, keep-with-next
   \                     ?Subroutine44:
   \   000000   E0           MOVX    A,@DPTR
   \   000001   F8           MOV     R0,A
   \   000002                REQUIRE ??Subroutine64_0
   \   000002                ; // Fall through to label ??Subroutine64_0

   \                                 In  segment BANKED_CODE, align 1, keep-with-next
   \                     ??Subroutine64_0:
   \   000000   A3           INC     DPTR
   \   000001   E0           MOVX    A,@DPTR
   \   000002   F583         MOV     DPH,A
   \   000004   8882         MOV     DPL,R0
   \   000006   22           RET

   \                                 In  segment BANKED_CODE, align 1, keep-with-next
   \                     ?Subroutine40:
   \   000000   2416         ADD     A,#0x16
   \   000002   F582         MOV     DPL,A
   \   000004   E4           CLR     A
   \   000005   38           ADDC    A,R0
   \   000006   F583         MOV     DPH,A
   \   000008   22           RET

   \                                 In  segment BANKED_CODE, align 1, keep-with-next
   \                     ?Subroutine26:
   \   000000   90....       MOV     DPTR,#pMtAfDataReq
   \   000003   E0           MOVX    A,@DPTR
   \   000004   2402         ADD     A,#0x2
   \   000006   FA           MOV     R2,A
   \   000007   A3           INC     DPTR
   \   000008   E0           MOVX    A,@DPTR
   \   000009   3400         ADDC    A,#0x0
   \   00000B   FB           MOV     R3,A
   \   00000C   22           RET

   \                                 In  segment BANKED_CODE, align 1, keep-with-next
   \                     ?Subroutine20:
   \   000000   12....       LCALL   ?Subroutine41 & 0xFFFF
   \                     ??CrossCallReturnLabel_147:
   \   000003   2415         ADD     A,#0x15
   \   000005   F582         MOV     DPL,A
   \   000007   E4           CLR     A
   \   000008   38           ADDC    A,R0
   \   000009   F583         MOV     DPH,A
   \   00000B   22           RET

   \                                 In  segment BANKED_CODE, align 1, keep-with-next
   \                     ?Subroutine19:
   \   000000   12....       LCALL   ?Subroutine41 & 0xFFFF
   \                     ??CrossCallReturnLabel_146:
   \   000003   2412         ADD     A,#0x12
   \   000005   F582         MOV     DPL,A
   \   000007   E4           CLR     A
   \   000008   38           ADDC    A,R0
   \   000009   F583         MOV     DPH,A
   \   00000B   22           RET

   \                                 In  segment BANKED_CODE, align 1, keep-with-next
   \                     ?Subroutine18:
   \   000000   12....       LCALL   ?Subroutine41 & 0xFFFF
   \                     ??CrossCallReturnLabel_145:
   \   000003   2410         ADD     A,#0x10
   \   000005   F582         MOV     DPL,A
   \   000007   E4           CLR     A
   \   000008   38           ADDC    A,R0
   \   000009   F583         MOV     DPH,A
   \   00000B   22           RET

   \                                 In  segment BANKED_CODE, align 1, keep-with-next
   \                     ?Subroutine49:
   \   000000   240E         ADD     A,#0xe
   \   000002   F582         MOV     DPL,A
   \   000004   E4           CLR     A
   \   000005   38           ADDC    A,R0
   \   000006   F583         MOV     DPH,A
   \   000008   22           RET
    423          
    424          #if defined ( ZIGBEE_SOURCE_ROUTING )
    425          
    426          /***************************************************************************************************
    427           * @fn      MT_AfDataRequestSrcRtg
    428           *
    429           * @brief   Process AF Register command
    430           *
    431           * @param   pBuf - pointer to the received buffer
    432           *
    433           * @return  none
    434           ***************************************************************************************************/

   \                                 In  segment BANKED_CODE, align 1, keep-with-next
    435          void MT_AfDataRequestSrcRtg(uint8 *pBuf)
   \                     MT_AfDataRequestSrcRtg:
    436          {
   \   000000                REQUIRE ?V0
   \   000000                REQUIRE ?V1
   \   000000                REQUIRE ?V2
   \   000000                REQUIRE ?V3
   \   000000                REQUIRE ?V4
   \   000000                REQUIRE ?V5
   \   000000                REQUIRE ?V6
   \   000000                REQUIRE ?V7
   \   000000   74F0         MOV     A,#-0x10
   \   000002   12....       LCALL   ?BANKED_ENTER_XDATA
   \   000005                ; Saved register size: 16
   \   000005                ; Auto size: 18
   \   000005   74EE         MOV     A,#-0x12
   \   000007   12....       LCALL   ?ALLOC_XSTACK8
   \   00000A   8B..         MOV     ?V1,R3
    437            uint8 cmdId, dataLen = 0;
    438            uint8 retValue = ZFailure;
   \   00000C   85..82       MOV     DPL,?XSP + 0
   \   00000F   85..83       MOV     DPH,?XSP + 1
   \   000012   7401         MOV     A,#0x1
   \   000014   12....       LCALL   ?Subroutine31 & 0xFFFF
    439            endPointDesc_t *epDesc;
    440            byte transId;
    441            afAddrType_t dstAddr;
    442            cId_t cId;
    443            byte txOpts, radius, srcEP, relayCnt;
    444            uint16 *pRelayList;
    445            uint8 i;
    446          
    447            /* parse header */
    448            cmdId = pBuf[MT_RPC_POS_CMD1];
   \                     ??CrossCallReturnLabel_50:
   \   000017   C0E0         PUSH    A
   \   000019   7403         MOV     A,#0x3
   \   00001B   12....       LCALL   ?XSTACK_DISP0_8
   \   00001E   D0E0         POP     A
   \   000020   F0           MOVX    @DPTR,A
    449            pBuf += MT_RPC_FRAME_HDR_SZ;
   \   000021   EA           MOV     A,R2
   \   000022   2403         ADD     A,#0x3
   \   000024   F5..         MOV     ?V0,A
   \   000026   5002         JNC     ??MT_AfDataRequestSrcRtg_0
   \   000028   05..         INC     ?V1
    450          
    451            /* Destination address */
    452            /* Initialize the panID field to zero to avoid inter-pan */
    453            osal_memset( &dstAddr, 0, sizeof(afAddrType_t) );
   \                     ??MT_AfDataRequestSrcRtg_0:
   \   00002A                ; Setup parameters for call to function osal_memset
   \   00002A   7C0C         MOV     R4,#0xc
   \   00002C   7D00         MOV     R5,#0x0
   \   00002E   7900         MOV     R1,#0x0
   \   000030   7406         MOV     A,#0x6
   \   000032   12....       LCALL   ?XSTACK_DISP101_8
   \   000035   12....       LCALL   ??osal_memset?relay  ; Banked call to: osal_memset
    454            dstAddr.addrMode = afAddr16Bit;
   \   000038   740E         MOV     A,#0xe
   \   00003A   12....       LCALL   ?XSTACK_DISP0_8
   \   00003D   12....       LCALL   ?Subroutine38 & 0xFFFF
    455            dstAddr.addr.shortAddr = BUILD_UINT16(pBuf[0], pBuf[1]);
   \                     ??CrossCallReturnLabel_98:
   \   000040   E0           MOVX    A,@DPTR
   \   000041   FA           MOV     R2,A
   \   000042   A3           INC     DPTR
   \   000043   E0           MOVX    A,@DPTR
   \   000044   F9           MOV     R1,A
   \   000045   EA           MOV     A,R2
   \   000046   F8           MOV     R0,A
   \   000047   7406         MOV     A,#0x6
   \   000049   12....       LCALL   ?XSTACK_DISP0_8
   \   00004C   12....       LCALL   ?Subroutine34 & 0xFFFF
    456            pBuf += 2;
   \                     ??CrossCallReturnLabel_59:
   \   00004F   5002         JNC     ??MT_AfDataRequestSrcRtg_1
   \   000051   05..         INC     ?V1
    457          
    458            /* Destination endpoint */
    459            dstAddr.endPoint = *pBuf++;
   \                     ??MT_AfDataRequestSrcRtg_1:
   \   000053   F582         MOV     DPL,A
   \   000055   85..83       MOV     DPH,?V1
   \   000058   E0           MOVX    A,@DPTR
   \   000059   C0E0         PUSH    A
   \   00005B   740F         MOV     A,#0xf
   \   00005D   12....       LCALL   ?XSTACK_DISP0_8
   \   000060   D0E0         POP     A
   \   000062   12....       LCALL   ?Subroutine35 & 0xFFFF
    460          
    461            /* Source endpoint */
    462            srcEP = *pBuf++;
   \                     ??CrossCallReturnLabel_61:
   \   000065   F9           MOV     R1,A
   \   000066   A3           INC     DPTR
   \   000067   8582..       MOV     ?V0,DPL
   \   00006A   8583..       MOV     ?V1,DPH
    463            epDesc = afFindEndPointDesc( srcEP );
   \   00006D                ; Setup parameters for call to function afFindEndPointDesc
   \   00006D   12....       LCALL   ??afFindEndPointDesc?relay; Banked call to: afFindEndPointDesc
   \   000070   7404         MOV     A,#0x4
   \   000072   12....       LCALL   ?XSTACK_DISP0_8
   \   000075   EA           MOV     A,R2
   \   000076   F0           MOVX    @DPTR,A
   \   000077   A3           INC     DPTR
   \   000078   EB           MOV     A,R3
   \   000079   12....       LCALL   ??Subroutine53_0 & 0xFFFF
    464          
    465            /* ClusterId */
    466            cId = BUILD_UINT16(pBuf[0], pBuf[1]);
   \                     ??CrossCallReturnLabel_99:
   \   00007C   12....       LCALL   ?Subroutine9 & 0xFFFF
    467            pBuf +=2;
   \                     ??CrossCallReturnLabel_102:
   \   00007F   E5..         MOV     A,?V0
   \   000081   2402         ADD     A,#0x2
   \   000083   F5..         MOV     ?V0,A
   \   000085   5002         JNC     ??MT_AfDataRequestSrcRtg_2
   \   000087   05..         INC     ?V1
    468          
    469            /* TransId */
    470            transId = *pBuf++;
   \                     ??MT_AfDataRequestSrcRtg_2:
   \   000089   F582         MOV     DPL,A
   \   00008B   85..83       MOV     DPH,?V1
   \   00008E   E0           MOVX    A,@DPTR
   \   00008F   C0E0         PUSH    A
   \   000091   7401         MOV     A,#0x1
   \   000093   12....       LCALL   ?XSTACK_DISP0_8
   \   000096   D0E0         POP     A
   \   000098   12....       LCALL   ?Subroutine33 & 0xFFFF
    471          
    472            /* TxOption */
    473            txOpts = *pBuf++;
   \                     ??CrossCallReturnLabel_56:
   \   00009B   E0           MOVX    A,@DPTR
   \   00009C   C0E0         PUSH    A
   \   00009E   7402         MOV     A,#0x2
   \   0000A0   12....       LCALL   ?XSTACK_DISP0_8
   \   0000A3   D0E0         POP     A
   \   0000A5   12....       LCALL   ?Subroutine35 & 0xFFFF
    474          
    475            /* Radius */
    476            radius = *pBuf++;
   \                     ??CrossCallReturnLabel_62:
   \   0000A8   F5..         MOV     ?V3,A
   \   0000AA   A3           INC     DPTR
    477          
    478            /* Source route relay count */
    479            relayCnt = *pBuf++;
   \   0000AB   E0           MOVX    A,@DPTR
   \   0000AC   F5..         MOV     ?V2,A
   \   0000AE   A3           INC     DPTR
   \   0000AF   8582..       MOV     ?V0,DPL
   \   0000B2   8583..       MOV     ?V1,DPH
    480          
    481            /* Convert the source route relay list */
    482            if( (pRelayList = osal_mem_alloc( relayCnt * sizeof( uint16 ))) != NULL )
   \   0000B5                ; Setup parameters for call to function osal_mem_alloc
   \   0000B5   25E0         ADD     A,0xE0 /* A   */
   \   0000B7   FA           MOV     R2,A
   \   0000B8   E4           CLR     A
   \   0000B9   33           RLC     A
   \   0000BA   FB           MOV     R3,A
   \   0000BB   12....       LCALL   ??osal_mem_alloc?relay; Banked call to: osal_mem_alloc
   \   0000BE   8A..         MOV     ?V6,R2
   \   0000C0   8B..         MOV     ?V7,R3
   \   0000C2   EA           MOV     A,R2
   \   0000C3   45..         ORL     A,?V7
   \   0000C5   7003         JNZ     $+5
   \   0000C7   02....       LJMP    ??MT_AfDataRequestSrcRtg_3 & 0xFFFF
    483            {
    484              for( i = 0; i < relayCnt; i++ )
   \   0000CA   7A00         MOV     R2,#0x0
   \   0000CC   802C         SJMP    ??MT_AfDataRequestSrcRtg_4
    485              {
    486                pRelayList[i]  = BUILD_UINT16( pBuf[0], pBuf[1] );
   \                     ??MT_AfDataRequestSrcRtg_5:
   \   0000CE   FC           MOV     R4,A
   \   0000CF   A3           INC     DPTR
   \   0000D0   E0           MOVX    A,@DPTR
   \   0000D1   F8           MOV     R0,A
   \   0000D2   E4           CLR     A
   \   0000D3   C8           XCH     A,R0
   \   0000D4   F9           MOV     R1,A
   \   0000D5   EC           MOV     A,R4
   \   0000D6   28           ADD     A,R0
   \   0000D7   E4           CLR     A
   \   0000D8   39           ADDC    A,R1
   \   0000D9   FD           MOV     R5,A
   \   0000DA   EA           MOV     A,R2
   \   0000DB   25E0         ADD     A,0xE0 /* A   */
   \   0000DD   F8           MOV     R0,A
   \   0000DE   E4           CLR     A
   \   0000DF   33           RLC     A
   \   0000E0   F9           MOV     R1,A
   \   0000E1   E5..         MOV     A,?V6
   \   0000E3   28           ADD     A,R0
   \   0000E4   F582         MOV     DPL,A
   \   0000E6   EB           MOV     A,R3
   \   0000E7   39           ADDC    A,R1
   \   0000E8   F583         MOV     DPH,A
   \   0000EA   EC           MOV     A,R4
   \   0000EB   F0           MOVX    @DPTR,A
   \   0000EC   A3           INC     DPTR
   \   0000ED   ED           MOV     A,R5
   \   0000EE   F0           MOVX    @DPTR,A
    487                pBuf += 2;
   \   0000EF   E5..         MOV     A,?V0
   \   0000F1   2402         ADD     A,#0x2
   \   0000F3   F5..         MOV     ?V0,A
   \   0000F5   5002         JNC     ??MT_AfDataRequestSrcRtg_6
   \   0000F7   05..         INC     ?V1
    488              }
   \                     ??MT_AfDataRequestSrcRtg_6:
   \   0000F9   0A           INC     R2
   \                     ??MT_AfDataRequestSrcRtg_4:
   \   0000FA   EA           MOV     A,R2
   \   0000FB   C3           CLR     C
   \   0000FC   95..         SUBB    A,?V2
   \   0000FE   85..82       MOV     DPL,?V0
   \   000101   85..83       MOV     DPH,?V1
   \   000104   E0           MOVX    A,@DPTR
   \   000105   40C7         JC      ??MT_AfDataRequestSrcRtg_5
    489          
    490              /* Data payload Length */
    491              dataLen = *pBuf++;
   \   000107   FA           MOV     R2,A
   \   000108   A3           INC     DPTR
   \   000109   8582..       MOV     ?V0,DPL
   \   00010C   8583..       MOV     ?V1,DPH
    492          
    493              if ( epDesc == NULL )
   \   00010F   7404         MOV     A,#0x4
   \   000111   12....       LCALL   ?XSTACK_DISP0_8
   \   000114   12....       LCALL   ??Subroutine65_0 & 0xFFFF
   \                     ??CrossCallReturnLabel_157:
   \   000117   700A         JNZ     ??MT_AfDataRequestSrcRtg_7
    494              {
    495                retValue = afStatus_INVALID_PARAMETER;
   \   000119   85..82       MOV     DPL,?XSP + 0
   \   00011C   85..83       MOV     DPH,?XSP + 1
   \   00011F   7402         MOV     A,#0x2
   \   000121   805C         SJMP    ??MT_AfDataRequestSrcRtg_8
    496              }
    497              else
    498              {
    499                retValue = AF_DataRequestSrcRtg( &dstAddr, epDesc, cId, dataLen, pBuf,
    500                                               &transId, txOpts, radius, relayCnt, pRelayList );
   \                     ??MT_AfDataRequestSrcRtg_7:
   \   000123                ; Setup parameters for call to function AF_DataRequestSrcRtg
   \   000123   78..         MOV     R0,#?V6
   \   000125   12....       LCALL   ?PUSH_XSTACK_I_TWO
   \   000128   78..         MOV     R0,#?V2
   \   00012A   12....       LCALL   ?PUSH_XSTACK_I_ONE
   \   00012D   E5..         MOV     A,?V3
   \   00012F   F5..         MOV     ?V2,A
   \   000131   78..         MOV     R0,#?V2
   \   000133   12....       LCALL   ?PUSH_XSTACK_I_ONE
   \   000136   7405         MOV     A,#0x5
   \   000138   12....       LCALL   ?XSTACK_DISP100_8
   \   00013B   88..         MOV     ?V2,R0
   \   00013D   89..         MOV     ?V3,R1
   \   00013F   78..         MOV     R0,#?V2
   \   000141   12....       LCALL   ?PUSH_XSTACK_I_TWO
   \   000144   78..         MOV     R0,#?V0
   \   000146   12....       LCALL   ?PUSH_XSTACK_I_TWO
   \   000149   8A..         MOV     ?V0,R2
   \   00014B   75..00       MOV     ?V1,#0x0
   \   00014E   78..         MOV     R0,#?V0
   \   000150   12....       LCALL   ?PUSH_XSTACK_I_TWO
   \   000153   8E..         MOV     ?V0,R6
   \   000155   8F..         MOV     ?V1,R7
   \   000157   78..         MOV     R0,#?V0
   \   000159   12....       LCALL   ?PUSH_XSTACK_I_TWO
   \   00015C   740E         MOV     A,#0xe
   \   00015E   12....       LCALL   ?XSTACK_DISP0_8
   \   000161   E0           MOVX    A,@DPTR
   \   000162   F9           MOV     R1,A
   \   000163   7410         MOV     A,#0x10
   \   000165   12....       LCALL   ?XSTACK_DISP0_8
   \   000168   12....       LCALL   ?Subroutine27 & 0xFFFF
    501              }
   \                     ??CrossCallReturnLabel_39:
   \   00016B   7412         MOV     A,#0x12
   \   00016D   12....       LCALL   ?XSTACK_DISP101_8
   \   000170   12....       LCALL   ??AF_DataRequestSrcRtg?relay; Banked call to: AF_DataRequestSrcRtg
   \   000173   740C         MOV     A,#0xc
   \   000175   12....       LCALL   ?DEALLOC_XSTACK8
   \   000178   E9           MOV     A,R1
   \   000179   85..82       MOV     DPL,?XSP + 0
   \   00017C   85..83       MOV     DPH,?XSP + 1
   \                     ??MT_AfDataRequestSrcRtg_8:
   \   00017F   F0           MOVX    @DPTR,A
    502          
    503              /* Free the memory allocated */
    504              osal_mem_free( pRelayList );
   \   000180                ; Setup parameters for call to function osal_mem_free
   \   000180   AA..         MOV     R2,?V6
   \   000182   AB..         MOV     R3,?V7
   \   000184   12....       LCALL   ??osal_mem_free?relay; Banked call to: osal_mem_free
   \   000187   8009         SJMP    ??MT_AfDataRequestSrcRtg_9
    505            }
    506            else
    507            {
    508              retValue = afStatus_MEM_FAIL;
   \                     ??MT_AfDataRequestSrcRtg_3:
   \   000189   85..82       MOV     DPL,?XSP + 0
   \   00018C   85..83       MOV     DPH,?XSP + 1
   \   00018F   7410         MOV     A,#0x10
   \   000191   F0           MOVX    @DPTR,A
    509            }
    510          
    511          
    512            /* Build and send back the response */
    513            MT_BuildAndSendZToolResponse(((uint8)MT_RPC_CMD_SRSP | (uint8)MT_RPC_SYS_AF), cmdId, 1, &retValue);
   \                     ??MT_AfDataRequestSrcRtg_9:
   \   000192                ; Setup parameters for call to function MT_BuildAndSendZToolResponse
   \   000192   AC..         MOV     R4,?XSP + 0
   \   000194   AD..         MOV     R5,?XSP + 1
   \   000196   7B01         MOV     R3,#0x1
   \   000198   7403         MOV     A,#0x3
   \   00019A   12....       LCALL   ?XSTACK_DISP0_8
   \   00019D   E0           MOVX    A,@DPTR
   \   00019E   FA           MOV     R2,A
   \   00019F   7964         MOV     R1,#0x64
   \   0001A1   12....       LCALL   ??MT_BuildAndSendZToolResponse?relay; Banked call to: MT_BuildAndSendZToolResponse
    514          }
   \   0001A4   7412         MOV     A,#0x12
   \   0001A6   02....       LJMP    ?Subroutine2 & 0xFFFF
    515          #endif
    516          
    517          #if defined INTER_PAN
    518          /***************************************************************************************************
    519           * @fn      MT_AfInterPanCtl
    520           *
    521           * @brief   Process the AF Inter Pan control command.
    522           *
    523           * @param   pBuf - pointer to the received buffer
    524           *
    525           * @return  none
    526           ***************************************************************************************************/
    527          static void MT_AfInterPanCtl(uint8 *pBuf)
    528          {
    529            uint8 cmd, rtrn;
    530            uint16 panId;
    531            endPointDesc_t *pEP;
    532          
    533            cmd = pBuf[MT_RPC_POS_CMD1];
    534            pBuf += MT_RPC_FRAME_HDR_SZ;
    535          
    536            switch (*pBuf++)  // Inter-pan request parameter.
    537            {
    538            case InterPanClr:
    539              rtrn = StubAPS_SetIntraPanChannel();           // Switch channel back to the NIB channel.
    540              break;
    541          
    542            case InterPanSet:
    543              rtrn = StubAPS_SetInterPanChannel(*pBuf);      // Set channel for inter-pan communication.
    544              break;
    545          
    546            case InterPanReg:
    547              if ((pEP = afFindEndPointDesc(*pBuf)))
    548              {
    549                StubAPS_RegisterApp(pEP);
    550                rtrn = SUCCESS;
    551              }
    552              else
    553              {
    554                rtrn = FAILURE;
    555              }
    556              break;
    557          
    558            case InterPanChk:
    559              panId = BUILD_UINT16(pBuf[0], pBuf[1]);
    560              rtrn = (StubAPS_InterPan(panId, pBuf[2])) ? ZSuccess : ZFailure;
    561              break;
    562          
    563            default:
    564              rtrn = afStatus_INVALID_PARAMETER;
    565              break;
    566            }
    567          
    568            MT_BuildAndSendZToolResponse(((uint8)MT_RPC_CMD_SRSP | (uint8)MT_RPC_SYS_AF), cmd, 1, &rtrn);
    569          }
    570          #endif
    571          
    572          /***************************************************************************************************
    573           * @fn      MT_AfDataConfirm
    574           *
    575           * @brief   Process
    576           *
    577           * @param   pBuf - pointer to the received buffer
    578           *
    579           * @return  none
    580           ***************************************************************************************************/

   \                                 In  segment BANKED_CODE, align 1, keep-with-next
    581          void MT_AfDataConfirm(afDataConfirm_t *pMsg)
   \                     MT_AfDataConfirm:
    582          {
   \   000000   C082         PUSH    DPL
   \   000002   C083         PUSH    DPH
   \   000004                ; Saved register size: 2
   \   000004                ; Auto size: 3
   \   000004   74FD         MOV     A,#-0x3
   \   000006   12....       LCALL   ?ALLOC_XSTACK8
    583            uint8 retArray[3];
    584          
    585            retArray[0] = pMsg->hdr.status;
   \   000009   8A82         MOV     DPL,R2
   \   00000B   8B83         MOV     DPH,R3
   \   00000D   A3           INC     DPTR
   \   00000E   E0           MOVX    A,@DPTR
   \   00000F   85..82       MOV     DPL,?XSP + 0
   \   000012   85..83       MOV     DPH,?XSP + 1
   \   000015   12....       LCALL   ?Subroutine31 & 0xFFFF
    586            retArray[1] = pMsg->endpoint;
   \                     ??CrossCallReturnLabel_51:
   \   000018   C0E0         PUSH    A
   \   00001A   7401         MOV     A,#0x1
   \   00001C   12....       LCALL   ?XSTACK_DISP0_8
   \   00001F   D0E0         POP     A
   \   000021   12....       LCALL   ?Subroutine47 & 0xFFFF
    587            retArray[2] = pMsg->transID;
   \                     ??CrossCallReturnLabel_88:
   \   000024   A3           INC     DPTR
   \   000025   A3           INC     DPTR
   \   000026   E0           MOVX    A,@DPTR
   \   000027   C0E0         PUSH    A
   \   000029   7402         MOV     A,#0x2
   \   00002B   12....       LCALL   ?XSTACK_DISP0_8
   \   00002E   D0E0         POP     A
   \   000030   F0           MOVX    @DPTR,A
    588          
    589            /* Build and send back the response */
    590            MT_BuildAndSendZToolResponse(((uint8)MT_RPC_CMD_AREQ | (uint8)MT_RPC_SYS_AF), MT_AF_DATA_CONFIRM, 3, retArray);
   \   000031                ; Setup parameters for call to function MT_BuildAndSendZToolResponse
   \   000031   AC..         MOV     R4,?XSP + 0
   \   000033   AD..         MOV     R5,?XSP + 1
   \   000035   7B03         MOV     R3,#0x3
   \   000037   7A80         MOV     R2,#-0x80
   \   000039   7944         MOV     R1,#0x44
   \   00003B   12....       LCALL   ??MT_BuildAndSendZToolResponse?relay; Banked call to: MT_BuildAndSendZToolResponse
    591          }
   \   00003E   7403         MOV     A,#0x3
   \   000040   12....       LCALL   ?DEALLOC_XSTACK8
   \   000043   D083         POP     DPH
   \   000045   D082         POP     DPL
   \   000047   02....       LJMP    ?BRET
    592          
    593          /***************************************************************************************************
    594           * @fn          MT_AfIncomingMsg
    595           *
    596           * @brief       Process the callback subscription for AF Incoming data.
    597           *
    598           * @param       pkt - Incoming AF data.
    599           *
    600           * @return      none
    601           ***************************************************************************************************/

   \                                 In  segment BANKED_CODE, align 1, keep-with-next
    602          void MT_AfIncomingMsg(afIncomingMSGPacket_t *pMsg)
   \                     MT_AfIncomingMsg:
    603          {
   \   000000                REQUIRE ?V0
   \   000000                REQUIRE ?V1
   \   000000                REQUIRE ?V2
   \   000000                REQUIRE ?V3
   \   000000                REQUIRE ?V4
   \   000000                REQUIRE ?V5
   \   000000                REQUIRE ?V6
   \   000000                REQUIRE ?V7
   \   000000   74F0         MOV     A,#-0x10
   \   000002   12....       LCALL   ?BANKED_ENTER_XDATA
   \   000005                ; Saved register size: 16
   \   000005                ; Auto size: 7
   \   000005   74F9         MOV     A,#-0x7
   \   000007   12....       LCALL   ?ALLOC_XSTACK8
   \   00000A   85..82       MOV     DPL,?XSP + 0
   \   00000D   85..83       MOV     DPH,?XSP + 1
   \   000010   12....       LCALL   ?Subroutine39 & 0xFFFF
    604            #define MT_AF_INC_MSG_LEN  17
    605            #define MT_AF_INC_MSG_EXT  10
    606          
    607            uint16 dataLen = pMsg->cmd.DataLength;  // Length of the data section in the response packet.
   \                     ??CrossCallReturnLabel_76:
   \   000013   12....       LCALL   ??Subroutine58_0 & 0xFFFF
   \                     ??CrossCallReturnLabel_117:
   \   000016   2420         ADD     A,#0x20
   \   000018   F582         MOV     DPL,A
   \   00001A   E4           CLR     A
   \   00001B   38           ADDC    A,R0
   \   00001C   F583         MOV     DPH,A
   \   00001E   E0           MOVX    A,@DPTR
   \   00001F   F5..         MOV     ?V6,A
   \   000021   A3           INC     DPTR
   \   000022   E0           MOVX    A,@DPTR
   \   000023   F5..         MOV     ?V7,A
    608            uint16 respLen = MT_AF_INC_MSG_LEN + dataLen;
   \   000025   E5..         MOV     A,?V6
   \   000027   2411         ADD     A,#0x11
   \   000029   F5..         MOV     ?V4,A
   \   00002B   E4           CLR     A
   \   00002C   35..         ADDC    A,?V7
   \   00002E   F5..         MOV     ?V5,A
    609            uint8 cmd = MT_AF_INCOMING_MSG;
   \   000030   7404         MOV     A,#0x4
   \   000032   12....       LCALL   ?XSTACK_DISP0_8
   \   000035   7481         MOV     A,#-0x7f
   \   000037   F0           MOVX    @DPTR,A
    610            uint8 *pRsp, *pTmp;
    611            mtAfInMsgList_t *pItem = NULL;
   \   000038   7402         MOV     A,#0x2
   \   00003A   12....       LCALL   ?XSTACK_DISP0_8
   \   00003D   E4           CLR     A
   \   00003E   F0           MOVX    @DPTR,A
   \   00003F   A3           INC     DPTR
   \   000040   F0           MOVX    @DPTR,A
    612          
    613          #if defined INTER_PAN
    614            if (StubAPS_InterPan(pMsg->srcAddr.panId, pMsg->srcAddr.endPoint))
    615            {
    616              cmd = MT_AF_INCOMING_MSG_EXT;
    617            }
    618            else
    619          #endif
    620            if ((pMsg->srcAddr.addrMode == afAddr64Bit) ||
    621                (respLen > (uint16)(MT_RPC_DATA_MAX - MT_AF_INC_MSG_EXT)))
   \   000041   85..82       MOV     DPL,?XSP + 0
   \   000044   85..83       MOV     DPH,?XSP + 1
   \   000047   12....       LCALL   ?Subroutine15 & 0xFFFF
   \                     ??CrossCallReturnLabel_18:
   \   00004A   6403         XRL     A,#0x3
   \   00004C   600B         JZ      ??MT_AfIncomingMsg_0
   \   00004E   C3           CLR     C
   \   00004F   E5..         MOV     A,?V4
   \   000051   94F1         SUBB    A,#-0xf
   \   000053   E5..         MOV     A,?V5
   \   000055   9400         SUBB    A,#0x0
   \   000057   4013         JC      ??MT_AfIncomingMsg_1
    622            {
    623              cmd = MT_AF_INCOMING_MSG_EXT;
   \                     ??MT_AfIncomingMsg_0:
   \   000059   7404         MOV     A,#0x4
   \   00005B   12....       LCALL   ?XSTACK_DISP0_8
   \   00005E   7482         MOV     A,#-0x7e
   \   000060   F0           MOVX    @DPTR,A
    624            }
    625          
    626            if (cmd == MT_AF_INCOMING_MSG_EXT)
    627            {
    628              respLen += MT_AF_INC_MSG_EXT;
   \   000061   E5..         MOV     A,?V4
   \   000063   240A         ADD     A,#0xa
   \   000065   F5..         MOV     ?V4,A
   \   000067   E4           CLR     A
   \   000068   35..         ADDC    A,?V5
   \   00006A   F5..         MOV     ?V5,A
    629            }
    630          
    631            if (respLen > (uint16)MT_RPC_DATA_MAX)
   \                     ??MT_AfIncomingMsg_1:
   \   00006C   C3           CLR     C
   \   00006D   E5..         MOV     A,?V4
   \   00006F   94FB         SUBB    A,#-0x5
   \   000071   E5..         MOV     A,?V5
   \   000073   9400         SUBB    A,#0x0
   \   000075   4049         JC      ??MT_AfIncomingMsg_2
    632            {
    633              if ((pItem = (mtAfInMsgList_t *)osal_mem_alloc(sizeof(mtAfInMsgList_t) + dataLen)) == NULL)
   \   000077                ; Setup parameters for call to function osal_mem_alloc
   \   000077   E5..         MOV     A,?V6
   \   000079   2409         ADD     A,#0x9
   \   00007B   FA           MOV     R2,A
   \   00007C   E4           CLR     A
   \   00007D   35..         ADDC    A,?V7
   \   00007F   FB           MOV     R3,A
   \   000080   12....       LCALL   ??osal_mem_alloc?relay; Banked call to: osal_mem_alloc
   \   000083   7402         MOV     A,#0x2
   \   000085   12....       LCALL   ?XSTACK_DISP0_8
   \   000088   12....       LCALL   ?Subroutine39 & 0xFFFF
   \                     ??CrossCallReturnLabel_77:
   \   00008B   7402         MOV     A,#0x2
   \   00008D   12....       LCALL   ?XSTACK_DISP0_8
   \   000090   12....       LCALL   ??Subroutine65_0 & 0xFFFF
   \                     ??CrossCallReturnLabel_158:
   \   000093   7003         JNZ     $+5
   \   000095   02....       LJMP    ??MT_AfIncomingMsg_3 & 0xFFFF
    634              {
    635                return;  // If cannot hold a huge message, cannot give indication at all.
    636              }
    637          
    638              pItem->data = (uint8 *)(pItem+1);
   \   000098   7402         MOV     A,#0x2
   \   00009A   12....       LCALL   ?XSTACK_DISP0_8
   \   00009D   E0           MOVX    A,@DPTR
   \   00009E   2409         ADD     A,#0x9
   \   0000A0   F8           MOV     R0,A
   \   0000A1   A3           INC     DPTR
   \   0000A2   E0           MOVX    A,@DPTR
   \   0000A3   3400         ADDC    A,#0x0
   \   0000A5   F9           MOV     R1,A
   \   0000A6   7402         MOV     A,#0x2
   \   0000A8   12....       LCALL   ?XSTACK_DISP0_8
   \   0000AB   12....       LCALL   ?Subroutine29 & 0xFFFF
   \                     ??CrossCallReturnLabel_46:
   \   0000AE   A3           INC     DPTR
   \   0000AF   A3           INC     DPTR
   \   0000B0   12....       LCALL   ?Subroutine37 & 0xFFFF
    639              respLen -= dataLen;  // Zero data bytes are sent with an over-sized incoming indication.
   \                     ??CrossCallReturnLabel_67:
   \   0000B3   C3           CLR     C
   \   0000B4   E5..         MOV     A,?V4
   \   0000B6   95..         SUBB    A,?V6
   \   0000B8   F5..         MOV     ?V4,A
   \   0000BA   E5..         MOV     A,?V5
   \   0000BC   95..         SUBB    A,?V7
   \   0000BE   F5..         MOV     ?V5,A
    640            }
    641          
    642            // Attempt to allocate memory for the response packet.
    643            if ((pRsp = osal_mem_alloc(respLen)) == NULL)
   \                     ??MT_AfIncomingMsg_2:
   \   0000C0                ; Setup parameters for call to function osal_mem_alloc
   \   0000C0   AA..         MOV     R2,?V4
   \   0000C2   AB..         MOV     R3,?V5
   \   0000C4   12....       LCALL   ??osal_mem_alloc?relay; Banked call to: osal_mem_alloc
   \   0000C7   7405         MOV     A,#0x5
   \   0000C9   12....       LCALL   ?XSTACK_DISP0_8
   \   0000CC   12....       LCALL   ?Subroutine39 & 0xFFFF
   \                     ??CrossCallReturnLabel_78:
   \   0000CF   7405         MOV     A,#0x5
   \   0000D1   12....       LCALL   ?XSTACK_DISP0_8
   \   0000D4   12....       LCALL   ??Subroutine65_0 & 0xFFFF
   \                     ??CrossCallReturnLabel_159:
   \   0000D7   7018         JNZ     ??MT_AfIncomingMsg_4
    644            {
    645              if (pItem != NULL)
   \   0000D9   7402         MOV     A,#0x2
   \   0000DB   12....       LCALL   ?XSTACK_DISP0_8
   \   0000DE   12....       LCALL   ??Subroutine65_0 & 0xFFFF
   \                     ??CrossCallReturnLabel_160:
   \   0000E1   600B         JZ      ??MT_AfIncomingMsg_5
    646              {
    647                (void)osal_mem_free(pItem);
   \   0000E3                ; Setup parameters for call to function osal_mem_free
   \   0000E3   7402         MOV     A,#0x2
   \   0000E5   12....       LCALL   ?XSTACK_DISP0_8
   \   0000E8   12....       LCALL   ??Subroutine62_0 & 0xFFFF
    648              }
   \                     ??CrossCallReturnLabel_129:
   \   0000EB   12....       LCALL   ??osal_mem_free?relay; Banked call to: osal_mem_free
    649              return;
   \                     ??MT_AfIncomingMsg_5:
   \   0000EE   02....       LJMP    ??MT_AfIncomingMsg_3 & 0xFFFF
    650            }
    651            pTmp = pRsp;
   \                     ??MT_AfIncomingMsg_4:
   \   0000F1   7405         MOV     A,#0x5
   \   0000F3   12....       LCALL   ?XSTACK_DISP0_8
   \   0000F6   E0           MOVX    A,@DPTR
   \   0000F7   FE           MOV     R6,A
   \   0000F8   A3           INC     DPTR
   \   0000F9   E0           MOVX    A,@DPTR
   \   0000FA   FF           MOV     R7,A
    652          
    653            /* Group ID */
    654            *pTmp++ = LO_UINT16(pMsg->groupId);
   \   0000FB   85..82       MOV     DPL,?XSP + 0
   \   0000FE   85..83       MOV     DPH,?XSP + 1
   \   000101   E0           MOVX    A,@DPTR
   \   000102   2402         ADD     A,#0x2
   \   000104   12....       LCALL   ?Subroutine13 & 0xFFFF
   \                     ??CrossCallReturnLabel_16:
   \   000107   AE82         MOV     R6,DPL
   \   000109   AF83         MOV     R7,DPH
    655            *pTmp++ = HI_UINT16(pMsg->groupId);
   \   00010B   8882         MOV     DPL,R0
   \   00010D   8983         MOV     DPH,R1
   \   00010F   A3           INC     DPTR
   \   000110   12....       LCALL   ?Subroutine11 & 0xFFFF
    656          
    657            /* Cluster ID */
    658            *pTmp++ = LO_UINT16(pMsg->clusterId);
   \                     ??CrossCallReturnLabel_11:
   \   000113   2404         ADD     A,#0x4
   \   000115   12....       LCALL   ?Subroutine7 & 0xFFFF
    659            *pTmp++ = HI_UINT16(pMsg->clusterId);
   \                     ??CrossCallReturnLabel_7:
   \   000118   12....       LCALL   ??Subroutine61_0 & 0xFFFF
   \                     ??CrossCallReturnLabel_121:
   \   00011B   0E           INC     R6
   \   00011C   AF83         MOV     R7,DPH
    660          
    661            if (cmd == MT_AF_INCOMING_MSG_EXT)
   \   00011E   7404         MOV     A,#0x4
   \   000120   12....       LCALL   ?XSTACK_DISP0_8
   \   000123   E0           MOVX    A,@DPTR
   \   000124   6482         XRL     A,#0x82
   \   000126   85..82       MOV     DPL,?XSP + 0
   \   000129   85..83       MOV     DPH,?XSP + 1
   \   00012C   7065         JNZ     ??MT_AfIncomingMsg_6
    662            {
    663              *pTmp++ = pMsg->srcAddr.addrMode;
   \   00012E   E0           MOVX    A,@DPTR
   \   00012F   240E         ADD     A,#0xe
   \   000131   12....       LCALL   ?Subroutine13 & 0xFFFF
   \                     ??CrossCallReturnLabel_17:
   \   000134   0E           INC     R6
   \   000135   AF83         MOV     R7,DPH
    664          
    665              if (pMsg->srcAddr.addrMode == afAddr64Bit)
   \   000137   8882         MOV     DPL,R0
   \   000139   8983         MOV     DPH,R1
   \   00013B   E0           MOVX    A,@DPTR
   \   00013C   6403         XRL     A,#0x3
   \   00013E   85..82       MOV     DPL,?XSP + 0
   \   000141   85..83       MOV     DPH,?XSP + 1
   \   000144   7025         JNZ     ??MT_AfIncomingMsg_7
    666              {
    667                (void)osal_memcpy(pTmp, pMsg->srcAddr.addr.extAddr, Z_EXTADDR_LEN);
   \   000146                ; Setup parameters for call to function osal_memcpy
   \   000146   E0           MOVX    A,@DPTR
   \   000147   2406         ADD     A,#0x6
   \   000149   F5..         MOV     ?V0,A
   \   00014B   A3           INC     DPTR
   \   00014C   E0           MOVX    A,@DPTR
   \   00014D   3400         ADDC    A,#0x0
   \   00014F   F5..         MOV     ?V1,A
   \   000151   75..00       MOV     ?V2,#0x0
   \   000154   78..         MOV     R0,#?V0
   \   000156   12....       LCALL   ?PUSH_XSTACK_I_THREE
   \   000159   7C08         MOV     R4,#0x8
   \   00015B   7D00         MOV     R5,#0x0
   \   00015D   EE           MOV     A,R6
   \   00015E   FA           MOV     R2,A
   \   00015F   EF           MOV     A,R7
   \   000160   FB           MOV     R3,A
   \   000161   12....       LCALL   ??osal_memcpy?relay  ; Banked call to: osal_memcpy
   \   000164   7403         MOV     A,#0x3
   \   000166   12....       LCALL   ?DEALLOC_XSTACK8
   \   000169   8012         SJMP    ??MT_AfIncomingMsg_8
    668              }
    669              else
    670              {
    671                pTmp[0] = LO_UINT16(pMsg->srcAddr.addr.shortAddr);
   \                     ??MT_AfIncomingMsg_7:
   \   00016B   E0           MOVX    A,@DPTR
   \   00016C   2406         ADD     A,#0x6
   \   00016E   12....       LCALL   ?Subroutine50 & 0xFFFF
    672                pTmp[1] = HI_UINT16(pMsg->srcAddr.addr.shortAddr);
   \                     ??CrossCallReturnLabel_93:
   \   000171   8882         MOV     DPL,R0
   \   000173   8983         MOV     DPH,R1
   \   000175   A3           INC     DPTR
   \   000176   E0           MOVX    A,@DPTR
   \   000177   8E82         MOV     DPL,R6
   \   000179   8F83         MOV     DPH,R7
   \   00017B   A3           INC     DPTR
   \   00017C   F0           MOVX    @DPTR,A
    673              }
    674              pTmp += Z_EXTADDR_LEN;
   \                     ??MT_AfIncomingMsg_8:
   \   00017D   EE           MOV     A,R6
   \   00017E   2408         ADD     A,#0x8
   \   000180   FE           MOV     R6,A
   \   000181   5001         JNC     ??MT_AfIncomingMsg_9
   \   000183   0F           INC     R7
    675          
    676              *pTmp++ = pMsg->srcAddr.endPoint;
   \                     ??MT_AfIncomingMsg_9:
   \   000184   12....       LCALL   ??Subroutine58_0 & 0xFFFF
   \                     ??CrossCallReturnLabel_118:
   \   000187   12....       LCALL   ?Subroutine14 & 0xFFFF
    677          #if defined INTER_PAN
    678              *pTmp++ = LO_UINT16(pMsg->srcAddr.panId);
    679              *pTmp++ = HI_UINT16(pMsg->srcAddr.panId);
    680          #else
    681              *pTmp++ = 0;
   \                     ??CrossCallReturnLabel_124:
   \   00018A   E4           CLR     A
   \   00018B   F0           MOVX    @DPTR,A
   \   00018C   A3           INC     DPTR
    682              *pTmp++ = 0;
   \   00018D   F0           MOVX    @DPTR,A
   \   00018E   A3           INC     DPTR
   \   00018F   0E           INC     R6
   \   000190   0E           INC     R6
   \   000191   800C         SJMP    ??CrossCallReturnLabel_125
    683          #endif
    684            }
    685            else
    686            {
    687              /* Source Address */
    688              *pTmp++ = LO_UINT16(pMsg->srcAddr.addr.shortAddr);
   \                     ??MT_AfIncomingMsg_6:
   \   000193   E0           MOVX    A,@DPTR
   \   000194   2406         ADD     A,#0x6
   \   000196   12....       LCALL   ?Subroutine7 & 0xFFFF
    689              *pTmp++ = HI_UINT16(pMsg->srcAddr.addr.shortAddr);
    690          
    691              /* Source EP */
    692              *pTmp++ = pMsg->srcAddr.endPoint;
    693            }
   \                     ??CrossCallReturnLabel_8:
   \   000199   12....       LCALL   ??Subroutine63_0 & 0xFFFF
   \                     ??CrossCallReturnLabel_136:
   \   00019C   12....       LCALL   ?Subroutine14 & 0xFFFF
   \                     ??CrossCallReturnLabel_125:
   \   00019F   0E           INC     R6
   \   0001A0   12....       LCALL   ?Subroutine21 & 0xFFFF
    694          
    695            /* Destination EP */
    696            *pTmp++ = pMsg->endPoint;
   \                     ??CrossCallReturnLabel_111:
   \   0001A3   2414         ADD     A,#0x14
   \   0001A5   12....       LCALL   ??Subroutine60_0 & 0xFFFF
   \                     ??CrossCallReturnLabel_122:
   \   0001A8   AE82         MOV     R6,DPL
   \   0001AA   12....       LCALL   ?Subroutine21 & 0xFFFF
    697          
    698            /* WasBroadCast */
    699            *pTmp++ = pMsg->wasBroadcast;
   \                     ??CrossCallReturnLabel_112:
   \   0001AD   2415         ADD     A,#0x15
   \   0001AF   12....       LCALL   ?Subroutine4 & 0xFFFF
    700          
    701            /* LinkQuality */
    702            *pTmp++ = pMsg->LinkQuality;
   \                     ??CrossCallReturnLabel_134:
   \   0001B2   2416         ADD     A,#0x16
   \   0001B4   12....       LCALL   ?Subroutine4 & 0xFFFF
    703          
    704            /* SecurityUse */
    705            *pTmp++ = pMsg->SecurityUse;
   \                     ??CrossCallReturnLabel_135:
   \   0001B7   2419         ADD     A,#0x19
   \   0001B9   F582         MOV     DPL,A
   \   0001BB   E4           CLR     A
   \   0001BC   38           ADDC    A,R0
   \   0001BD   F583         MOV     DPH,A
   \   0001BF   12....       LCALL   ?Subroutine11 & 0xFFFF
    706          
    707            /* Timestamp */
    708            *pTmp++ = BREAK_UINT32(pMsg->timestamp, 0);
   \                     ??CrossCallReturnLabel_12:
   \   0001C2   241A         ADD     A,#0x1a
   \   0001C4   FA           MOV     R2,A
   \   0001C5   A3           INC     DPTR
   \   0001C6   E0           MOVX    A,@DPTR
   \   0001C7   3400         ADDC    A,#0x0
   \   0001C9   FB           MOV     R3,A
   \   0001CA   8A82         MOV     DPL,R2
   \   0001CC   8B83         MOV     DPH,R3
   \   0001CE   78..         MOV     R0,#?V0
   \   0001D0   12....       LCALL   ?L_MOV_X
   \   0001D3   12....       LCALL   ?Subroutine30 & 0xFFFF
    709            *pTmp++ = BREAK_UINT32(pMsg->timestamp, 1);
   \                     ??CrossCallReturnLabel_103:
   \   0001D6   12....       LCALL   ?L_MOV_X
   \   0001D9   E5..         MOV     A,?V1
   \   0001DB   8E82         MOV     DPL,R6
   \   0001DD   8F83         MOV     DPH,R7
   \   0001DF   12....       LCALL   ??Subroutine56_0 & 0xFFFF
    710            *pTmp++ = BREAK_UINT32(pMsg->timestamp, 2);
   \                     ??CrossCallReturnLabel_105:
   \   0001E2   12....       LCALL   ?L_MOV_X
   \   0001E5   7410         MOV     A,#0x10
   \   0001E7   78..         MOV     R0,#?V0
   \   0001E9   12....       LCALL   ?UL_SHR
   \   0001EC   12....       LCALL   ?Subroutine30 & 0xFFFF
    711            *pTmp++ = BREAK_UINT32(pMsg->timestamp, 3);
   \                     ??CrossCallReturnLabel_104:
   \   0001EF   12....       LCALL   ?L_MOV_X
   \   0001F2   7418         MOV     A,#0x18
   \   0001F4   78..         MOV     R0,#?V0
   \   0001F6   12....       LCALL   ?UL_SHR
   \   0001F9   8E82         MOV     DPL,R6
   \   0001FB   8F83         MOV     DPH,R7
   \   0001FD   E5..         MOV     A,?V0
   \   0001FF   F0           MOVX    @DPTR,A
   \   000200   A3           INC     DPTR
   \   000201   0E           INC     R6
   \   000202   AF83         MOV     R7,DPH
    712          
    713          
    714            /* Data Length */
    715            if (cmd == MT_AF_INCOMING_MSG_EXT)
   \   000204   7404         MOV     A,#0x4
   \   000206   12....       LCALL   ?XSTACK_DISP0_8
   \   000209   E0           MOVX    A,@DPTR
   \   00020A   6482         XRL     A,#0x82
   \   00020C   7012         JNZ     ??MT_AfIncomingMsg_10
    716            {
    717              /* Z-Tool apparently takes the last Byte before the data buffer as the dynamic length and
    718               * ignores the bigger UInt16 length of an EXT incoming message. But no data bytes will be sent
    719               * with a huge message, so it's necessary to work-around and fake-out Z-Tool with a zero here.
    720               */
    721              *pTmp++ = 0;  // TODO - workaround Z-Tool shortcoming; should be: = pMsg->cmd.TransSeqNumber;
   \   00020E   8E82         MOV     DPL,R6
   \   000210   8F83         MOV     DPH,R7
   \   000212   E4           CLR     A
   \   000213   F0           MOVX    @DPTR,A
   \   000214   A3           INC     DPTR
    722              *pTmp++ = LO_UINT16(dataLen);
   \   000215   E5..         MOV     A,?V6
   \   000217   F0           MOVX    @DPTR,A
   \   000218   A3           INC     DPTR
    723              *pTmp++ = HI_UINT16(dataLen);
   \   000219   E5..         MOV     A,?V7
   \   00021B   F0           MOVX    @DPTR,A
   \   00021C   A3           INC     DPTR
   \   00021D   0E           INC     R6
   \   00021E   800C         SJMP    ??MT_AfIncomingMsg_11
    724            }
    725            else
    726            {
    727              *pTmp++ = pMsg->cmd.TransSeqNumber;
   \                     ??MT_AfIncomingMsg_10:
   \   000220   12....       LCALL   ??Subroutine58_0 & 0xFFFF
   \                     ??CrossCallReturnLabel_119:
   \   000223   241F         ADD     A,#0x1f
   \   000225   12....       LCALL   ??Subroutine60_0 & 0xFFFF
    728              *pTmp++ = dataLen;
   \                     ??CrossCallReturnLabel_123:
   \   000228   E5..         MOV     A,?V6
   \   00022A   F0           MOVX    @DPTR,A
   \   00022B   A3           INC     DPTR
   \                     ??MT_AfIncomingMsg_11:
   \   00022C   0E           INC     R6
   \   00022D   0E           INC     R6
   \   00022E   AF83         MOV     R7,DPH
    729            }
    730          
    731            /* Data */
    732            if (pItem != NULL)
   \   000230   7402         MOV     A,#0x2
   \   000232   12....       LCALL   ?XSTACK_DISP0_8
   \   000235   12....       LCALL   ??Subroutine65_0 & 0xFFFF
   \                     ??CrossCallReturnLabel_161:
   \   000238   6074         JZ      ??MT_AfIncomingMsg_12
    733            {
    734              // Enqueue the new huge incoming item.
    735              pItem->next = pMtAfInMsgList;
   \   00023A   12....       LCALL   ?Subroutine22 & 0xFFFF
   \                     ??CrossCallReturnLabel_108:
   \   00023D   7402         MOV     A,#0x2
   \   00023F   12....       LCALL   ?XSTACK_DISP0_8
   \   000242   12....       LCALL   ?Subroutine29 & 0xFFFF
   \                     ??CrossCallReturnLabel_47:
   \   000245   12....       LCALL   ?Subroutine37 & 0xFFFF
    736              pMtAfInMsgList = pItem;
   \                     ??CrossCallReturnLabel_68:
   \   000248   7402         MOV     A,#0x2
   \   00024A   12....       LCALL   ?XSTACK_DISP0_8
   \   00024D   12....       LCALL   ?Subroutine16 & 0xFFFF
    737          
    738              // Setup to time-out the huge incoming item if host does not MT_AF_DATA_RETRIEVE it.
    739              pItem->tick = MT_AF_EXEC_CNT;
   \                     ??CrossCallReturnLabel_21:
   \   000250   7402         MOV     A,#0x2
   \   000252   12....       LCALL   ?XSTACK_DISP0_8
   \   000255   12....       LCALL   ??Subroutine59_0 & 0xFFFF
   \                     ??CrossCallReturnLabel_116:
   \   000258   2408         ADD     A,#0x8
   \   00025A   F582         MOV     DPL,A
   \   00025C   E4           CLR     A
   \   00025D   38           ADDC    A,R0
   \   00025E   F583         MOV     DPH,A
   \   000260   12....       LCALL   ?Subroutine36 & 0xFFFF
    740              if (ZSuccess != osal_start_timerEx(MT_TaskID, MT_AF_EXEC_EVT, MT_AF_EXEC_DLY))
   \                     ??CrossCallReturnLabel_64:
   \   000263   12....       LCALL   ??osal_start_timerEx?relay; Banked call to: osal_start_timerEx
   \   000266   E9           MOV     A,R1
   \   000267   600C         JZ      ??MT_AfIncomingMsg_13
    741              {
    742                (void)osal_set_event(MT_TaskID, MT_AF_EXEC_EVT);
   \   000269                ; Setup parameters for call to function osal_set_event
   \   000269   7A08         MOV     R2,#0x8
   \   00026B   7B00         MOV     R3,#0x0
   \   00026D   90....       MOV     DPTR,#MT_TaskID
   \   000270   E0           MOVX    A,@DPTR
   \   000271   F9           MOV     R1,A
   \   000272   12....       LCALL   ??osal_set_event?relay; Banked call to: osal_set_event
    743              }
    744          
    745              pItem->timestamp = pMsg->timestamp;
   \                     ??MT_AfIncomingMsg_13:
   \   000275   12....       LCALL   ??Subroutine58_0 & 0xFFFF
   \                     ??CrossCallReturnLabel_120:
   \   000278   241A         ADD     A,#0x1a
   \   00027A   F582         MOV     DPL,A
   \   00027C   E4           CLR     A
   \   00027D   38           ADDC    A,R0
   \   00027E   F583         MOV     DPH,A
   \   000280   12....       LCALL   ?XLOAD_R0123
   \   000283   7402         MOV     A,#0x2
   \   000285   12....       LCALL   ?XSTACK_DISP0_8
   \   000288   E0           MOVX    A,@DPTR
   \   000289   FC           MOV     R4,A
   \   00028A   A3           INC     DPTR
   \   00028B   E0           MOVX    A,@DPTR
   \   00028C   F583         MOV     DPH,A
   \   00028E   8C82         MOV     DPL,R4
   \   000290   A3           INC     DPTR
   \   000291   A3           INC     DPTR
   \   000292   A3           INC     DPTR
   \   000293   A3           INC     DPTR
   \   000294   12....       LCALL   ?XSTORE_R0123
    746              (void)osal_memcpy(pItem->data, pMsg->cmd.Data, dataLen);
   \   000297                ; Setup parameters for call to function osal_memcpy
   \   000297   12....       LCALL   ?Subroutine8 & 0xFFFF
    747            }
   \                     ??CrossCallReturnLabel_9:
   \   00029A   12....       LCALL   ?PUSH_XSTACK_I_THREE
   \   00029D   AC..         MOV     R4,?V6
   \   00029F   AD..         MOV     R5,?V7
   \   0002A1   7405         MOV     A,#0x5
   \   0002A3   12....       LCALL   ?XSTACK_DISP0_8
   \   0002A6   12....       LCALL   ?Subroutine5 & 0xFFFF
   \                     ??CrossCallReturnLabel_0:
   \   0002A9   FA           MOV     R2,A
   \   0002AA   A3           INC     DPTR
   \   0002AB   E0           MOVX    A,@DPTR
   \   0002AC   800D         SJMP    ??MT_AfIncomingMsg_14
    748            else
    749            {
    750              (void)osal_memcpy(pTmp, pMsg->cmd.Data, dataLen);
   \                     ??MT_AfIncomingMsg_12:
   \   0002AE                ; Setup parameters for call to function osal_memcpy
   \   0002AE   12....       LCALL   ?Subroutine8 & 0xFFFF
    751            }
   \                     ??CrossCallReturnLabel_10:
   \   0002B1   12....       LCALL   ?PUSH_XSTACK_I_THREE
   \   0002B4   AC..         MOV     R4,?V6
   \   0002B6   AD..         MOV     R5,?V7
   \   0002B8   EE           MOV     A,R6
   \   0002B9   FA           MOV     R2,A
   \   0002BA   EF           MOV     A,R7
   \                     ??MT_AfIncomingMsg_14:
   \   0002BB   FB           MOV     R3,A
   \   0002BC   12....       LCALL   ??osal_memcpy?relay  ; Banked call to: osal_memcpy
   \   0002BF   7403         MOV     A,#0x3
   \   0002C1   12....       LCALL   ?DEALLOC_XSTACK8
    752          
    753            /* Build and send back the response */
    754            MT_BuildAndSendZToolResponse(((uint8)MT_RPC_CMD_AREQ|(uint8)MT_RPC_SYS_AF), cmd, respLen, pRsp);
   \   0002C4                ; Setup parameters for call to function MT_BuildAndSendZToolResponse
   \   0002C4   7405         MOV     A,#0x5
   \   0002C6   12....       LCALL   ?XSTACK_DISP0_8
   \   0002C9   12....       LCALL   ?Subroutine27 & 0xFFFF
   \                     ??CrossCallReturnLabel_40:
   \   0002CC   AB..         MOV     R3,?V4
   \   0002CE   7404         MOV     A,#0x4
   \   0002D0   12....       LCALL   ?XSTACK_DISP0_8
   \   0002D3   E0           MOVX    A,@DPTR
   \   0002D4   FA           MOV     R2,A
   \   0002D5   7944         MOV     R1,#0x44
   \   0002D7   12....       LCALL   ??MT_BuildAndSendZToolResponse?relay; Banked call to: MT_BuildAndSendZToolResponse
    755          
    756            (void)osal_mem_free(pRsp);
   \   0002DA                ; Setup parameters for call to function osal_mem_free
   \   0002DA   7405         MOV     A,#0x5
   \   0002DC   12....       LCALL   ?XSTACK_DISP0_8
   \   0002DF   12....       LCALL   ??Subroutine62_0 & 0xFFFF
   \                     ??CrossCallReturnLabel_130:
   \   0002E2   12....       LCALL   ??osal_mem_free?relay; Banked call to: osal_mem_free
    757          }
   \                     ??MT_AfIncomingMsg_3:
   \   0002E5   7407         MOV     A,#0x7
   \   0002E7   02....       LJMP    ?Subroutine2 & 0xFFFF

   \                                 In  segment BANKED_CODE, align 1, keep-with-next
   \                     ?Subroutine30:
   \   000000   8E82         MOV     DPL,R6
   \   000002   8F83         MOV     DPH,R7
   \   000004   E5..         MOV     A,?V0
   \   000006                REQUIRE ??Subroutine56_0
   \   000006                ; // Fall through to label ??Subroutine56_0

   \                                 In  segment BANKED_CODE, align 1, keep-with-next
   \                     ??Subroutine56_0:
   \   000000   F0           MOVX    @DPTR,A
   \   000001   A3           INC     DPTR
   \   000002   0E           INC     R6
   \   000003   AF83         MOV     R7,DPH
   \   000005   8A82         MOV     DPL,R2
   \   000007   8B83         MOV     DPH,R3
   \   000009   78..         MOV     R0,#?V0
   \   00000B   22           RET

   \                                 In  segment BANKED_CODE, align 1, keep-with-next
   \                     ?Subroutine29:
   \   000000   E0           MOVX    A,@DPTR
   \   000001   FA           MOV     R2,A
   \   000002   A3           INC     DPTR
   \   000003   E0           MOVX    A,@DPTR
   \   000004   F583         MOV     DPH,A
   \   000006   8A82         MOV     DPL,R2
   \   000008   22           RET

   \                                 In  segment BANKED_CODE, align 1, keep-with-next
   \                     ?Subroutine21:
   \   000000   AF83         MOV     R7,DPH
   \   000002                REQUIRE ??Subroutine58_0
   \   000002                ; // Fall through to label ??Subroutine58_0

   \                                 In  segment BANKED_CODE, align 1, keep-with-next
   \                     ??Subroutine58_0:
   \   000000   85..82       MOV     DPL,?XSP + 0
   \   000003   85..83       MOV     DPH,?XSP + 1
   \   000006                REQUIRE ??Subroutine59_0
   \   000006                ; // Fall through to label ??Subroutine59_0

   \                                 In  segment BANKED_CODE, align 1, keep-with-next
   \                     ?Subroutine14:
   \   000000   240F         ADD     A,#0xf
   \   000002                REQUIRE ??Subroutine60_0
   \   000002                ; // Fall through to label ??Subroutine60_0

   \                                 In  segment BANKED_CODE, align 1, keep-with-next
   \                     ??Subroutine60_0:
   \   000000   F582         MOV     DPL,A
   \   000002   E4           CLR     A
   \   000003   38           ADDC    A,R0
   \   000004   F583         MOV     DPH,A
   \   000006                REQUIRE ??Subroutine61_0
   \   000006                ; // Fall through to label ??Subroutine61_0

   \                                 In  segment BANKED_CODE, align 1, keep-with-next
   \                     ??Subroutine61_0:
   \   000000   12....       LCALL   ?Subroutine52 & 0xFFFF
   \                     ??CrossCallReturnLabel_140:
   \   000003   A3           INC     DPTR
   \   000004   22           RET

   \                                 In  segment BANKED_CODE, align 1, keep-with-next
   \                     ?Subroutine13:
   \   000000   12....       LCALL   ?Subroutine43 & 0xFFFF
   \                     ??CrossCallReturnLabel_83:
   \   000003   22           RET

   \                                 In  segment BANKED_CODE, align 1, keep-with-next
   \                     ?Subroutine43:
   \   000000   12....       LCALL   ?Subroutine50 & 0xFFFF
   \                     ??CrossCallReturnLabel_94:
   \   000003   A3           INC     DPTR
   \   000004   22           RET

   \                                 In  segment BANKED_CODE, align 1, keep-with-next
   \                     ?Subroutine50:
   \   000000   F8           MOV     R0,A
   \   000001   A3           INC     DPTR
   \   000002   E0           MOVX    A,@DPTR
   \   000003   3400         ADDC    A,#0x0
   \   000005   F9           MOV     R1,A
   \   000006   8882         MOV     DPL,R0
   \   000008   8983         MOV     DPH,R1
   \   00000A   12....       LCALL   ?Subroutine52 & 0xFFFF
   \                     ??CrossCallReturnLabel_139:
   \   00000D   22           RET

   \                                 In  segment BANKED_CODE, align 1, keep-with-next
   \                     ?Subroutine52:
   \   000000   E0           MOVX    A,@DPTR
   \   000001   8E82         MOV     DPL,R6
   \   000003   8F83         MOV     DPH,R7
   \   000005   F0           MOVX    @DPTR,A
   \   000006   22           RET

   \                                 In  segment BANKED_CODE, align 1, keep-with-next
   \                     ?Subroutine11:
   \   000000   12....       LCALL   ?Subroutine42 & 0xFFFF
   \                     ??CrossCallReturnLabel_137:
   \   000003   E0           MOVX    A,@DPTR
   \   000004   22           RET

   \                                 In  segment BANKED_CODE, align 1, keep-with-next
   \                     ?Subroutine8:
   \   000000   85..82       MOV     DPL,?XSP + 0
   \   000003   85..83       MOV     DPH,?XSP + 1
   \   000006   12....       LCALL   ??Subroutine54_0 & 0xFFFF
   \                     ??CrossCallReturnLabel_142:
   \   000009   2422         ADD     A,#0x22
   \   00000B   F582         MOV     DPL,A
   \   00000D   E4           CLR     A
   \   00000E   38           ADDC    A,R0
   \   00000F   F583         MOV     DPH,A
   \   000011   E0           MOVX    A,@DPTR
   \   000012   F5..         MOV     ?V0,A
   \   000014   A3           INC     DPTR
   \   000015   E0           MOVX    A,@DPTR
   \   000016   F5..         MOV     ?V1,A
   \   000018   78..         MOV     R0,#?V0
   \   00001A   22           RET

   \                                 In  segment BANKED_CODE, align 1, keep-with-next
   \                     ?Subroutine7:
   \   000000   12....       LCALL   ?Subroutine43 & 0xFFFF
   \                     ??CrossCallReturnLabel_82:
   \   000003   0E           INC     R6
   \   000004   AF83         MOV     R7,DPH
   \   000006   8882         MOV     DPL,R0
   \   000008   8983         MOV     DPH,R1
   \   00000A   A3           INC     DPTR
   \   00000B   22           RET

   \                                 In  segment BANKED_CODE, align 1, keep-with-next
   \                     ?Subroutine4:
   \   000000   F582         MOV     DPL,A
   \   000002   E4           CLR     A
   \   000003   38           ADDC    A,R0
   \   000004   F583         MOV     DPH,A
   \   000006                REQUIRE ??Subroutine63_0
   \   000006                ; // Fall through to label ??Subroutine63_0

   \                                 In  segment BANKED_CODE, align 1, keep-with-next
   \                     ??Subroutine63_0:
   \   000000   12....       LCALL   ?Subroutine42 & 0xFFFF
   \                     ??CrossCallReturnLabel_138:
   \   000003   12....       LCALL   ??Subroutine54_0 & 0xFFFF
   \                     ??CrossCallReturnLabel_149:
   \   000006   22           RET

   \                                 In  segment BANKED_CODE, align 1, keep-with-next
   \                     ?Subroutine42:
   \   000000   12....       LCALL   ?Subroutine52 & 0xFFFF
   \                     ??CrossCallReturnLabel_141:
   \   000003   A3           INC     DPTR
   \   000004   0E           INC     R6
   \   000005   AF83         MOV     R7,DPH
   \   000007   85..82       MOV     DPL,?XSP + 0
   \   00000A   85..83       MOV     DPH,?XSP + 1
   \   00000D   22           RET

   \                                 In  segment BANKED_CODE, align 1, keep-with-next
   \                     ?Subroutine5:
   \   000000   12....       LCALL   ?Subroutine44 & 0xFFFF
   \                     ??CrossCallReturnLabel_151:
   \   000003   A3           INC     DPTR
   \   000004   A3           INC     DPTR
   \   000005   E0           MOVX    A,@DPTR
   \   000006   22           RET

   \                                 In  segment BANKED_CODE, align 1, keep-with-next
   \                     ?Subroutine15:
   \   000000   12....       LCALL   ??Subroutine54_0 & 0xFFFF
   \                     ??CrossCallReturnLabel_143:
   \   000003   12....       LCALL   ?Subroutine49 & 0xFFFF
   \                     ??CrossCallReturnLabel_92:
   \   000006   E0           MOVX    A,@DPTR
   \   000007   22           RET
    758          
    759          /**************************************************************************************************
    760           * @fn          MT_AfDataRetrieve
    761           *
    762           * @brief   Process AF Data Retrieve command to incrementally read out a very large
    763           *          incoming AF message.
    764           *
    765           * input parameters
    766           *
    767           * @param pBuf - pointer to the received buffer
    768           *
    769           * output parameters
    770           *
    771           * @param rtrn - AF-Status of the operation.
    772           *
    773           * @return      None.
    774           **************************************************************************************************
    775           */

   \                                 In  segment BANKED_CODE, align 1, keep-with-next
    776          void MT_AfDataRetrieve(uint8 *pBuf)
   \                     MT_AfDataRetrieve:
    777          {
   \   000000                REQUIRE ?V0
   \   000000                REQUIRE ?V1
   \   000000                REQUIRE ?V2
   \   000000                REQUIRE ?V3
   \   000000                REQUIRE ?V4
   \   000000                REQUIRE ?V5
   \   000000                REQUIRE ?V6
   \   000000                REQUIRE ?V7
   \   000000   74F0         MOV     A,#-0x10
   \   000002   12....       LCALL   ?BANKED_ENTER_XDATA
   \   000005                ; Saved register size: 16
   \   000005                ; Auto size: 5
   \   000005   74FB         MOV     A,#-0x5
   \   000007   12....       LCALL   ?ALLOC_XSTACK8
   \   00000A   7401         MOV     A,#0x1
   \   00000C   12....       LCALL   ?XSTACK_DISP0_8
   \   00000F   12....       LCALL   ?Subroutine39 & 0xFFFF
    778            #define MT_AF_RTV_HDR_SZ  2
    779          
    780            uint32 timestamp;
    781            mtAfInMsgList_t *pPrev, *pItem = pMtAfInMsgList;
   \                     ??CrossCallReturnLabel_79:
   \   000012   12....       LCALL   ?Subroutine22 & 0xFFFF
   \                     ??CrossCallReturnLabel_109:
   \   000015   7403         MOV     A,#0x3
   \   000017   12....       LCALL   ?XSTACK_DISP0_8
   \   00001A   12....       LCALL   ?Subroutine37 & 0xFFFF
    782            uint8 rtrn = afStatus_FAILED;
   \                     ??CrossCallReturnLabel_69:
   \   00001D   7A01         MOV     R2,#0x1
    783            uint8 len = 0;
   \   00001F   85..82       MOV     DPL,?XSP + 0
   \   000022   85..83       MOV     DPH,?XSP + 1
   \   000025   E4           CLR     A
   \   000026   F0           MOVX    @DPTR,A
    784          
    785            pBuf += MT_RPC_FRAME_HDR_SZ;
   \   000027   04           INC     A
   \   000028   12....       LCALL   ?XSTACK_DISP0_8
   \   00002B   E0           MOVX    A,@DPTR
   \   00002C   2403         ADD     A,#0x3
   \   00002E   F8           MOV     R0,A
   \   00002F   A3           INC     DPTR
   \   000030   E0           MOVX    A,@DPTR
   \   000031   3400         ADDC    A,#0x0
   \   000033   F9           MOV     R1,A
   \   000034   EA           MOV     A,R2
   \   000035   12....       LCALL   ?XSTACK_DISP0_8
   \   000038   12....       LCALL   ?Subroutine37 & 0xFFFF
    786            timestamp = BUILD_UINT32(pBuf[0], pBuf[1], pBuf[2], pBuf[3]);
   \                     ??CrossCallReturnLabel_70:
   \   00003B   EA           MOV     A,R2
   \   00003C   12....       LCALL   ?XSTACK_DISP0_8
   \   00003F   12....       LCALL   ?Subroutine12 & 0xFFFF
   \                     ??CrossCallReturnLabel_13:
   \   000042   F5..         MOV     ?V0,A
   \   000044   E4           CLR     A
   \   000045   F5..         MOV     ?V1,A
   \   000047   F5..         MOV     ?V2,A
   \   000049   F5..         MOV     ?V3,A
   \   00004B   04           INC     A
   \   00004C   12....       LCALL   ?XSTACK_DISP0_8
   \   00004F   12....       LCALL   ?Subroutine28 & 0xFFFF
   \                     ??CrossCallReturnLabel_42:
   \   000052   A3           INC     DPTR
   \   000053   E0           MOVX    A,@DPTR
   \   000054   F5..         MOV     ?V4,A
   \   000056   E4           CLR     A
   \   000057   F5..         MOV     ?V5,A
   \   000059   F5..         MOV     ?V6,A
   \   00005B   F5..         MOV     ?V7,A
   \   00005D   7408         MOV     A,#0x8
   \   00005F   78..         MOV     R0,#?V4
   \   000061   12....       LCALL   ?L_SHL
   \   000064   78..         MOV     R0,#?V0
   \   000066   79..         MOV     R1,#?V4
   \   000068   12....       LCALL   ?L_ADD
   \   00006B   EA           MOV     A,R2
   \   00006C   12....       LCALL   ?XSTACK_DISP0_8
   \   00006F   12....       LCALL   ?Subroutine5 & 0xFFFF
   \                     ??CrossCallReturnLabel_1:
   \   000072   F5..         MOV     ?V4,A
   \   000074   E4           CLR     A
   \   000075   F5..         MOV     ?V5,A
   \   000077   7410         MOV     A,#0x10
   \   000079   78..         MOV     R0,#?V4
   \   00007B   12....       LCALL   ?L_SHL
   \   00007E   78..         MOV     R0,#?V0
   \   000080   79..         MOV     R1,#?V4
   \   000082   12....       LCALL   ?L_ADD
   \   000085   EA           MOV     A,R2
   \   000086   12....       LCALL   ?XSTACK_DISP0_8
   \   000089   12....       LCALL   ?Subroutine24 & 0xFFFF
   \                     ??CrossCallReturnLabel_32:
   \   00008C   A3           INC     DPTR
   \   00008D   A3           INC     DPTR
   \   00008E   E0           MOVX    A,@DPTR
   \   00008F   F5..         MOV     ?V4,A
   \   000091   E4           CLR     A
   \   000092   F5..         MOV     ?V6,A
   \   000094   7418         MOV     A,#0x18
   \   000096   78..         MOV     R0,#?V4
   \   000098   12....       LCALL   ?L_SHL
   \   00009B   78..         MOV     R0,#?V0
   \   00009D   79..         MOV     R1,#?V4
   \   00009F   12....       LCALL   ?L_ADD
   \   0000A2   8010         SJMP    ??CrossCallReturnLabel_71
    787          
    788            while (pItem != NULL)
    789            {
    790              pPrev = pItem;
    791              if (pItem->timestamp == timestamp)
    792              {
    793                break;
    794              }
    795              pItem = pItem->next;
   \                     ??MT_AfDataRetrieve_0:
   \   0000A4   7403         MOV     A,#0x3
   \   0000A6   12....       LCALL   ?XSTACK_DISP0_8
   \   0000A9   12....       LCALL   ?Subroutine6 & 0xFFFF
   \                     ??CrossCallReturnLabel_4:
   \   0000AC   7403         MOV     A,#0x3
   \   0000AE   12....       LCALL   ?XSTACK_DISP0_8
   \   0000B1   12....       LCALL   ?Subroutine37 & 0xFFFF
   \                     ??CrossCallReturnLabel_71:
   \   0000B4   7403         MOV     A,#0x3
   \   0000B6   12....       LCALL   ?XSTACK_DISP0_8
   \   0000B9   12....       LCALL   ??Subroutine65_0 & 0xFFFF
   \                     ??CrossCallReturnLabel_162:
   \   0000BC   7003         JNZ     $+5
   \   0000BE   02....       LJMP    ??MT_AfDataRetrieve_1 & 0xFFFF
   \   0000C1   E8           MOV     A,R0
   \   0000C2   FC           MOV     R4,A
   \   0000C3   E9           MOV     A,R1
   \   0000C4   FD           MOV     R5,A
   \   0000C5   7403         MOV     A,#0x3
   \   0000C7   12....       LCALL   ?XSTACK_DISP0_8
   \   0000CA   12....       LCALL   ?Subroutine28 & 0xFFFF
    796            }
   \                     ??CrossCallReturnLabel_43:
   \   0000CD   A3           INC     DPTR
   \   0000CE   A3           INC     DPTR
   \   0000CF   A3           INC     DPTR
   \   0000D0   A3           INC     DPTR
   \   0000D1   78..         MOV     R0,#?V0
   \   0000D3   12....       LCALL   ?L_EQ_X
   \   0000D6   70CC         JNZ     ??MT_AfDataRetrieve_0
    797          
    798            if (pItem != NULL)
    799            {
    800              uint16 idx;
    801              uint8 *pRsp;
    802          
    803              pBuf += 4;
   \   0000D8   EA           MOV     A,R2
   \   0000D9   12....       LCALL   ?XSTACK_DISP0_8
   \   0000DC   E0           MOVX    A,@DPTR
   \   0000DD   2404         ADD     A,#0x4
   \   0000DF   F8           MOV     R0,A
   \   0000E0   A3           INC     DPTR
   \   0000E1   E0           MOVX    A,@DPTR
   \   0000E2   3400         ADDC    A,#0x0
   \   0000E4   F9           MOV     R1,A
   \   0000E5   EA           MOV     A,R2
   \   0000E6   12....       LCALL   ?XSTACK_DISP0_8
   \   0000E9   12....       LCALL   ?Subroutine37 & 0xFFFF
    804              idx = BUILD_UINT16(pBuf[0], pBuf[1]);
   \                     ??CrossCallReturnLabel_72:
   \   0000EC   EA           MOV     A,R2
   \   0000ED   12....       LCALL   ?XSTACK_DISP0_8
   \   0000F0   12....       LCALL   ?Subroutine12 & 0xFFFF
   \                     ??CrossCallReturnLabel_14:
   \   0000F3   FA           MOV     R2,A
   \   0000F4   7401         MOV     A,#0x1
   \   0000F6   12....       LCALL   ?XSTACK_DISP0_8
   \   0000F9   12....       LCALL   ?Subroutine28 & 0xFFFF
   \                     ??CrossCallReturnLabel_44:
   \   0000FC   12....       LCALL   ??Subroutine55_0 & 0xFFFF
    805              len = pBuf[2];
   \                     ??CrossCallReturnLabel_100:
   \   0000FF   7401         MOV     A,#0x1
   \   000101   12....       LCALL   ?XSTACK_DISP0_8
   \   000104   12....       LCALL   ?Subroutine5 & 0xFFFF
   \                     ??CrossCallReturnLabel_2:
   \   000107   85..82       MOV     DPL,?XSP + 0
   \   00010A   85..83       MOV     DPH,?XSP + 1
   \   00010D   F0           MOVX    @DPTR,A
    806          
    807              if (len == 0)  // Indication to delete the afIncomingMSGPacket.
   \   00010E   706C         JNZ     ??MT_AfDataRetrieve_2
    808              {
    809                if (pMtAfInMsgList == pItem)
   \   000110   12....       LCALL   ?Subroutine22 & 0xFFFF
   \                     ??CrossCallReturnLabel_110:
   \   000113   7403         MOV     A,#0x3
   \   000115   12....       LCALL   ?XSTACK_DISP0_8
   \   000118   E0           MOVX    A,@DPTR
   \   000119   68           XRL     A,R0
   \   00011A   7003         JNZ     ??MT_AfDataRetrieve_3
   \   00011C   A3           INC     DPTR
   \   00011D   E0           MOVX    A,@DPTR
   \   00011E   69           XRL     A,R1
   \                     ??MT_AfDataRetrieve_3:
   \   00011F   700D         JNZ     ??MT_AfDataRetrieve_4
    810                {
    811                  pMtAfInMsgList = pItem->next;
   \   000121   7403         MOV     A,#0x3
   \   000123   12....       LCALL   ?XSTACK_DISP0_8
   \   000126   12....       LCALL   ?Subroutine6 & 0xFFFF
    812                }
   \                     ??CrossCallReturnLabel_5:
   \   000129   90....       MOV     DPTR,#pMtAfInMsgList
   \   00012C   800C         SJMP    ??MT_AfDataRetrieve_5
    813                else
    814                {
    815                  pPrev->next = pItem->next;
   \                     ??MT_AfDataRetrieve_4:
   \   00012E   7403         MOV     A,#0x3
   \   000130   12....       LCALL   ?XSTACK_DISP0_8
   \   000133   12....       LCALL   ?Subroutine6 & 0xFFFF
    816                }
   \                     ??CrossCallReturnLabel_6:
   \   000136   8C82         MOV     DPL,R4
   \   000138   8D83         MOV     DPH,R5
   \                     ??MT_AfDataRetrieve_5:
   \   00013A   12....       LCALL   ?Subroutine37 & 0xFFFF
    817                (void)osal_mem_free(pItem);
   \                     ??CrossCallReturnLabel_73:
   \   00013D                ; Setup parameters for call to function osal_mem_free
   \   00013D   7403         MOV     A,#0x3
   \   00013F   12....       LCALL   ?XSTACK_DISP0_8
   \   000142   12....       LCALL   ??Subroutine62_0 & 0xFFFF
   \                     ??CrossCallReturnLabel_131:
   \   000145   12....       LCALL   ??osal_mem_free?relay; Banked call to: osal_mem_free
    818                rtrn = afStatus_SUCCESS;
   \   000148   7A00         MOV     R2,#0x0
    819              }
    820              else if ((pRsp = osal_mem_alloc(len + MT_AF_RTV_HDR_SZ)) == NULL)
    821              {
    822                rtrn = afStatus_MEM_FAIL;
    823                len = 0;
    824              }
    825              else
    826              {
    827                pRsp[0] = ZSuccess;
    828                pRsp[1] = len;
    829                (void)osal_memcpy(pRsp + MT_AF_RTV_HDR_SZ, pItem->data+idx, len);
    830                MT_BuildAndSendZToolResponse(((uint8)MT_RPC_CMD_SRSP | (uint8)MT_RPC_SYS_AF),
    831                                                     MT_AF_DATA_RETRIEVE, len + MT_AF_RTV_HDR_SZ, pRsp);
    832                (void)osal_mem_free(pRsp);
    833                return;
    834              }
    835            }
    836          
    837            pBuf[0] = rtrn;
   \                     ??MT_AfDataRetrieve_1:
   \   00014A   7401         MOV     A,#0x1
   \   00014C   12....       LCALL   ?XSTACK_DISP0_8
   \   00014F   12....       LCALL   ?Subroutine23 & 0xFFFF
    838            pBuf[1] = len;
   \                     ??CrossCallReturnLabel_31:
   \   000152   85..82       MOV     DPL,?XSP + 0
   \   000155   85..83       MOV     DPH,?XSP + 1
   \   000158   E0           MOVX    A,@DPTR
   \   000159   C0E0         PUSH    A
   \   00015B   7401         MOV     A,#0x1
   \   00015D   12....       LCALL   ?XSTACK_DISP0_8
   \   000160   12....       LCALL   ?Subroutine24 & 0xFFFF
   \                     ??CrossCallReturnLabel_33:
   \   000163   D0E0         POP     A
   \   000165   F0           MOVX    @DPTR,A
    839            MT_BuildAndSendZToolResponse(((uint8)MT_RPC_CMD_SRSP | (uint8)MT_RPC_SYS_AF),
    840                                                 MT_AF_DATA_RETRIEVE, MT_AF_RTV_HDR_SZ, pBuf);
   \   000166                ; Setup parameters for call to function MT_BuildAndSendZToolResponse
   \   000166   7401         MOV     A,#0x1
   \   000168   12....       LCALL   ?XSTACK_DISP0_8
   \   00016B   12....       LCALL   ?Subroutine27 & 0xFFFF
   \                     ??CrossCallReturnLabel_41:
   \   00016E   7B02         MOV     R3,#0x2
   \   000170   7A12         MOV     R2,#0x12
   \   000172   7964         MOV     R1,#0x64
   \   000174   12....       LCALL   ??MT_BuildAndSendZToolResponse?relay; Banked call to: MT_BuildAndSendZToolResponse
    841          }
   \                     ??MT_AfDataRetrieve_6:
   \   000177   7405         MOV     A,#0x5
   \   000179   02....       LJMP    ?Subroutine2 & 0xFFFF
   \                     ??MT_AfDataRetrieve_2:
   \   00017C                ; Setup parameters for call to function osal_mem_alloc
   \   00017C   2402         ADD     A,#0x2
   \   00017E   FA           MOV     R2,A
   \   00017F   E4           CLR     A
   \   000180   3400         ADDC    A,#0x0
   \   000182   FB           MOV     R3,A
   \   000183   12....       LCALL   ??osal_mem_alloc?relay; Banked call to: osal_mem_alloc
   \   000186   8A..         MOV     ?V0,R2
   \   000188   8B..         MOV     ?V1,R3
   \   00018A   EA           MOV     A,R2
   \   00018B   45..         ORL     A,?V1
   \   00018D   700C         JNZ     ??MT_AfDataRetrieve_7
   \   00018F   7A10         MOV     R2,#0x10
   \   000191   85..82       MOV     DPL,?XSP + 0
   \   000194   85..83       MOV     DPH,?XSP + 1
   \   000197   E4           CLR     A
   \   000198   F0           MOVX    @DPTR,A
   \   000199   80AF         SJMP    ??MT_AfDataRetrieve_1
   \                     ??MT_AfDataRetrieve_7:
   \   00019B   8A82         MOV     DPL,R2
   \   00019D   8B83         MOV     DPH,R3
   \   00019F   E4           CLR     A
   \   0001A0   F0           MOVX    @DPTR,A
   \   0001A1   85..82       MOV     DPL,?XSP + 0
   \   0001A4   85..83       MOV     DPH,?XSP + 1
   \   0001A7   E0           MOVX    A,@DPTR
   \   0001A8   8A82         MOV     DPL,R2
   \   0001AA   8B83         MOV     DPH,R3
   \   0001AC   A3           INC     DPTR
   \   0001AD   F0           MOVX    @DPTR,A
   \   0001AE                ; Setup parameters for call to function osal_memcpy
   \   0001AE   7403         MOV     A,#0x3
   \   0001B0   12....       LCALL   ?XSTACK_DISP0_8
   \   0001B3   12....       LCALL   ?Subroutine5 & 0xFFFF
   \                     ??CrossCallReturnLabel_3:
   \   0001B6   2E           ADD     A,R6
   \   0001B7   F5..         MOV     ?V4,A
   \   0001B9   A3           INC     DPTR
   \   0001BA   E0           MOVX    A,@DPTR
   \   0001BB   3F           ADDC    A,R7
   \   0001BC   F5..         MOV     ?V5,A
   \   0001BE   78..         MOV     R0,#?V4
   \   0001C0   12....       LCALL   ?PUSH_XSTACK_I_THREE
   \   0001C3   7403         MOV     A,#0x3
   \   0001C5   12....       LCALL   ?XSTACK_DISP0_8
   \   0001C8   E0           MOVX    A,@DPTR
   \   0001C9   FC           MOV     R4,A
   \   0001CA   7D00         MOV     R5,#0x0
   \   0001CC   EA           MOV     A,R2
   \   0001CD   2402         ADD     A,#0x2
   \   0001CF   FA           MOV     R2,A
   \   0001D0   E4           CLR     A
   \   0001D1   35..         ADDC    A,?V1
   \   0001D3   FB           MOV     R3,A
   \   0001D4   12....       LCALL   ??osal_memcpy?relay  ; Banked call to: osal_memcpy
   \   0001D7   7403         MOV     A,#0x3
   \   0001D9   12....       LCALL   ?DEALLOC_XSTACK8
   \   0001DC                ; Setup parameters for call to function MT_BuildAndSendZToolResponse
   \   0001DC   AC..         MOV     R4,?V0
   \   0001DE   AD..         MOV     R5,?V1
   \   0001E0   85..82       MOV     DPL,?XSP + 0
   \   0001E3   85..83       MOV     DPH,?XSP + 1
   \   0001E6   E0           MOVX    A,@DPTR
   \   0001E7   2402         ADD     A,#0x2
   \   0001E9   FB           MOV     R3,A
   \   0001EA   7A12         MOV     R2,#0x12
   \   0001EC   7964         MOV     R1,#0x64
   \   0001EE   12....       LCALL   ??MT_BuildAndSendZToolResponse?relay; Banked call to: MT_BuildAndSendZToolResponse
   \   0001F1                ; Setup parameters for call to function osal_mem_free
   \   0001F1   AA..         MOV     R2,?V0
   \   0001F3   AB..         MOV     R3,?V1
   \   0001F5   12....       LCALL   ??osal_mem_free?relay; Banked call to: osal_mem_free
   \   0001F8   02....       LJMP    ??MT_AfDataRetrieve_6 & 0xFFFF

   \                                 In  segment BANKED_CODE, align 1, keep-with-next
   \                     ?Subroutine24:
   \   000000   12....       LCALL   ?Subroutine44 & 0xFFFF
   \                     ??CrossCallReturnLabel_155:
   \   000003   A3           INC     DPTR
   \   000004   22           RET

   \                                 In  segment BANKED_CODE, align 1, keep-with-next
   \                     ?Subroutine6:
   \   000000   12....       LCALL   ?Subroutine44 & 0xFFFF
   \                     ??CrossCallReturnLabel_152:
   \   000003   12....       LCALL   ?Subroutine45 & 0xFFFF
   \                     ??CrossCallReturnLabel_168:
   \   000006   22           RET

   \                                 In  segment BANKED_CODE, align 1, keep-with-next
   \                     ?Subroutine28:
   \   000000   12....       LCALL   ??Subroutine64_0 & 0xFFFF
   \                     ??CrossCallReturnLabel_150:
   \   000003   22           RET

   \                                 In  segment BANKED_CODE, align 1, keep-with-next
   \                     ?Subroutine12:
   \   000000   12....       LCALL   ?Subroutine44 & 0xFFFF
   \                     ??CrossCallReturnLabel_153:
   \   000003   E0           MOVX    A,@DPTR
   \   000004   22           RET
    842          
    843          /**************************************************************************************************
    844           * @fn          MT_AfDataStore
    845           *
    846           * @brief   Process AF Data Store command to incrementally store the data buffer for very large
    847           *          outgoing AF message.
    848           *
    849           * input parameters
    850           *
    851           * @param pBuf - pointer to the received buffer
    852           *
    853           * output parameters
    854           *
    855           * @param rtrn - AF-Status of the operation.
    856           *
    857           * @return      None.
    858           **************************************************************************************************
    859           */

   \                                 In  segment BANKED_CODE, align 1, keep-with-next
    860          void MT_AfDataStore(uint8 *pBuf)
   \                     MT_AfDataStore:
    861          {
   \   000000                REQUIRE ?V0
   \   000000                REQUIRE ?V1
   \   000000                REQUIRE ?V2
   \   000000                REQUIRE ?V4
   \   000000                REQUIRE ?V5
   \   000000   74F2         MOV     A,#-0xe
   \   000002   12....       LCALL   ?BANKED_ENTER_XDATA
   \   000005                ; Saved register size: 14
   \   000005                ; Auto size: 1
   \   000005   74FF         MOV     A,#-0x1
   \   000007   12....       LCALL   ?ALLOC_XSTACK8
    862            uint16 idx;
    863            uint8 len, rtrn = afStatus_FAILED;
   \   00000A   85..82       MOV     DPL,?XSP + 0
   \   00000D   85..83       MOV     DPH,?XSP + 1
   \   000010   7401         MOV     A,#0x1
   \   000012   F0           MOVX    @DPTR,A
    864          
    865            pBuf += MT_RPC_FRAME_HDR_SZ;
   \   000013   EA           MOV     A,R2
   \   000014   2403         ADD     A,#0x3
   \   000016   FA           MOV     R2,A
   \   000017   5001         JNC     ??MT_AfDataStore_0
   \   000019   0B           INC     R3
    866            idx = BUILD_UINT16(pBuf[0], pBuf[1]);
   \                     ??MT_AfDataStore_0:
   \   00001A   8A82         MOV     DPL,R2
   \   00001C   8B83         MOV     DPH,R3
   \   00001E   E0           MOVX    A,@DPTR
   \   00001F   FC           MOV     R4,A
   \   000020   A3           INC     DPTR
   \   000021   E0           MOVX    A,@DPTR
   \   000022   F8           MOV     R0,A
   \   000023   E4           CLR     A
   \   000024   C8           XCH     A,R0
   \   000025   F9           MOV     R1,A
   \   000026   EC           MOV     A,R4
   \   000027   28           ADD     A,R0
   \   000028   FE           MOV     R6,A
   \   000029   E4           CLR     A
   \   00002A   39           ADDC    A,R1
   \   00002B   FF           MOV     R7,A
    867            len = pBuf[2];
   \   00002C   8A82         MOV     DPL,R2
   \   00002E   8B83         MOV     DPH,R3
   \   000030   A3           INC     DPTR
   \   000031   A3           INC     DPTR
   \   000032   E0           MOVX    A,@DPTR
   \   000033   F5..         MOV     ?V4,A
    868            pBuf += 3;
   \   000035   EA           MOV     A,R2
   \   000036   2403         ADD     A,#0x3
   \   000038   FA           MOV     R2,A
   \   000039   5001         JNC     ??MT_AfDataStore_1
   \   00003B   0B           INC     R3
    869          
    870            if (pMtAfDataReq == NULL)
   \                     ??MT_AfDataStore_1:
   \   00003C   12....       LCALL   ?Subroutine3 & 0xFFFF
   \                     ??CrossCallReturnLabel_167:
   \   00003F   700B         JNZ     ??MT_AfDataStore_2
    871            {
    872              rtrn = afStatus_MEM_FAIL;
   \   000041   85..82       MOV     DPL,?XSP + 0
   \   000044   85..83       MOV     DPH,?XSP + 1
   \   000047   7410         MOV     A,#0x10
   \   000049   02....       LJMP    ??MT_AfDataStore_3 & 0xFFFF
    873            }
    874            else if (len == 0)  // Indication to send the message.
   \                     ??MT_AfDataStore_2:
   \   00004C   E5..         MOV     A,?V4
   \   00004E   7067         JNZ     ??MT_AfDataStore_4
    875            {
    876              rtrn = AF_DataRequest(&(pMtAfDataReq->dstAddr), pMtAfDataReq->epDesc, pMtAfDataReq->cId,
    877                                      pMtAfDataReq->dataLen,  pMtAfDataReq->data,
    878                                    &(pMtAfDataReq->transId), pMtAfDataReq->txOpts, pMtAfDataReq->radius);
   \   000050                ; Setup parameters for call to function AF_DataRequest
   \   000050   E0           MOVX    A,@DPTR
   \   000051   C8           XCH     A,R0
   \   000052   12....       LCALL   ?Subroutine40 & 0xFFFF
   \                     ??CrossCallReturnLabel_81:
   \   000055   E0           MOVX    A,@DPTR
   \   000056   F5..         MOV     ?V0,A
   \   000058   78..         MOV     R0,#?V0
   \   00005A   12....       LCALL   ?PUSH_XSTACK_I_ONE
   \   00005D   90....       MOV     DPTR,#pMtAfDataReq
   \   000060   E0           MOVX    A,@DPTR
   \   000061   2414         ADD     A,#0x14
   \   000063   F5..         MOV     ?V0,A
   \   000065   A3           INC     DPTR
   \   000066   E0           MOVX    A,@DPTR
   \   000067   3400         ADDC    A,#0x0
   \   000069   F5..         MOV     ?V1,A
   \   00006B   78..         MOV     R0,#?V0
   \   00006D   12....       LCALL   ?PUSH_XSTACK_I_TWO
   \   000070   90....       MOV     DPTR,#pMtAfDataReq
   \   000073   E0           MOVX    A,@DPTR
   \   000074   F8           MOV     R0,A
   \   000075   12....       LCALL   ?Subroutine28 & 0xFFFF
   \                     ??CrossCallReturnLabel_45:
   \   000078   12....       LCALL   ?PUSH_XSTACK8_X_TWO
   \   00007B   12....       LCALL   ?Subroutine19 & 0xFFFF
   \                     ??CrossCallReturnLabel_27:
   \   00007E   12....       LCALL   ?PUSH_XSTACK8_X_TWO
   \   000081   12....       LCALL   ?Subroutine18 & 0xFFFF
   \                     ??CrossCallReturnLabel_25:
   \   000084   12....       LCALL   ?PUSH_XSTACK8_X_TWO
   \   000087   12....       LCALL   ?Subroutine20 & 0xFFFF
   \                     ??CrossCallReturnLabel_29:
   \   00008A   E0           MOVX    A,@DPTR
   \   00008B   F9           MOV     R1,A
   \   00008C   90....       MOV     DPTR,#pMtAfDataReq
   \   00008F   12....       LCALL   ?Subroutine15 & 0xFFFF
   \                     ??CrossCallReturnLabel_19:
   \   000092   FC           MOV     R4,A
   \   000093   A3           INC     DPTR
   \   000094   E0           MOVX    A,@DPTR
   \   000095   FD           MOV     R5,A
   \   000096   12....       LCALL   ?Subroutine26 & 0xFFFF
   \                     ??CrossCallReturnLabel_37:
   \   000099   12....       LCALL   ??AF_DataRequest?relay; Banked call to: AF_DataRequest
   \   00009C   7409         MOV     A,#0x9
   \   00009E   12....       LCALL   ?DEALLOC_XSTACK8
   \   0000A1   E9           MOV     A,R1
   \   0000A2   85..82       MOV     DPL,?XSP + 0
   \   0000A5   85..83       MOV     DPH,?XSP + 1
   \   0000A8   F0           MOVX    @DPTR,A
    879              (void)osal_mem_free(pMtAfDataReq);
   \   0000A9                ; Setup parameters for call to function osal_mem_free
   \   0000A9   12....       LCALL   ?Subroutine10 & 0xFFFF
   \                     ??CrossCallReturnLabel_133:
   \   0000AC   12....       LCALL   ??osal_mem_free?relay; Banked call to: osal_mem_free
    880              pMtAfDataReq = NULL;
   \   0000AF   90....       MOV     DPTR,#pMtAfDataReq
   \   0000B2   E4           CLR     A
   \   0000B3   F0           MOVX    @DPTR,A
   \   0000B4   A3           INC     DPTR
   \   0000B5   802B         SJMP    ??MT_AfDataStore_3
    881            }
    882            else
    883            {
    884              (void)osal_memcpy(pMtAfDataReq->data+idx, pBuf, len);
   \                     ??MT_AfDataStore_4:
   \   0000B7                ; Setup parameters for call to function osal_memcpy
   \   0000B7   8A..         MOV     ?V0,R2
   \   0000B9   8B..         MOV     ?V1,R3
   \   0000BB   75..00       MOV     ?V2,#0x0
   \   0000BE   78..         MOV     R0,#?V0
   \   0000C0   12....       LCALL   ?PUSH_XSTACK_I_THREE
   \   0000C3   AC..         MOV     R4,?V4
   \   0000C5   7D00         MOV     R5,#0x0
   \   0000C7   90....       MOV     DPTR,#pMtAfDataReq
   \   0000CA   12....       LCALL   ?Subroutine12 & 0xFFFF
   \                     ??CrossCallReturnLabel_15:
   \   0000CD   2E           ADD     A,R6
   \   0000CE   FA           MOV     R2,A
   \   0000CF   A3           INC     DPTR
   \   0000D0   E0           MOVX    A,@DPTR
   \   0000D1   3F           ADDC    A,R7
   \   0000D2   FB           MOV     R3,A
   \   0000D3   12....       LCALL   ??osal_memcpy?relay  ; Banked call to: osal_memcpy
   \   0000D6   7403         MOV     A,#0x3
   \   0000D8   12....       LCALL   ?DEALLOC_XSTACK8
    885              rtrn = afStatus_SUCCESS;
   \   0000DB   85..82       MOV     DPL,?XSP + 0
   \   0000DE   85..83       MOV     DPH,?XSP + 1
   \   0000E1   E4           CLR     A
   \                     ??MT_AfDataStore_3:
   \   0000E2   F0           MOVX    @DPTR,A
    886            }
    887          
    888            MT_BuildAndSendZToolResponse(((uint8)MT_RPC_CMD_SRSP | (uint8)MT_RPC_SYS_AF),
    889                                                                          MT_AF_DATA_STORE, 1, &rtrn);
   \   0000E3                ; Setup parameters for call to function MT_BuildAndSendZToolResponse
   \   0000E3   AC..         MOV     R4,?XSP + 0
   \   0000E5   AD..         MOV     R5,?XSP + 1
   \   0000E7   7B01         MOV     R3,#0x1
   \   0000E9   7A11         MOV     R2,#0x11
   \   0000EB   02....       LJMP    ?Subroutine1 & 0xFFFF
    890          }

   \                                 In  segment BANK_RELAYS, align 1
   \                     ??MT_AfExec?relay:
   \   000000   12....       LCALL   ?BDISPATCH
   \   000003   ......       DC24    MT_AfExec

   \                                 In  segment BANK_RELAYS, align 1
   \                     ??MT_AfCommandProcessing?relay:
   \   000000   12....       LCALL   ?BDISPATCH
   \   000003   ......       DC24    MT_AfCommandProcessing

   \                                 In  segment BANK_RELAYS, align 1
   \                     ??MT_AfRegister?relay:
   \   000000   12....       LCALL   ?BDISPATCH
   \   000003   ......       DC24    MT_AfRegister

   \                                 In  segment BANK_RELAYS, align 1
   \                     ??MT_AfDataRequest?relay:
   \   000000   12....       LCALL   ?BDISPATCH
   \   000003   ......       DC24    MT_AfDataRequest

   \                                 In  segment BANK_RELAYS, align 1
   \                     ??MT_AfDataRequestSrcRtg?relay:
   \   000000   12....       LCALL   ?BDISPATCH
   \   000003   ......       DC24    MT_AfDataRequestSrcRtg

   \                                 In  segment BANK_RELAYS, align 1
   \                     ??MT_AfDataConfirm?relay:
   \   000000   12....       LCALL   ?BDISPATCH
   \   000003   ......       DC24    MT_AfDataConfirm

   \                                 In  segment BANK_RELAYS, align 1
   \                     ??MT_AfIncomingMsg?relay:
   \   000000   12....       LCALL   ?BDISPATCH
   \   000003   ......       DC24    MT_AfIncomingMsg

   \                                 In  segment BANK_RELAYS, align 1
   \                     ??MT_AfDataRetrieve?relay:
   \   000000   12....       LCALL   ?BDISPATCH
   \   000003   ......       DC24    MT_AfDataRetrieve

   \                                 In  segment BANK_RELAYS, align 1
   \                     ??MT_AfDataStore?relay:
   \   000000   12....       LCALL   ?BDISPATCH
   \   000003   ......       DC24    MT_AfDataStore
    891          
    892          /**************************************************************************************************
    893           * @fn          MT_AfAPSF_ConfigSet
    894           *
    895           * @brief       This function is the MT proxy for afAPSF_ConfigSet().
    896           *
    897           * input parameters
    898           *
    899           * @param       pBuf - Pointer to the received buffer.
    900           *
    901           * output parameters
    902           *
    903           * None.
    904           *
    905           * @return      None.
    906           */
    907          static void MT_AfAPSF_ConfigSet(uint8 *pBuf)
    908          {
    909            afAPSF_Config_t cfg = { pBuf[MT_RPC_POS_DAT0+1], pBuf[MT_RPC_POS_DAT0+2] };
    910            afStatus_t rtrn = afAPSF_ConfigSet(pBuf[MT_RPC_POS_DAT0], &cfg);
    911          
    912            MT_BuildAndSendZToolResponse(((uint8)MT_RPC_CMD_SRSP | (uint8)MT_RPC_SYS_AF),
    913                                                 MT_AF_APSF_CONFIG_SET, 1, (uint8 *)&rtrn);
    914          }
    915          
    916          /***************************************************************************************************
    917          ***************************************************************************************************/

   Maximum stack usage in bytes:

   ISTACK XSTACK Function
   ------ ------ --------
      1     12   MT_AfCommandProcessing
        0     12   -> MT_AfDataRequest
        0     12   -> MT_AfDataRequestSrcRtg
        0     12   -> MT_AfDataRetrieve
        0     12   -> MT_AfDataStore
        0     12   -> MT_AfRegister
        0     12   -> MT_BuildAndSendZToolResponse
        0     12   -> afAPSF_ConfigSet
      3      3   MT_AfDataConfirm
        2      3   -> MT_BuildAndSendZToolResponse
      1     54   MT_AfDataRequest
        0     42   -> AF_DataRequest
        0     33   -> MT_BuildAndSendZToolResponse
        0     33   -> afFindEndPointDesc
        0     33   -> osal_mem_alloc
        0     36   -> osal_memcpy
        0     33   -> osal_set_event
        0     33   -> osal_start_timerEx
      1     58   MT_AfDataRequestSrcRtg
        0     46   -> AF_DataRequestSrcRtg
        0     34   -> MT_BuildAndSendZToolResponse
        0     34   -> afFindEndPointDesc
        0     34   -> osal_mem_alloc
        0     34   -> osal_mem_free
        0     34   -> osal_memset
      1     36   MT_AfDataRetrieve
        0     21   -> MT_BuildAndSendZToolResponse
        0     21   -> osal_mem_alloc
        0     21   -> osal_mem_free
        0     24   -> osal_memcpy
      1     36   MT_AfDataStore
        0     24   -> AF_DataRequest
        0     15   -> MT_BuildAndSendZToolResponse
        0     15   -> osal_mem_free
        0     18   -> osal_memcpy
      0      9   MT_AfExec
        0      9   -> osal_mem_free
        0      9   -> osal_set_event
        0      9   -> osal_start_timerEx
      1     26   MT_AfIncomingMsg
        0     23   -> MT_BuildAndSendZToolResponse
        0     23   -> osal_mem_alloc
        0     23   -> osal_mem_free
        0     26   -> osal_memcpy
        0     23   -> osal_set_event
        0     23   -> osal_start_timerEx
      1     27   MT_AfRegister
        0     15   -> MT_BuildAndSendZToolResponse
        0     15   -> MT_BuildEndpointDesc
        0     15   -> afRegister
        0     15   -> osal_mem_alloc
        0     15   -> osal_mem_free


   Segment part sizes:

   Bytes  Function/Label
   -----  --------------
       6  ??MT_AfCommandProcessing?relay
       6  ??MT_AfDataConfirm?relay
       6  ??MT_AfDataRequest?relay
       6  ??MT_AfDataRequestSrcRtg?relay
       6  ??MT_AfDataRetrieve?relay
       6  ??MT_AfDataStore?relay
       6  ??MT_AfExec?relay
       6  ??MT_AfIncomingMsg?relay
       6  ??MT_AfRegister?relay
       8  ??Subroutine53_0
       6  ??Subroutine54_0
      13  ??Subroutine55_0
      12  ??Subroutine56_0
       4  ??Subroutine57_0
       6  ??Subroutine58_0
       4  ??Subroutine59_0
       6  ??Subroutine60_0
       5  ??Subroutine61_0
       6  ??Subroutine62_0
       7  ??Subroutine63_0
       7  ??Subroutine64_0
       6  ??Subroutine65_0
       5  ?Subroutine0
      15  ?Subroutine1
       3  ?Subroutine10
       5  ?Subroutine11
       5  ?Subroutine12
       4  ?Subroutine13
       2  ?Subroutine14
       8  ?Subroutine15
      12  ?Subroutine16
       8  ?Subroutine17
      12  ?Subroutine18
      12  ?Subroutine19
       8  ?Subroutine2
      12  ?Subroutine20
       2  ?Subroutine21
       3  ?Subroutine22
       6  ?Subroutine23
       5  ?Subroutine24
      10  ?Subroutine25
      13  ?Subroutine26
       6  ?Subroutine27
       4  ?Subroutine28
       9  ?Subroutine29
       3  ?Subroutine3
       6  ?Subroutine30
       6  ?Subroutine31
       8  ?Subroutine32
       4  ?Subroutine33
      12  ?Subroutine34
       5  ?Subroutine35
      17  ?Subroutine36
       6  ?Subroutine37
       2  ?Subroutine38
       6  ?Subroutine39
       6  ?Subroutine4
       9  ?Subroutine40
       3  ?Subroutine41
      14  ?Subroutine42
       5  ?Subroutine43
       2  ?Subroutine44
       6  ?Subroutine45
      10  ?Subroutine46
       7  ?Subroutine47
       9  ?Subroutine48
       9  ?Subroutine49
       7  ?Subroutine5
      14  ?Subroutine50
       9  ?Subroutine51
       7  ?Subroutine52
       7  ?Subroutine6
      12  ?Subroutine7
      27  ?Subroutine8
       2  ?Subroutine9
     162  MT_AfCommandProcessing
      74  MT_AfDataConfirm
     664  MT_AfDataRequest
     425  MT_AfDataRequestSrcRtg
     507  MT_AfDataRetrieve
     238  MT_AfDataStore
     156  MT_AfExec
     746  MT_AfIncomingMsg
     117  MT_AfRegister
       2  pMtAfDataReq
       2  pMtAfInMsgList

 
 3 588 bytes in segment BANKED_CODE
    54 bytes in segment BANK_RELAYS
     4 bytes in segment XDATA_Z
 
 3 642 bytes of CODE  memory
     4 bytes of XDATA memory

Errors: none
Warnings: none
